 canvas

 Timestamp is 5a498e81 (Mon Jan  1 09:27:29 2018)

 Preferred load address is 0000000180000000

 Start         Length     Name                   Class
 0001:00000000 000001a0H .text$di                CODE
 0001:000001a0 00031b70H .text$mn                CODE
 0001:00031d10 000001e0H .text$mn$00             CODE
 0001:00031ef0 00000790H .text$x                 CODE
 0001:00032680 0000021cH .text$yd                CODE
 0002:00000000 00000828H .idata$5                DATA
 0002:00000828 00000010H .00cfg                  DATA
 0002:00000838 00000008H .CRT$XCA                DATA
 0002:00000840 00000018H .CRT$XCC                DATA
 0002:00000858 00000010H .CRT$XCL                DATA
 0002:00000868 00000058H .CRT$XCU                DATA
 0002:000008c0 00000008H .CRT$XCZ                DATA
 0002:000008c8 00000008H .CRT$XIA                DATA
 0002:000008d0 00000030H .CRT$XIC                DATA
 0002:00000900 00000008H .CRT$XIZ                DATA
 0002:00000908 00000008H .CRT$XLA                DATA
 0002:00000910 00000008H .CRT$XLZ                DATA
 0002:00000918 00000008H .CRT$XPA                DATA
 0002:00000920 00000010H .CRT$XPX                DATA
 0002:00000930 00000008H .CRT$XPXA               DATA
 0002:00000938 00000008H .CRT$XPZ                DATA
 0002:00000940 00000008H .CRT$XTA                DATA
 0002:00000948 00000008H .CRT$XTZ                DATA
 0002:00000950 00011fc8H .rdata                  DATA
 0002:00012918 00000028H .rdata$T                DATA
 0002:00012940 00000404H .rdata$r                DATA
 0002:00012d44 000004acH .rdata$zzzdbg           DATA
 0002:000131f0 00000008H .rtc$IAA                DATA
 0002:000131f8 00000008H .rtc$IZZ                DATA
 0002:00013200 00000008H .rtc$TAA                DATA
 0002:00013208 00000008H .rtc$TZZ                DATA
 0002:00013210 00003150H .xdata                  DATA
 0002:00016360 00000244H .xdata$x                DATA
 0002:000165a4 00000020H .didat$2                DATA
 0002:000165c4 00000024H .didat$3                DATA
 0002:000165e8 00000310H .didat$4                DATA
 0002:000168f8 000018b0H .didat$6                DATA
 0002:000181a8 00000318H .didat$7                DATA
 0002:000184c0 00000050H .edata                  DATA
 0002:00018510 000000b4H .idata$2                DATA
 0002:000185c4 00000014H .idata$3                DATA
 0002:000185d8 00000828H .idata$4                DATA
 0002:00018e00 0000164cH .idata$6                DATA
 0003:00000000 00000b80H .data                   DATA
 0003:00000b80 00000140H .data$r                 DATA
 0003:00000cc0 00000310H .didat$5                DATA
 0003:00000fd0 0000189cH .bss                    DATA
 0004:00000000 000028f8H .pdata                  DATA
 0005:00000000 00000088H .gfids$x                DATA
 0005:00000088 0000008cH .gfids$y                DATA
 0006:00000000 00000004H .tls                    DATA
 0006:00000004 00000004H .tls$                   DATA
 0006:00000008 00000001H .tls$ZZZ                DATA
 0007:00000000 00000060H .rsrc$01                DATA
 0007:00000060 00000180H .rsrc$02                DATA

  Address         Publics by Value              Rva+Base               Lib:Object

 0000:00000000       __guard_iat_table          0000000000000000     <absolute>
 0000:00000000       __dynamic_value_reloc_table 0000000000000000     <absolute>
 0000:00000000       __guard_longjmp_table      0000000000000000     <absolute>
 0000:00000000       __guard_longjmp_count      0000000000000000     <absolute>
 0000:00000000       __guard_iat_count          0000000000000000     <absolute>
 0000:00000000       __guard_fids_count         0000000000000000     <absolute>
 0000:00000000       ___safe_se_handler_table   0000000000000000     <absolute>
 0000:00000000       ___safe_se_handler_count   0000000000000000     <absolute>
 0000:00000000       __guard_fids_table         0000000000000000     <absolute>
 0000:00000100       __guard_flags              0000000000000100     <absolute>
 0000:00000000       __ImageBase                0000000180000000     <linker-defined>
 0001:000001a0       ??1ObjectWrap@Nan@@UEAA@XZ 00000001800011a0 f i Backend.obj
 0001:00000220       ?Ref@ObjectWrap@Nan@@MEAAXXZ 0000000180001220 f i Backend.obj
 0001:00000260       ?Unref@ObjectWrap@Nan@@MEAAXXZ 0000000180001260 f i Backend.obj
 0001:00000310       ?WeakCallback@ObjectWrap@Nan@@CAXAEBV?$WeakCallbackInfo@VObjectWrap@Nan@@@v8@@@Z 0000000180001310 f i Backend.obj
 0001:000003a0       ??_EObjectWrap@Nan@@UEAAPEAXI@Z 00000001800013a0 f i * CIL library *:* CIL module *
 0001:000003a0       ??_GObjectWrap@Nan@@UEAAPEAXI@Z 00000001800013a0 f i Backend.obj
 0001:000003e0       ?getFormat@Backend@@UEAA?AW4_cairo_format@@XZ 00000001800013e0 f i Backend.obj
 0001:000003f0       ??0Backend@@IEAA@V?$basic_string@DU?$char_traits@D@std@@V?$allocator@D@2@@std@@HH@Z 00000001800013f0 f   Backend.obj
 0001:000004b0       ??_GBackend@@UEAAPEAXI@Z   00000001800014b0 f i Backend.obj
 0001:000004b0       ??_EBackend@@UEAAPEAXI@Z   00000001800014b0 f i * CIL library *:* CIL module *
 0001:00000520       ?recreateSurface@Backend@@UEAAPEAU_cairo_surface@@XZ 0000000180001520 f   Backend.obj
 0001:00000550       ?getName@Backend@@QEAA?AV?$basic_string@DU?$char_traits@D@std@@V?$allocator@D@2@@std@@XZ 0000000180001550 f   Backend.obj
 0001:00000590       ?setWidth@Backend@@UEAAXH@Z 0000000180001590 f   Backend.obj
 0001:000005a0       ?setHeight@Backend@@UEAAXH@Z 00000001800015a0 f   Backend.obj
 0001:000005b0       ??1?$basic_string@DU?$char_traits@D@std@@V?$allocator@D@2@@std@@QEAA@XZ 00000001800015b0 f i Backend.obj
 0001:00000640       ?assign@?$basic_string@DU?$char_traits@D@std@@V?$allocator@D@2@@std@@QEAAAEAV12@PEBD_K@Z 0000000180001640 f i Backend.obj
 0001:00000770       ?assign@?$basic_string@DU?$char_traits@D@std@@V?$allocator@D@2@@std@@QEAAAEAV12@AEBV12@_K1@Z 0000000180001770 f i Backend.obj
 0001:000008a0       ?erase@?$basic_string@DU?$char_traits@D@std@@V?$allocator@D@2@@std@@QEAAAEAV12@_K0@Z 00000001800018a0 f i Backend.obj
 0001:00000970       ?_Copy@?$basic_string@DU?$char_traits@D@std@@V?$allocator@D@2@@std@@QEAAX_K0@Z 0000000180001970 f i Backend.obj
 0001:00000bc0       ?NewInstance@Nan@@YA?AV?$MaybeLocal@VObject@v8@@@v8@@V?$Local@VObjectTemplate@v8@@@3@@Z 0000000180001bc0 f i ImageBackend.obj
 0001:00000c40       ?New@?$Factory@VFunctionTemplate@v8@@@imp@Nan@@SA?AV?$Local@VFunctionTemplate@v8@@@v8@@P6AXAEBV?$FunctionCallbackInfo@VValue@v8@@@3@@ZV?$Local@VValue@v8@@@5@V?$Local@VSignature@v8@@@5@@Z 0000000180001c40 f i ImageBackend.obj
 0001:00000dc0       ??1EscapableHandleScope@Nan@@QEAA@XZ 0000000180001dc0 f i Canvas.obj
 0001:00000dc0       ??1HandleScope@Nan@@QEAA@XZ 0000000180001dc0 f i ImageBackend.obj
 0001:00000dd0       ?Wrap@ObjectWrap@Nan@@IEAAXV?$Local@VObject@v8@@@v8@@@Z 0000000180001dd0 f i ImageBackend.obj
 0001:00000eb0       ??0ImageBackend@@QEAA@HH@Z 0000000180001eb0 f   ImageBackend.obj
 0001:00000f30       ??_EImageBackend@@UEAAPEAXI@Z 0000000180001f30 f i * CIL library *:* CIL module *
 0001:00000f30       ??_GImageBackend@@UEAAPEAXI@Z 0000000180001f30 f i ImageBackend.obj
 0001:00000f70       ??1ImageBackend@@UEAA@XZ   0000000180001f70 f   ImageBackend.obj
 0001:00001050       ?createSurface@ImageBackend@@EEAAPEAU_cairo_surface@@XZ 0000000180002050 f   ImageBackend.obj
 0001:00001120       ?recreateSurface@ImageBackend@@EEAAPEAU_cairo_surface@@XZ 0000000180002120 f   ImageBackend.obj
 0001:000011f0       ?getFormat@ImageBackend@@UEAA?AW4_cairo_format@@XZ 00000001800021f0 f   ImageBackend.obj
 0001:00001200       ?Initialize@ImageBackend@@SAXV?$Local@VObject@v8@@@v8@@@Z 0000000180002200 f   ImageBackend.obj
 0001:00001360       ?New@ImageBackend@@SAXAEBV?$FunctionCallbackInfo@VValue@v8@@@Nan@@@Z 0000000180002360 f   ImageBackend.obj
 0001:00001480       ??0PdfBackend@@QEAA@HH@Z   0000000180002480 f   PdfBackend.obj
 0001:00001530       ??_GPdfBackend@@UEAAPEAXI@Z 0000000180002530 f i PdfBackend.obj
 0001:00001530       ??_EPdfBackend@@UEAAPEAXI@Z 0000000180002530 f i * CIL library *:* CIL module *
 0001:00001570       ??1PdfBackend@@UEAA@XZ     0000000180002570 f   PdfBackend.obj
 0001:00001640       ?createSurface@PdfBackend@@EEAAPEAU_cairo_surface@@XZ 0000000180002640 f   PdfBackend.obj
 0001:000016d0       ?recreateSurface@PdfBackend@@EEAAPEAU_cairo_surface@@XZ 00000001800026d0 f   PdfBackend.obj
 0001:00001700       ?Initialize@PdfBackend@@SAXV?$Local@VObject@v8@@@v8@@@Z 0000000180002700 f   PdfBackend.obj
 0001:00001860       ?New@PdfBackend@@SAXAEBV?$FunctionCallbackInfo@VValue@v8@@@Nan@@@Z 0000000180002860 f   PdfBackend.obj
 0001:00001980       ??0SvgBackend@@QEAA@HH@Z   0000000180002980 f   SvgBackend.obj
 0001:00001a30       ??_GSvgBackend@@UEAAPEAXI@Z 0000000180002a30 f i SvgBackend.obj
 0001:00001a30       ??_ESvgBackend@@UEAAPEAXI@Z 0000000180002a30 f i * CIL library *:* CIL module *
 0001:00001a70       ??1SvgBackend@@UEAA@XZ     0000000180002a70 f   SvgBackend.obj
 0001:00001b40       ?createSurface@SvgBackend@@EEAAPEAU_cairo_surface@@XZ 0000000180002b40 f   SvgBackend.obj
 0001:00001bd0       ?recreateSurface@SvgBackend@@EEAAPEAU_cairo_surface@@XZ 0000000180002bd0 f   SvgBackend.obj
 0001:00001c50       ?Initialize@SvgBackend@@SAXV?$Local@VObject@v8@@@v8@@@Z 0000000180002c50 f   SvgBackend.obj
 0001:00001db0       ?New@SvgBackend@@SAXAEBV?$FunctionCallbackInfo@VValue@v8@@@Nan@@@Z 0000000180002db0 f   SvgBackend.obj
 0001:00001ed0       ?Initialize@Backends@@SAXV?$Local@VObject@v8@@@v8@@@Z 0000000180002ed0 f   Backends.obj
 0001:00002130       ?Set@Nan@@YA?AV?$Maybe@_N@v8@@V?$Local@VObject@v8@@@3@V?$Local@VValue@v8@@@3@1@Z 0000000180003130 f i Canvas.obj
 0001:000021c0       ?Call@Nan@@YA?AV?$MaybeLocal@VValue@v8@@@v8@@V?$Local@VFunction@v8@@@3@V?$Local@VObject@v8@@@3@HQEAV?$Local@VValue@v8@@@3@@Z 00000001800031c0 f i Canvas.obj
 0001:00002270       ?convert@?$ToFactory@VUint32@v8@@@imp@Nan@@SA?AV?$MaybeLocal@VUint32@v8@@@v8@@V?$Local@VValue@v8@@@5@@Z 0000000180003270 f i Canvas.obj
 0001:00002300       ?ThrowError@Nan@@YAXPEBD@Z 0000000180003300 f i Canvas.obj
 0001:000023a0       ?ThrowRangeError@Nan@@YAXPEBD@Z 00000001800033a0 f i Canvas.obj
 0001:00002440       ?ThrowTypeError@Nan@@YAXPEBD@Z 0000000180003440 f i Canvas.obj
 0001:000024e0       ?Call@Callback@Nan@@QEBA?AV?$Local@VValue@v8@@@v8@@HQEAV34@@Z 00000001800034e0 f i Canvas.obj
 0001:00002590       ?Call_@Callback@Nan@@AEBA?AV?$Local@VValue@v8@@@v8@@PEAVIsolate@4@V?$Local@VObject@v8@@@4@HQEAV34@@Z 0000000180003590 f i Canvas.obj
 0001:00002650       ?SetPrototypeMethod@Nan@@YAXV?$Local@VFunctionTemplate@v8@@@v8@@PEBDP6AXAEBV?$FunctionCallbackInfo@VValue@v8@@@1@@Z@Z 0000000180003650 f i Canvas.obj
 0001:00002760       ?SetAccessor@Nan@@YAXV?$Local@VObjectTemplate@v8@@@v8@@V?$Local@VString@v8@@@3@P6AX1AEBV?$PropertyCallbackInfo@VValue@v8@@@1@@ZP6AX1V?$Local@VValue@v8@@@3@AEBV?$PropertyCallbackInfo@X@1@@Z4W4AccessControl@3@W4PropertyAttribute@3@V?$Local@VAccessorSignature@v8@@@3@@Z 0000000180003760 f i Canvas.obj
 0001:000028d0       _guard_check_icall_nop     00000001800038d0 f   LIBCMT:guard_support.obj
 0001:000028d0       __except_validate_jump_buffer 00000001800038d0 f   libvcruntime:jbcxrval.obj
 0001:000028d0       ?stream_pdf_free@@YAXPEADPEAX@Z 00000001800038d0 f   Canvas.obj
 0001:000028d0       __except_validate_context_record 00000001800038d0 f   libvcruntime:jbcxrval.obj
 0001:00002a80       ?setjmp_wrapper@@YA_NPEAUpng_struct_def@@@Z 0000000180003a80 f   Canvas.obj
 0001:00002f40       ?Initialize@Canvas@@SAXV?$Local@VObject@v8@@@v8@@@Z 0000000180003f40 f   Canvas.obj
 0001:00003660       ?New@Canvas@@SAXAEBV?$FunctionCallbackInfo@VValue@v8@@@Nan@@@Z 0000000180004660 f   Canvas.obj
 0001:000039e0       ?GetType@Canvas@@SAXV?$Local@VString@v8@@@v8@@AEBV?$PropertyCallbackInfo@VValue@v8@@@Nan@@@Z 00000001800049e0 f   Canvas.obj
 0001:00003a60       ?GetStride@Canvas@@SAXV?$Local@VString@v8@@@v8@@AEBV?$PropertyCallbackInfo@VValue@v8@@@Nan@@@Z 0000000180004a60 f   Canvas.obj
 0001:00003b00       ?GetWidth@Canvas@@SAXV?$Local@VString@v8@@@v8@@AEBV?$PropertyCallbackInfo@VValue@v8@@@Nan@@@Z 0000000180004b00 f   Canvas.obj
 0001:00003b80       ?SetWidth@Canvas@@SAXV?$Local@VString@v8@@@v8@@V?$Local@VValue@v8@@@3@AEBV?$PropertyCallbackInfo@X@Nan@@@Z 0000000180004b80 f   Canvas.obj
 0001:00003c10       ?GetHeight@Canvas@@SAXV?$Local@VString@v8@@@v8@@AEBV?$PropertyCallbackInfo@VValue@v8@@@Nan@@@Z 0000000180004c10 f   Canvas.obj
 0001:00003c90       ?SetHeight@Canvas@@SAXV?$Local@VString@v8@@@v8@@V?$Local@VValue@v8@@@3@AEBV?$PropertyCallbackInfo@X@Nan@@@Z 0000000180004c90 f   Canvas.obj
 0001:00003d20       ?ToBufferAsync@Canvas@@SAXPEAUuv_work_s@@@Z 0000000180004d20 f   Canvas.obj
 0001:00003da0       ?ToBufferAsyncAfter@Canvas@@SAXPEAUuv_work_s@@@Z 0000000180004da0 f   Canvas.obj
 0001:00003f80       ?ToBuffer@Canvas@@SAXAEBV?$FunctionCallbackInfo@VValue@v8@@@Nan@@@Z 0000000180004f80 f   Canvas.obj
 0001:000049e0       ??1TryCatch@Nan@@QEAA@XZ   00000001800059e0 f i Canvas.obj
 0001:00004b60       ?StreamPNGSync@Canvas@@SAXAEBV?$FunctionCallbackInfo@VValue@v8@@@Nan@@@Z 0000000180005b60 f   Canvas.obj
 0001:000053e0       ?StreamPDFSync@Canvas@@SAXAEBV?$FunctionCallbackInfo@VValue@v8@@@Nan@@@Z 00000001800063e0 f   Canvas.obj
 0001:000056e0       ?RegisterFont@Canvas@@SAXAEBV?$FunctionCallbackInfo@VValue@v8@@@Nan@@@Z 00000001800066e0 f   Canvas.obj
 0001:00005bb0       ??_GCanvas@@EEAAPEAXI@Z    0000000180006bb0 f i Canvas.obj
 0001:00005bb0       ??_ECanvas@@EEAAPEAXI@Z    0000000180006bb0 f i * CIL library *:* CIL module *
 0001:00005c10       ?_init_font_face_list@@YA?AV?$vector@VFontFace@@V?$allocator@VFontFace@@@std@@@std@@XZ 0000000180006c10 f   Canvas.obj
 0001:00005c30       ?GetStyleFromCSSString@Canvas@@SA?AW4PangoStyle@@PEBD@Z 0000000180006c30 f   Canvas.obj
 0001:00005cc0       ?GetWeightFromCSSString@Canvas@@SA?AW4PangoWeight@@PEBD@Z 0000000180006cc0 f   Canvas.obj
 0001:00005ed0       ?ResolveFontDescription@Canvas@@SAPEAU_PangoFontDescription@@PEBU2@@Z 0000000180006ed0 f   Canvas.obj
 0001:00006100       ?resurface@Canvas@@QEAAXV?$Local@VObject@v8@@@v8@@@Z 0000000180007100 f   Canvas.obj
 0001:00006210       ??0?$TypedArrayContents@E@Nan@@QEAA@V?$Local@VValue@v8@@@v8@@@Z 0000000180007210 f i Canvas.obj
 0001:000062d0       ?_Tidy@?$vector@VFontFace@@V?$allocator@VFontFace@@@std@@@std@@IEAAXXZ 00000001800072d0 f i Canvas.obj
 0001:00006370       ?_Reserve@?$vector@VFontFace@@V?$allocator@VFontFace@@@std@@@std@@IEAAX_K@Z 0000000180007370 f i Canvas.obj
 0001:00006400       ?_Reallocate@?$vector@VFontFace@@V?$allocator@VFontFace@@@std@@@std@@IEAAX_K@Z 0000000180007400 f i Canvas.obj
 0001:00006560       ??$New@VString@v8@@V?$basic_string@DU?$char_traits@D@std@@V?$allocator@D@2@@std@@@Nan@@YA?AV?$MaybeLocal@VString@v8@@@v8@@V?$basic_string@DU?$char_traits@D@std@@V?$allocator@D@2@@std@@@Z 0000000180007560 f i Canvas.obj
 0001:00006610       ??$SetMethod@VFunctionTemplate@v8@@VLocal@2@@Nan@@YAXV?$Local@VFunctionTemplate@v8@@@v8@@PEBDP6AXAEBV?$FunctionCallbackInfo@VValue@v8@@@0@@Z@Z 0000000180007610 f i Canvas.obj
 0001:000066d0       ??$Unwrap@VBackend@@@ObjectWrap@Nan@@SAPEAVBackend@@V?$Local@VObject@v8@@@v8@@@Z 00000001800076d0 f i Canvas.obj
 0001:000066d0       ??$Unwrap@VContext2d@@@ObjectWrap@Nan@@SAPEAVContext2d@@V?$Local@VObject@v8@@@v8@@@Z 00000001800076d0 f i Canvas.obj
 0001:000066d0       ??$Unwrap@VGradient@@@ObjectWrap@Nan@@SAPEAVGradient@@V?$Local@VObject@v8@@@v8@@@Z 00000001800076d0 f i CanvasGradient.obj
 0001:000066d0       ??$Unwrap@VPattern@@@ObjectWrap@Nan@@SAPEAVPattern@@V?$Local@VObject@v8@@@v8@@@Z 00000001800076d0 f i CanvasRenderingContext2d.obj
 0001:000066d0       ??$Unwrap@VCanvas@@@ObjectWrap@Nan@@SAPEAVCanvas@@V?$Local@VObject@v8@@@v8@@@Z 00000001800076d0 f i Canvas.obj
 0001:000066d0       ??$Unwrap@VImage@@@ObjectWrap@Nan@@SAPEAVImage@@V?$Local@VObject@v8@@@v8@@@Z 00000001800076d0 f i CanvasPattern.obj
 0001:000066d0       ??$Unwrap@VImageData@@@ObjectWrap@Nan@@SAPEAVImageData@@V?$Local@VObject@v8@@@v8@@@Z 00000001800076d0 f i CanvasRenderingContext2d.obj
 0001:00006750       ?Initialize@Gradient@@SAXV?$Local@VObject@v8@@@v8@@@Z 0000000180007750 f   CanvasGradient.obj
 0001:000068e0       ?New@Gradient@@SAXAEBV?$FunctionCallbackInfo@VValue@v8@@@Nan@@@Z 00000001800078e0 f   CanvasGradient.obj
 0001:00006c00       ?AddColorStop@Gradient@@SAXAEBV?$FunctionCallbackInfo@VValue@v8@@@Nan@@@Z 0000000180007c00 f   CanvasGradient.obj
 0001:00006e00       ??_EPattern@@EEAAPEAXI@Z   0000000180007e00 f i * CIL library *:* CIL module *
 0001:00006e00       ??_GPattern@@EEAAPEAXI@Z   0000000180007e00 f i CanvasPattern.obj
 0001:00006e00       ??_GGradient@@EEAAPEAXI@Z  0000000180007e00 f i CanvasGradient.obj
 0001:00006e00       ??_EGradient@@EEAAPEAXI@Z  0000000180007e00 f i * CIL library *:* CIL module *
 0001:00006e50       ?Initialize@Pattern@@SAXV?$Local@VObject@v8@@@v8@@@Z 0000000180007e50 f   CanvasPattern.obj
 0001:00007000       ?New@Pattern@@SAXAEBV?$FunctionCallbackInfo@VValue@v8@@@Nan@@@Z 0000000180008000 f   CanvasPattern.obj
 0001:000071f0       ?NewInstance@Nan@@YA?AV?$MaybeLocal@VObject@v8@@@v8@@V?$Local@VFunction@v8@@@3@HQEAV?$Local@VValue@v8@@@3@@Z 00000001800081f0 f i CanvasRenderingContext2d.obj
 0001:000072a0       ?GetFunction@Nan@@YA?AV?$MaybeLocal@VFunction@v8@@@v8@@V?$Local@VFunctionTemplate@v8@@@3@@Z 00000001800082a0 f i CanvasRenderingContext2d.obj
 0001:00007320       ?convert@?$ToFactory@VInt32@v8@@@imp@Nan@@SA?AV?$MaybeLocal@VInt32@v8@@@v8@@V?$Local@VValue@v8@@@5@@Z 0000000180008320 f i CanvasRenderingContext2d.obj
 0001:000073b0       ?Initialize@Context2d@@SAXV?$Local@VObject@v8@@@v8@@@Z 00000001800083b0 f   CanvasRenderingContext2d.obj
 0001:00008170       ??0Context2d@@QEAA@PEAVCanvas@@@Z 0000000180009170 f   CanvasRenderingContext2d.obj
 0001:00008340       ??_GContext2d@@EEAAPEAXI@Z 0000000180009340 f i CanvasRenderingContext2d.obj
 0001:00008340       ??_EContext2d@@EEAAPEAXI@Z 0000000180009340 f i * CIL library *:* CIL module *
 0001:00008380       ??1Context2d@@EEAA@XZ      0000000180009380 f   CanvasRenderingContext2d.obj
 0001:00008400       ?save@Context2d@@QEAAXXZ   0000000180009400 f   CanvasRenderingContext2d.obj
 0001:00008510       ?restore@Context2d@@QEAAXXZ 0000000180009510 f   CanvasRenderingContext2d.obj
 0001:000085a0       ?savePath@Context2d@@QEAAXXZ 00000001800095a0 f   CanvasRenderingContext2d.obj
 0001:000085d0       ?restorePath@Context2d@@QEAAXXZ 00000001800095d0 f   CanvasRenderingContext2d.obj
 0001:00008610       ?setFillRule@Context2d@@QEAAXV?$Local@VValue@v8@@@v8@@@Z 0000000180009610 f i CanvasRenderingContext2d.obj
 0001:000086c0       ?fill@Context2d@@QEAAX_N@Z 00000001800096c0 f   CanvasRenderingContext2d.obj
 0001:00008850       ?stroke@Context2d@@QEAAX_N@Z 0000000180009850 f   CanvasRenderingContext2d.obj
 0001:000089e0       ?shadow@Context2d@@QEAAXP6AXPEAU_cairo@@@Z@Z 00000001800099e0 f   CanvasRenderingContext2d.obj
 0001:00008da0       ?blur@Context2d@@QEAAXPEAU_cairo_surface@@H@Z 0000000180009da0 f   CanvasRenderingContext2d.obj
 0001:00009370       ?New@Context2d@@SAXAEBV?$FunctionCallbackInfo@VValue@v8@@@Nan@@@Z 000000018000a370 f   CanvasRenderingContext2d.obj
 0001:000097a0       ?GetFormat@Context2d@@SAXV?$Local@VString@v8@@@v8@@AEBV?$PropertyCallbackInfo@VValue@v8@@@Nan@@@Z 000000018000a7a0 f   CanvasRenderingContext2d.obj
 0001:000099d0       ?AddPage@Context2d@@SAXAEBV?$FunctionCallbackInfo@VValue@v8@@@Nan@@@Z 000000018000a9d0 f   CanvasRenderingContext2d.obj
 0001:00009b00       ?PutImageData@Context2d@@SAXAEBV?$FunctionCallbackInfo@VValue@v8@@@Nan@@@Z 000000018000ab00 f   CanvasRenderingContext2d.obj
 0001:0000a4c0       ?GetImageData@Context2d@@SAXAEBV?$FunctionCallbackInfo@VValue@v8@@@Nan@@@Z 000000018000b4c0 f   CanvasRenderingContext2d.obj
 0001:0000adb0       ?DrawImage@Context2d@@SAXAEBV?$FunctionCallbackInfo@VValue@v8@@@Nan@@@Z 000000018000bdb0 f   CanvasRenderingContext2d.obj
 0001:0000b5f0       ?GetGlobalAlpha@Context2d@@SAXV?$Local@VString@v8@@@v8@@AEBV?$PropertyCallbackInfo@VValue@v8@@@Nan@@@Z 000000018000c5f0 f   CanvasRenderingContext2d.obj
 0001:0000b670       ?SetGlobalAlpha@Context2d@@SAXV?$Local@VString@v8@@@v8@@V?$Local@VValue@v8@@@3@AEBV?$PropertyCallbackInfo@X@Nan@@@Z 000000018000c670 f   CanvasRenderingContext2d.obj
 0001:0000b6d0       ?GetGlobalCompositeOperation@Context2d@@SAXV?$Local@VString@v8@@@v8@@AEBV?$PropertyCallbackInfo@VValue@v8@@@Nan@@@Z 000000018000c6d0 f   CanvasRenderingContext2d.obj
 0001:0000b930       ?SetPatternQuality@Context2d@@SAXV?$Local@VString@v8@@@v8@@V?$Local@VValue@v8@@@3@AEBV?$PropertyCallbackInfo@X@Nan@@@Z 000000018000c930 f   CanvasRenderingContext2d.obj
 0001:0000bab0       ?GetPatternQuality@Context2d@@SAXV?$Local@VString@v8@@@v8@@AEBV?$PropertyCallbackInfo@VValue@v8@@@Nan@@@Z 000000018000cab0 f   CanvasRenderingContext2d.obj
 0001:0000bb80       ?SetGlobalCompositeOperation@Context2d@@SAXV?$Local@VString@v8@@@v8@@V?$Local@VValue@v8@@@3@AEBV?$PropertyCallbackInfo@X@Nan@@@Z 000000018000cb80 f   CanvasRenderingContext2d.obj
 0001:0000bfc0       ?GetShadowOffsetX@Context2d@@SAXV?$Local@VString@v8@@@v8@@AEBV?$PropertyCallbackInfo@VValue@v8@@@Nan@@@Z 000000018000cfc0 f   CanvasRenderingContext2d.obj
 0001:0000c040       ?SetShadowOffsetX@Context2d@@SAXV?$Local@VString@v8@@@v8@@V?$Local@VValue@v8@@@3@AEBV?$PropertyCallbackInfo@X@Nan@@@Z 000000018000d040 f   CanvasRenderingContext2d.obj
 0001:0000c080       ?GetShadowOffsetY@Context2d@@SAXV?$Local@VString@v8@@@v8@@AEBV?$PropertyCallbackInfo@VValue@v8@@@Nan@@@Z 000000018000d080 f   CanvasRenderingContext2d.obj
 0001:0000c100       ?SetShadowOffsetY@Context2d@@SAXV?$Local@VString@v8@@@v8@@V?$Local@VValue@v8@@@3@AEBV?$PropertyCallbackInfo@X@Nan@@@Z 000000018000d100 f   CanvasRenderingContext2d.obj
 0001:0000c140       ?GetShadowBlur@Context2d@@SAXV?$Local@VString@v8@@@v8@@AEBV?$PropertyCallbackInfo@VValue@v8@@@Nan@@@Z 000000018000d140 f   CanvasRenderingContext2d.obj
 0001:0000c1c0       ?SetShadowBlur@Context2d@@SAXV?$Local@VString@v8@@@v8@@V?$Local@VValue@v8@@@3@AEBV?$PropertyCallbackInfo@X@Nan@@@Z 000000018000d1c0 f   CanvasRenderingContext2d.obj
 0001:0000c210       ?GetAntiAlias@Context2d@@SAXV?$Local@VString@v8@@@v8@@AEBV?$PropertyCallbackInfo@VValue@v8@@@Nan@@@Z 000000018000d210 f   CanvasRenderingContext2d.obj
 0001:0000c2e0       ?SetAntiAlias@Context2d@@SAXV?$Local@VString@v8@@@v8@@V?$Local@VValue@v8@@@3@AEBV?$PropertyCallbackInfo@X@Nan@@@Z 000000018000d2e0 f   CanvasRenderingContext2d.obj
 0001:0000c3f0       ?GetTextDrawingMode@Context2d@@SAXV?$Local@VString@v8@@@v8@@AEBV?$PropertyCallbackInfo@VValue@v8@@@Nan@@@Z 000000018000d3f0 f   CanvasRenderingContext2d.obj
 0001:0000c4b0       ?SetTextDrawingMode@Context2d@@SAXV?$Local@VString@v8@@@v8@@V?$Local@VValue@v8@@@3@AEBV?$PropertyCallbackInfo@X@Nan@@@Z 000000018000d4b0 f   CanvasRenderingContext2d.obj
 0001:0000c580       ?GetFilter@Context2d@@SAXV?$Local@VString@v8@@@v8@@AEBV?$PropertyCallbackInfo@VValue@v8@@@Nan@@@Z 000000018000d580 f   CanvasRenderingContext2d.obj
 0001:0000c660       ?SetFilter@Context2d@@SAXV?$Local@VString@v8@@@v8@@V?$Local@VValue@v8@@@3@AEBV?$PropertyCallbackInfo@X@Nan@@@Z 000000018000d660 f   CanvasRenderingContext2d.obj
 0001:0000c770       ?GetMiterLimit@Context2d@@SAXV?$Local@VString@v8@@@v8@@AEBV?$PropertyCallbackInfo@VValue@v8@@@Nan@@@Z 000000018000d770 f   CanvasRenderingContext2d.obj
 0001:0000c7f0       ?SetMiterLimit@Context2d@@SAXV?$Local@VString@v8@@@v8@@V?$Local@VValue@v8@@@3@AEBV?$PropertyCallbackInfo@X@Nan@@@Z 000000018000d7f0 f   CanvasRenderingContext2d.obj
 0001:0000c840       ?GetLineWidth@Context2d@@SAXV?$Local@VString@v8@@@v8@@AEBV?$PropertyCallbackInfo@VValue@v8@@@Nan@@@Z 000000018000d840 f   CanvasRenderingContext2d.obj
 0001:0000c8c0       ?SetLineWidth@Context2d@@SAXV?$Local@VString@v8@@@v8@@V?$Local@VValue@v8@@@3@AEBV?$PropertyCallbackInfo@X@Nan@@@Z 000000018000d8c0 f   CanvasRenderingContext2d.obj
 0001:0000c920       ?GetLineJoin@Context2d@@SAXV?$Local@VString@v8@@@v8@@AEBV?$PropertyCallbackInfo@VValue@v8@@@Nan@@@Z 000000018000d920 f   CanvasRenderingContext2d.obj
 0001:0000c9e0       ?SetLineJoin@Context2d@@SAXV?$Local@VString@v8@@@v8@@V?$Local@VValue@v8@@@3@AEBV?$PropertyCallbackInfo@X@Nan@@@Z 000000018000d9e0 f   CanvasRenderingContext2d.obj
 0001:0000ca90       ?GetLineCap@Context2d@@SAXV?$Local@VString@v8@@@v8@@AEBV?$PropertyCallbackInfo@VValue@v8@@@Nan@@@Z 000000018000da90 f   CanvasRenderingContext2d.obj
 0001:0000cb50       ?SetLineCap@Context2d@@SAXV?$Local@VString@v8@@@v8@@V?$Local@VValue@v8@@@3@AEBV?$PropertyCallbackInfo@X@Nan@@@Z 000000018000db50 f   CanvasRenderingContext2d.obj
 0001:0000cc00       ?IsPointInPath@Context2d@@SAXAEBV?$FunctionCallbackInfo@VValue@v8@@@Nan@@@Z 000000018000dc00 f   CanvasRenderingContext2d.obj
 0001:0000cdb0       ?SetFillPattern@Context2d@@SAXAEBV?$FunctionCallbackInfo@VValue@v8@@@Nan@@@Z 000000018000ddb0 f   CanvasRenderingContext2d.obj
 0001:0000cef0       ?SetStrokePattern@Context2d@@SAXAEBV?$FunctionCallbackInfo@VValue@v8@@@Nan@@@Z 000000018000def0 f   CanvasRenderingContext2d.obj
 0001:0000d030       ?SetShadowColor@Context2d@@SAXV?$Local@VString@v8@@@v8@@V?$Local@VValue@v8@@@3@AEBV?$PropertyCallbackInfo@X@Nan@@@Z 000000018000e030 f   CanvasRenderingContext2d.obj
 0001:0000d130       ?GetShadowColor@Context2d@@SAXV?$Local@VString@v8@@@v8@@AEBV?$PropertyCallbackInfo@VValue@v8@@@Nan@@@Z 000000018000e130 f   CanvasRenderingContext2d.obj
 0001:0000d2b0       ?SetFillColor@Context2d@@SAXAEBV?$FunctionCallbackInfo@VValue@v8@@@Nan@@@Z 000000018000e2b0 f   CanvasRenderingContext2d.obj
 0001:0000d400       ?GetFillColor@Context2d@@SAXV?$Local@VString@v8@@@v8@@AEBV?$PropertyCallbackInfo@VValue@v8@@@Nan@@@Z 000000018000e400 f   CanvasRenderingContext2d.obj
 0001:0000d580       ?SetStrokeColor@Context2d@@SAXAEBV?$FunctionCallbackInfo@VValue@v8@@@Nan@@@Z 000000018000e580 f   CanvasRenderingContext2d.obj
 0001:0000d6d0       ?GetStrokeColor@Context2d@@SAXV?$Local@VString@v8@@@v8@@AEBV?$PropertyCallbackInfo@VValue@v8@@@Nan@@@Z 000000018000e6d0 f   CanvasRenderingContext2d.obj
 0001:0000d850       ?BezierCurveTo@Context2d@@SAXAEBV?$FunctionCallbackInfo@VValue@v8@@@Nan@@@Z 000000018000e850 f   CanvasRenderingContext2d.obj
 0001:0000db30       ?QuadraticCurveTo@Context2d@@SAXAEBV?$FunctionCallbackInfo@VValue@v8@@@Nan@@@Z 000000018000eb30 f   CanvasRenderingContext2d.obj
 0001:0000ddb0       ?Save@Context2d@@SAXAEBV?$FunctionCallbackInfo@VValue@v8@@@Nan@@@Z 000000018000edb0 f   CanvasRenderingContext2d.obj
 0001:0000ddd0       ?Restore@Context2d@@SAXAEBV?$FunctionCallbackInfo@VValue@v8@@@Nan@@@Z 000000018000edd0 f   CanvasRenderingContext2d.obj
 0001:0000ddf0       ?BeginPath@Context2d@@SAXAEBV?$FunctionCallbackInfo@VValue@v8@@@Nan@@@Z 000000018000edf0 f   CanvasRenderingContext2d.obj
 0001:0000de20       ?ClosePath@Context2d@@SAXAEBV?$FunctionCallbackInfo@VValue@v8@@@Nan@@@Z 000000018000ee20 f   CanvasRenderingContext2d.obj
 0001:0000de50       ?Rotate@Context2d@@SAXAEBV?$FunctionCallbackInfo@VValue@v8@@@Nan@@@Z 000000018000ee50 f   CanvasRenderingContext2d.obj
 0001:0000dee0       ?Transform@Context2d@@SAXAEBV?$FunctionCallbackInfo@VValue@v8@@@Nan@@@Z 000000018000eee0 f   CanvasRenderingContext2d.obj
 0001:0000e1d0       ?ResetTransform@Context2d@@SAXAEBV?$FunctionCallbackInfo@VValue@v8@@@Nan@@@Z 000000018000f1d0 f   CanvasRenderingContext2d.obj
 0001:0000e200       ?GetMatrix@Context2d@@SAXAEBV?$FunctionCallbackInfo@VValue@v8@@@Nan@@@Z 000000018000f200 f   CanvasRenderingContext2d.obj
 0001:0000e2d0       ?Translate@Context2d@@SAXAEBV?$FunctionCallbackInfo@VValue@v8@@@Nan@@@Z 000000018000f2d0 f   CanvasRenderingContext2d.obj
 0001:0000e3d0       ?Scale@Context2d@@SAXAEBV?$FunctionCallbackInfo@VValue@v8@@@Nan@@@Z 000000018000f3d0 f   CanvasRenderingContext2d.obj
 0001:0000e4d0       ?Clip@Context2d@@SAXAEBV?$FunctionCallbackInfo@VValue@v8@@@Nan@@@Z 000000018000f4d0 f   CanvasRenderingContext2d.obj
 0001:0000e530       ?Fill@Context2d@@SAXAEBV?$FunctionCallbackInfo@VValue@v8@@@Nan@@@Z 000000018000f530 f   CanvasRenderingContext2d.obj
 0001:0000e590       ?Stroke@Context2d@@SAXAEBV?$FunctionCallbackInfo@VValue@v8@@@Nan@@@Z 000000018000f590 f   CanvasRenderingContext2d.obj
 0001:0000e5c0       ?get_text_scale@@YANPEAVContext2d@@PEADN@Z 000000018000f5c0 f   CanvasRenderingContext2d.obj
 0001:0000e630       ?FillText@Context2d@@SAXAEBV?$FunctionCallbackInfo@VValue@v8@@@Nan@@@Z 000000018000f630 f   CanvasRenderingContext2d.obj
 0001:0000e8c0       ?StrokeText@Context2d@@SAXAEBV?$FunctionCallbackInfo@VValue@v8@@@Nan@@@Z 000000018000f8c0 f   CanvasRenderingContext2d.obj
 0001:0000eb50       ?getBaselineAdjustment@@YANPEAU_PangoLayout@@F@Z 000000018000fb50 f i CanvasRenderingContext2d.obj
 0001:0000ec00       ?setTextPath@Context2d@@QEAAXPEBDNN@Z 000000018000fc00 f   CanvasRenderingContext2d.obj
 0001:0000ed40       ?LineTo@Context2d@@SAXAEBV?$FunctionCallbackInfo@VValue@v8@@@Nan@@@Z 000000018000fd40 f   CanvasRenderingContext2d.obj
 0001:0000ee40       ?MoveTo@Context2d@@SAXAEBV?$FunctionCallbackInfo@VValue@v8@@@Nan@@@Z 000000018000fe40 f   CanvasRenderingContext2d.obj
 0001:0000ef40       ?SetFont@Context2d@@SAXAEBV?$FunctionCallbackInfo@VValue@v8@@@Nan@@@Z 000000018000ff40 f   CanvasRenderingContext2d.obj
 0001:0000f280       ?MeasureText@Context2d@@SAXAEBV?$FunctionCallbackInfo@VValue@v8@@@Nan@@@Z 0000000180010280 f   CanvasRenderingContext2d.obj
 0001:0000f8d0       ?SetTextBaseline@Context2d@@SAXAEBV?$FunctionCallbackInfo@VValue@v8@@@Nan@@@Z 00000001800108d0 f   CanvasRenderingContext2d.obj
 0001:0000f950       ?SetTextAlignment@Context2d@@SAXAEBV?$FunctionCallbackInfo@VValue@v8@@@Nan@@@Z 0000000180010950 f   CanvasRenderingContext2d.obj
 0001:0000f9d0       ?SetLineDash@Context2d@@SAXAEBV?$FunctionCallbackInfo@VValue@v8@@@Nan@@@Z 00000001800109d0 f   CanvasRenderingContext2d.obj
 0001:0000fcb0       ?GetLineDash@Context2d@@SAXAEBV?$FunctionCallbackInfo@VValue@v8@@@Nan@@@Z 0000000180010cb0 f   CanvasRenderingContext2d.obj
 0001:0000ff00       ?SetLineDashOffset@Context2d@@SAXV?$Local@VString@v8@@@v8@@V?$Local@VValue@v8@@@3@AEBV?$PropertyCallbackInfo@X@Nan@@@Z 0000000180010f00 f   CanvasRenderingContext2d.obj
 0001:000100a0       ?GetLineDashOffset@Context2d@@SAXV?$Local@VString@v8@@@v8@@AEBV?$PropertyCallbackInfo@VValue@v8@@@Nan@@@Z 00000001800110a0 f   CanvasRenderingContext2d.obj
 0001:00010130       ?FillRect@Context2d@@SAXAEBV?$FunctionCallbackInfo@VValue@v8@@@Nan@@@Z 0000000180011130 f   CanvasRenderingContext2d.obj
 0001:00010330       ?StrokeRect@Context2d@@SAXAEBV?$FunctionCallbackInfo@VValue@v8@@@Nan@@@Z 0000000180011330 f   CanvasRenderingContext2d.obj
 0001:00010530       ?ClearRect@Context2d@@SAXAEBV?$FunctionCallbackInfo@VValue@v8@@@Nan@@@Z 0000000180011530 f   CanvasRenderingContext2d.obj
 0001:00010750       ?Rect@Context2d@@SAXAEBV?$FunctionCallbackInfo@VValue@v8@@@Nan@@@Z 0000000180011750 f   CanvasRenderingContext2d.obj
 0001:00010970       ?Arc@Context2d@@SAXAEBV?$FunctionCallbackInfo@VValue@v8@@@Nan@@@Z 0000000180011970 f   CanvasRenderingContext2d.obj
 0001:00010d20       ?ArcTo@Context2d@@SAXAEBV?$FunctionCallbackInfo@VValue@v8@@@Nan@@@Z 0000000180011d20 f   CanvasRenderingContext2d.obj
 0001:000113d0       ?Ellipse@Context2d@@SAXAEBV?$FunctionCallbackInfo@VValue@v8@@@Nan@@@Z 00000001800123d0 f   CanvasRenderingContext2d.obj
 0001:00011820       ??1?$vector@NV?$allocator@N@std@@@std@@QEAA@XZ 0000000180012820 f i CanvasRenderingContext2d.obj
 0001:00011830       ??0?$TypedArrayContents@N@Nan@@QEAA@V?$Local@VValue@v8@@@v8@@@Z 0000000180012830 f i CanvasRenderingContext2d.obj
 0001:00011910       ?_Tidy@?$vector@NV?$allocator@N@std@@@std@@IEAAXXZ 0000000180012910 f i CanvasRenderingContext2d.obj
 0001:000119b0       ?closure_init@@YA?AW4_cairo_status@@PEAUclosure_t@@PEAVCanvas@@II@Z 00000001800129b0 f   closure.obj
 0001:00011a20       ?closure_destroy@@YAXPEAUclosure_t@@@Z 0000000180012a20 f   closure.obj
 0001:00011a80       __local_stdio_printf_options 0000000180012a80 f i color.obj
 0001:00011a90       snprintf                   0000000180012a90 f i color.obj
 0001:00012990       ?rgba_from_string@@YAHPEBDPEAF@Z 0000000180013990 f   color.obj
 0001:00012c60       ?Initialize@Image@@SAXV?$Local@VObject@v8@@@v8@@@Z 0000000180013c60 f   Image.obj
 0001:000131e0       ?New@Image@@SAXAEBV?$FunctionCallbackInfo@VValue@v8@@@Nan@@@Z 00000001800141e0 f   Image.obj
 0001:00013370       ?GetComplete@Image@@SAXV?$Local@VString@v8@@@v8@@AEBV?$PropertyCallbackInfo@VValue@v8@@@Nan@@@Z 0000000180014370 f   Image.obj
 0001:000133e0       ?GetDataMode@Image@@SAXV?$Local@VString@v8@@@v8@@AEBV?$PropertyCallbackInfo@VValue@v8@@@Nan@@@Z 00000001800143e0 f   Image.obj
 0001:00013460       ?SetDataMode@Image@@SAXV?$Local@VString@v8@@@v8@@V?$Local@VValue@v8@@@3@AEBV?$PropertyCallbackInfo@X@Nan@@@Z 0000000180014460 f   Image.obj
 0001:000134a0       ?GetNaturalWidth@Image@@SAXV?$Local@VString@v8@@@v8@@AEBV?$PropertyCallbackInfo@VValue@v8@@@Nan@@@Z 00000001800144a0 f   Image.obj
 0001:00013520       ?GetWidth@Image@@SAXV?$Local@VString@v8@@@v8@@AEBV?$PropertyCallbackInfo@VValue@v8@@@Nan@@@Z 0000000180014520 f   Image.obj
 0001:000135a0       ?GetNaturalHeight@Image@@SAXV?$Local@VString@v8@@@v8@@AEBV?$PropertyCallbackInfo@VValue@v8@@@Nan@@@Z 00000001800145a0 f   Image.obj
 0001:00013620       ?GetHeight@Image@@SAXV?$Local@VString@v8@@@v8@@AEBV?$PropertyCallbackInfo@VValue@v8@@@Nan@@@Z 0000000180014620 f   Image.obj
 0001:000136a0       ?GetSource@Image@@SAXV?$Local@VString@v8@@@v8@@AEBV?$PropertyCallbackInfo@VValue@v8@@@Nan@@@Z 00000001800146a0 f   Image.obj
 0001:00013740       ?clearData@Image@@QEAAXXZ  0000000180014740 f   Image.obj
 0001:000137d0       ?SetSource@Image@@SAXV?$Local@VString@v8@@@v8@@V?$Local@VValue@v8@@@3@AEBV?$PropertyCallbackInfo@X@Nan@@@Z 00000001800147d0 f   Image.obj
 0001:00013a70       ?loadFromBuffer@Image@@QEAA?AW4_cairo_status@@PEAEI@Z 0000000180014a70 f   Image.obj
 0001:00013b00       ?readPNG@Image@@SA?AW4_cairo_status@@PEAXPEAEI@Z 0000000180014b00 f   Image.obj
 0001:00013b40       ??_GImage@@EEAAPEAXI@Z     0000000180014b40 f i Image.obj
 0001:00013b40       ??_EImage@@EEAAPEAXI@Z     0000000180014b40 f i * CIL library *:* CIL module *
 0001:00013ba0       ?loaded@Image@@QEAAXXZ     0000000180014ba0 f   Image.obj
 0001:00013c40       ?loadSurface@Image@@QEAA?AW4_cairo_status@@XZ 0000000180014c40 f   Image.obj
 0001:00013d00       ??_EImageData@@UEAAPEAXI@Z 0000000180014d00 f i * CIL library *:* CIL module *
 0001:00013d00       ??_GImageData@@UEAAPEAXI@Z 0000000180014d00 f i ImageData.obj
 0001:00013d40       ?Initialize@ImageData@@SAXV?$Local@VObject@v8@@@v8@@@Z 0000000180014d40 f   ImageData.obj
 0001:00013fa0       ?New@ImageData@@SAXAEBV?$FunctionCallbackInfo@VValue@v8@@@Nan@@@Z 0000000180014fa0 f   ImageData.obj
 0001:00014410       ?GetWidth@ImageData@@SAXV?$Local@VString@v8@@@v8@@AEBV?$PropertyCallbackInfo@VValue@v8@@@Nan@@@Z 0000000180015410 f   ImageData.obj
 0001:00014490       ?GetHeight@ImageData@@SAXV?$Local@VString@v8@@@v8@@AEBV?$PropertyCallbackInfo@VValue@v8@@@Nan@@@Z 0000000180015490 f   ImageData.obj
 0001:00014510       ?init@@YAXV?$Local@VObject@v8@@@v8@@@Z 0000000180015510 f   init.obj
 0001:000146d0       ?to_utf8@@YAPEADPEAEIGG@Z  00000001800156d0 f   register_font.obj
 0001:000147f0       ?_name_def_compare@@YAHPEBX0@Z 00000001800157f0 f   register_font.obj
 0001:00014810       ?_free_g_list_item@@YAXPEAX0@Z 0000000180015810 f   register_font.obj
 0001:00014820       ?get_family_name@@YAPEADPEAUFT_FaceRec_@@@Z 0000000180015820 f   register_font.obj
 0001:00014960       ?get_pango_weight@@YA?AW4PangoWeight@@G@Z 0000000180015960 f   register_font.obj
 0001:000149e0       ?get_pango_stretch@@YA?AW4PangoStretch@@G@Z 00000001800159e0 f   register_font.obj
 0001:00014a60       ?get_pango_font_description@@YAPEAU_PangoFontDescription@@PEAE@Z 0000000180015a60 f   register_font.obj
 0001:00014b50       ?toBuffer@@YA?AW4_cairo_status@@PEAXPEBEI@Z 0000000180015b50 f   toBuffer.obj
 0001:00014c1c       __imp_load_?ClearWeak@V8@v8@@CAPEAXPEAPEAVObject@internal@2@@Z 0000000180015c1c f   node:node.exe
 0001:00014c28       __tailMerge_node_exe       0000000180015c28 f i node:node.exe
 0001:00014ca1       __imp_load_?MakeWeak@V8@v8@@CAXPEAPEAVObject@internal@2@PEAXP6AXAEBV?$WeakCallbackInfo@X@2@@ZW4WeakCallbackType@2@@Z 0000000180015ca1 f   node:node.exe
 0001:00014cad       __imp_load_?DisposeGlobal@V8@v8@@CAXPEAPEAVObject@internal@2@@Z 0000000180015cad f   node:node.exe
 0001:00014cb9       __imp_load_?Value@External@v8@@QEBAPEAXXZ 0000000180015cb9 f   node:node.exe
 0001:00014cc5       __imp_load_?New@External@v8@@SA?AV?$Local@VExternal@v8@@@2@PEAVIsolate@2@PEAX@Z 0000000180015cc5 f   node:node.exe
 0001:00014cd1       __imp_load_?ReportExternalAllocationLimitReached@Isolate@v8@@AEAAXXZ 0000000180015cd1 f   node:node.exe
 0001:00014cdd       __imp_load_?GetCurrentContext@Isolate@v8@@QEAA?AV?$Local@VContext@v8@@@2@XZ 0000000180015cdd f   node:node.exe
 0001:00014ce9       __imp_load_?GetCurrent@Isolate@v8@@SAPEAV12@XZ 0000000180015ce9 f   node:node.exe
 0001:00014cf5       __imp_load_?CreateHandle@HandleScope@v8@@KAPEAPEAVObject@internal@2@PEAVIsolate@42@PEAV342@@Z 0000000180015cf5 f   node:node.exe
 0001:00014d01       __imp_load_?CreateHandle@HandleScope@v8@@CAPEAPEAVObject@internal@2@PEAVHeapObject@42@PEAV342@@Z 0000000180015d01 f   node:node.exe
 0001:00014d0d       __imp_load_??1HandleScope@v8@@QEAA@XZ 0000000180015d0d f   node:node.exe
 0001:00014d19       __imp_load_??0HandleScope@v8@@QEAA@PEAVIsolate@1@@Z 0000000180015d19 f   node:node.exe
 0001:00014d25       __imp_load_?SetClassName@FunctionTemplate@v8@@QEAAXV?$Local@VString@v8@@@2@@Z 0000000180015d25 f   node:node.exe
 0001:00014d31       __imp_load_?InstanceTemplate@FunctionTemplate@v8@@QEAA?AV?$Local@VObjectTemplate@v8@@@2@XZ 0000000180015d31 f   node:node.exe
 0001:00014d3d       __imp_load_?GetFunction@FunctionTemplate@v8@@QEAA?AV?$Local@VFunction@v8@@@2@XZ 0000000180015d3d f   node:node.exe
 0001:00014d49       __imp_load_?New@FunctionTemplate@v8@@SA?AV?$Local@VFunctionTemplate@v8@@@2@PEAVIsolate@2@P6AXAEBV?$FunctionCallbackInfo@VValue@v8@@@2@@ZV?$Local@VValue@v8@@@2@V?$Local@VSignature@v8@@@2@HW4ConstructorBehavior@2@@Z 0000000180015d49 f   node:node.exe
 0001:00014d55       __imp_load_?ToLocalEmpty@V8@v8@@CAXXZ 0000000180015d55 f   node:node.exe
 0001:00014d61       __imp_load_?GlobalizeReference@V8@v8@@CAPEAPEAVObject@internal@2@PEAVIsolate@42@PEAPEAV342@@Z 0000000180015d61 f   node:node.exe
 0001:00014d6d       __imp_load_?Uint32Value@Value@v8@@QEBAIXZ 0000000180015d6d f   node:node.exe
 0001:00014d79       __imp_load_?IsNumber@Value@v8@@QEBA_NXZ 0000000180015d79 f   node:node.exe
 0001:00014d85       __imp_load_?Escape@EscapableHandleScope@v8@@AEAAPEAPEAVObject@internal@2@PEAPEAV342@@Z 0000000180015d85 f   node:node.exe
 0001:00014d91       __imp_load_??0EscapableHandleScope@v8@@QEAA@PEAVIsolate@1@@Z 0000000180015d91 f   node:node.exe
 0001:00014d9d       __imp_load_?NewFromUtf8@String@v8@@SA?AV?$MaybeLocal@VString@v8@@@2@PEAVIsolate@2@PEBDW4NewStringType@2@H@Z 0000000180015d9d f   node:node.exe
 0001:00014da9       __imp_load_?SlowGetInternalField@Object@v8@@AEAA?AV?$Local@VValue@v8@@@2@H@Z 0000000180015da9 f   node:node.exe
 0001:00014db5       __imp_load_?SetAlignedPointerInInternalField@Object@v8@@QEAAXHPEAX@Z 0000000180015db5 f   node:node.exe
 0001:00014dc1       __imp_load_?SetInternalField@Object@v8@@QEAAXHV?$Local@VValue@v8@@@2@@Z 0000000180015dc1 f   node:node.exe
 0001:00014dcd       __imp_load_?InternalFieldCount@Object@v8@@QEAAHXZ 0000000180015dcd f   node:node.exe
 0001:00014dd9       __imp_load_?Set@Object@v8@@QEAA_NV?$Local@VValue@v8@@@2@0@Z 0000000180015dd9 f   node:node.exe
 0001:00014de5       __imp_load_?SetInternalFieldCount@ObjectTemplate@v8@@QEAAXH@Z 0000000180015de5 f   node:node.exe
 0001:00014df1       __imp_load_?NewInstance@ObjectTemplate@v8@@QEAA?AV?$MaybeLocal@VObject@v8@@@2@V?$Local@VContext@v8@@@2@@Z 0000000180015df1 f   node:node.exe
 0001:00014dfd       __imp_load_?New@ObjectTemplate@v8@@SA?AV?$Local@VObjectTemplate@v8@@@2@PEAVIsolate@2@V?$Local@VFunctionTemplate@v8@@@2@@Z 0000000180015dfd f   node:node.exe
 0001:00014e09       __imp_load_??1EscapableHandleScope@v8@@QEAA@XZ 0000000180015e09 f   node:node.exe
 0001:00014e15       __imp_load_?New@Object@v8@@SA?AV?$Local@VObject@v8@@@2@PEAVIsolate@2@@Z 0000000180015e15 f   node:node.exe
 0001:00014e21       __imp_load_uv_queue_work   0000000180015e21 f   node:node.exe
 0001:00014e2d       __imp_load_?Global@Context@v8@@QEAA?AV?$Local@VObject@v8@@@2@XZ 0000000180015e2d f   node:node.exe
 0001:00014e39       __imp_load_?NewFromUnsigned@Integer@v8@@SA?AV?$Local@VInteger@v8@@@2@PEAVIsolate@2@I@Z 0000000180015e39 f   node:node.exe
 0001:00014e45       __imp_load_?New@Signature@v8@@SA?AV?$Local@VSignature@v8@@@2@PEAVIsolate@2@V?$Local@VFunctionTemplate@v8@@@2@@Z 0000000180015e45 f   node:node.exe
 0001:00014e51       __imp_load_?ThrowException@Isolate@v8@@QEAA?AV?$Local@VValue@v8@@@2@V32@@Z 0000000180015e51 f   node:node.exe
 0001:00014e5d       __imp_load_?Length@TypedArray@v8@@QEAA_KXZ 0000000180015e5d f   node:node.exe
 0001:00014e69       __imp_load_?Set@Template@v8@@QEAAXV?$Local@VName@v8@@@2@V?$Local@VData@v8@@@2@W4PropertyAttribute@2@@Z 0000000180015e69 f   node:node.exe
 0001:00014e75       __imp_load_?ByteLength@ArrayBufferView@v8@@QEAA_KXZ 0000000180015e75 f   node:node.exe
 0001:00014e81       __imp_load_?ByteOffset@ArrayBufferView@v8@@QEAA_KXZ 0000000180015e81 f   node:node.exe
 0001:00014e8d       __imp_load_?Buffer@ArrayBufferView@v8@@QEAA?AV?$Local@VArrayBuffer@v8@@@2@XZ 0000000180015e8d f   node:node.exe
 0001:00014e99       __imp_load_?Error@Exception@v8@@SA?AV?$Local@VValue@v8@@@2@V?$Local@VString@v8@@@2@@Z 0000000180015e99 f   node:node.exe
 0001:00014ea5       __imp_load_?TypeError@Exception@v8@@SA?AV?$Local@VValue@v8@@@2@V?$Local@VString@v8@@@2@@Z 0000000180015ea5 f   node:node.exe
 0001:00014eb1       __imp_load_?RangeError@Exception@v8@@SA?AV?$Local@VValue@v8@@@2@V?$Local@VString@v8@@@2@@Z 0000000180015eb1 f   node:node.exe
 0001:00014ebd       __imp_load_?New@AccessorSignature@v8@@SA?AV?$Local@VAccessorSignature@v8@@@2@PEAVIsolate@2@V?$Local@VFunctionTemplate@v8@@@2@@Z 0000000180015ebd f   node:node.exe
 0001:00014ec9       __imp_load_?PrototypeTemplate@FunctionTemplate@v8@@QEAA?AV?$Local@VObjectTemplate@v8@@@2@XZ 0000000180015ec9 f   node:node.exe
 0001:00014ed5       __imp_load_?GetContents@ArrayBuffer@v8@@QEAA?AVContents@12@XZ 0000000180015ed5 f   node:node.exe
 0001:00014ee1       __imp_load_?StrictEquals@Value@v8@@QEBA_NV?$Local@VValue@v8@@@2@@Z 0000000180015ee1 f   node:node.exe
 0001:00014eed       __imp_load_?ToUint32@Value@v8@@QEBA?AV?$MaybeLocal@VUint32@v8@@@2@V?$Local@VContext@v8@@@2@@Z 0000000180015eed f   node:node.exe
 0001:00014ef9       __imp_load_?IsUint8ClampedArray@Value@v8@@QEBA_NXZ 0000000180015ef9 f   node:node.exe
 0001:00014f05       __imp_load_?IsArrayBufferView@Value@v8@@QEBA_NXZ 0000000180015f05 f   node:node.exe
 0001:00014f11       __imp_load_?IsUint32@Value@v8@@QEBA_NXZ 0000000180015f11 f   node:node.exe
 0001:00014f1d       __imp_load_?IsObject@Value@v8@@QEBA_NXZ 0000000180015f1d f   node:node.exe
 0001:00014f29       __imp_load_?IsFunction@Value@v8@@QEBA_NXZ 0000000180015f29 f   node:node.exe
 0001:00014f35       __imp_load_?ReThrow@TryCatch@v8@@QEAA?AV?$Local@VValue@v8@@@2@XZ 0000000180015f35 f   node:node.exe
 0001:00014f41       __imp_load_?HasCaught@TryCatch@v8@@QEBA_NXZ 0000000180015f41 f   node:node.exe
 0001:00014f4d       __imp_load_??1TryCatch@v8@@QEAA@XZ 0000000180015f4d f   node:node.exe
 0001:00014f59       __imp_load_??0TryCatch@v8@@QEAA@PEAVIsolate@1@@Z 0000000180015f59 f   node:node.exe
 0001:00014f65       __imp_load_??1Utf8Value@String@v8@@QEAA@XZ 0000000180015f65 f   node:node.exe
 0001:00014f71       __imp_load_??0Utf8Value@String@v8@@QEAA@V?$Local@VValue@v8@@@2@@Z 0000000180015f71 f   node:node.exe
 0001:00014f7d       __imp_load_?New@Number@v8@@SA?AV?$Local@VNumber@v8@@@2@PEAVIsolate@2@N@Z 0000000180015f7d f   node:node.exe
 0001:00014f89       __imp_load_?SlowGetAlignedPointerFromInternalField@Object@v8@@AEAAPEAXH@Z 0000000180015f89 f   node:node.exe
 0001:00014f95       __imp_load_?Get@Object@v8@@QEAA?AV?$Local@VValue@v8@@@2@V32@@Z 0000000180015f95 f   node:node.exe
 0001:00014fa1       __imp_load_?Set@Object@v8@@QEAA?AV?$Maybe@_N@2@V?$Local@VContext@v8@@@2@V?$Local@VValue@v8@@@2@1@Z 0000000180015fa1 f   node:node.exe
 0001:00014fad       __imp_load_?Call@Function@v8@@QEAA?AV?$MaybeLocal@VValue@v8@@@2@V?$Local@VContext@v8@@@2@V?$Local@VValue@v8@@@2@HQEAV52@@Z 0000000180015fad f   node:node.exe
 0001:00014fb9       __imp_load_?SetAccessor@ObjectTemplate@v8@@QEAAXV?$Local@VName@v8@@@2@P6AX0AEBV?$PropertyCallbackInfo@VValue@v8@@@2@@ZP6AX0V?$Local@VValue@v8@@@2@AEBV?$PropertyCallbackInfo@X@2@@Z3W4AccessControl@2@W4PropertyAttribute@2@V?$Local@VAccessorSignature@v8@@@2@@Z 0000000180015fb9 f   node:node.exe
 0001:00014fc5       __imp_load_?New@Buffer@node@@YA?AV?$MaybeLocal@VObject@v8@@@v8@@PEAVIsolate@4@PEAD_KP6AX1PEAX@Z3@Z 0000000180015fc5 f   node:node.exe
 0001:00014fd1       __imp_load_?Data@Buffer@node@@YAPEADV?$Local@VObject@v8@@@v8@@@Z 0000000180015fd1 f   node:node.exe
 0001:00014fdd       __imp_load_?Copy@Buffer@node@@YA?AV?$MaybeLocal@VObject@v8@@@v8@@PEAVIsolate@4@PEBD_K@Z 0000000180015fdd f   node:node.exe
 0001:00014fe9       __imp_load_?MakeCallback@node@@YA?AV?$Local@VValue@v8@@@v8@@PEAVIsolate@3@V?$Local@VObject@v8@@@3@V?$Local@VFunction@v8@@@3@HPEAV23@@Z 0000000180015fe9 f   node:node.exe
 0001:00014ff5       __imp_load_uv_default_loop 0000000180015ff5 f   node:node.exe
 0001:00015001       __imp_load_?ToObject@Value@v8@@QEBA?AV?$Local@VObject@v8@@@2@XZ 0000000180016001 f   node:node.exe
 0001:0001500d       __imp_load_?NumberValue@Value@v8@@QEBANXZ 000000018001600d f   node:node.exe
 0001:00015019       __imp_load_?HasInstance@FunctionTemplate@v8@@QEAA_NV?$Local@VValue@v8@@@2@@Z 0000000180016019 f   node:node.exe
 0001:00015025       __imp_load_?New@Uint8ClampedArray@v8@@SA?AV?$Local@VUint8ClampedArray@v8@@@2@V?$Local@VArrayBuffer@v8@@@2@_K1@Z 0000000180016025 f   node:node.exe
 0001:00015031       __imp_load_?New@Integer@v8@@SA?AV?$Local@VInteger@v8@@@2@PEAVIsolate@2@H@Z 0000000180016031 f   node:node.exe
 0001:0001503d       __imp_load_?New@Array@v8@@SA?AV?$Local@VArray@v8@@@2@PEAVIsolate@2@H@Z 000000018001603d f   node:node.exe
 0001:00015049       __imp_load_?Length@Array@v8@@QEBAIXZ 0000000180016049 f   node:node.exe
 0001:00015055       __imp_load_?GetFunction@FunctionTemplate@v8@@QEAA?AV?$MaybeLocal@VFunction@v8@@@2@V?$Local@VContext@v8@@@2@@Z 0000000180016055 f   node:node.exe
 0001:00015061       __imp_load_?New@ArrayBuffer@v8@@SA?AV?$Local@VArrayBuffer@v8@@@2@PEAVIsolate@2@_K@Z 0000000180016061 f   node:node.exe
 0001:0001506d       __imp_load_?Int32Value@Value@v8@@QEBAHXZ 000000018001606d f   node:node.exe
 0001:00015079       __imp_load_?BooleanValue@Value@v8@@QEBA_NXZ 0000000180016079 f   node:node.exe
 0001:00015085       __imp_load_?ToInt32@Value@v8@@QEBA?AV?$MaybeLocal@VInt32@v8@@@2@V?$Local@VContext@v8@@@2@@Z 0000000180016085 f   node:node.exe
 0001:00015091       __imp_load_?IsInt32@Value@v8@@QEBA_NXZ 0000000180016091 f   node:node.exe
 0001:0001509d       __imp_load_?IsBoolean@Value@v8@@QEBA_NXZ 000000018001609d f   node:node.exe
 0001:000150a9       __imp_load_?IsArray@Value@v8@@QEBA_NXZ 00000001800160a9 f   node:node.exe
 0001:000150b5       __imp_load_?New@Uint16Array@v8@@SA?AV?$Local@VUint16Array@v8@@@2@V?$Local@VArrayBuffer@v8@@@2@_K1@Z 00000001800160b5 f   node:node.exe
 0001:000150c1       __imp_load_?Get@Object@v8@@QEAA?AV?$Local@VValue@v8@@@2@I@Z 00000001800160c1 f   node:node.exe
 0001:000150cd       __imp_load_?NewInstance@Function@v8@@QEBA?AV?$MaybeLocal@VObject@v8@@@2@V?$Local@VContext@v8@@@2@HQEAV?$Local@VValue@v8@@@2@@Z 00000001800160cd f   node:node.exe
 0001:000150d9       __imp_load_?ToString@Value@v8@@QEBA?AV?$Local@VString@v8@@@2@XZ 00000001800160d9 f   node:node.exe
 0001:000150e5       __imp_load_?Call@Function@v8@@QEAA?AV?$Local@VValue@v8@@@2@V32@HQEAV32@@Z 00000001800160e5 f   node:node.exe
 0001:000150f1       __imp_load_?HasInstance@Buffer@node@@YA_NV?$Local@VValue@v8@@@v8@@@Z 00000001800160f1 f   node:node.exe
 0001:000150fd       __imp_load_?Length@Buffer@node@@YA_KV?$Local@VObject@v8@@@v8@@@Z 00000001800160fd f   node:node.exe
 0001:00015109       __imp_load_?IsUint16Array@Value@v8@@QEBA_NXZ 0000000180016109 f   node:node.exe
 0001:00015115       __imp_load_node_module_register 0000000180016115 f   node:node.exe
 0001:00015124       ??0_Init_locks@std@@QEAA@XZ 0000000180016124 f   libcpmt:xlock.obj
 0001:00015170       ??1_Init_locks@std@@QEAA@XZ 0000000180016170 f   libcpmt:xlock.obj
 0001:000151b4       ??_G_Fac_node@std@@QEAAPEAXI@Z 00000001800161b4 f i libcpmt:locale0.obj
 0001:00015240       ??0bad_alloc@std@@QEAA@AEBV01@@Z 0000000180016240 f i libcpmt:xthrow.obj
 0001:00015280       ??0bad_alloc@std@@QEAA@XZ  0000000180016280 f i libcpmt:xthrow.obj
 0001:000152a0       ??0exception@std@@QEAA@AEBV01@@Z 00000001800162a0 f i libcpmt:xthrow.obj
 0001:000152d8       ??0length_error@std@@QEAA@AEBV01@@Z 00000001800162d8 f i libcpmt:xthrow.obj
 0001:00015318       ??0length_error@std@@QEAA@PEBD@Z 0000000180016318 f i libcpmt:xthrow.obj
 0001:00015364       ??0logic_error@std@@QEAA@AEBV01@@Z 0000000180016364 f i libcpmt:xthrow.obj
 0001:000153a4       ??0out_of_range@std@@QEAA@AEBV01@@Z 00000001800163a4 f i libcpmt:xthrow.obj
 0001:000153e4       ??0out_of_range@std@@QEAA@PEBD@Z 00000001800163e4 f i libcpmt:xthrow.obj
 0001:00015430       ??1bad_exception@std@@UEAA@XZ 0000000180016430 f i libvcruntime:frame.obj
 0001:00015430       ??1out_of_range@std@@UEAA@XZ 0000000180016430 f i libcpmt:xthrow.obj
 0001:00015430       ??1bad_alloc@std@@UEAA@XZ  0000000180016430 f i libcpmt:xthrow.obj
 0001:00015430       ??1length_error@std@@UEAA@XZ 0000000180016430 f i libcpmt:xthrow.obj
 0001:00015430       ??1bad_array_new_length@std@@UEAA@XZ 0000000180016430 f i LIBCMT:throw_bad_alloc.obj
 0001:00015444       ??_Gbad_alloc@std@@UEAAPEAXI@Z 0000000180016444 f i libcpmt:xthrow.obj
 0001:00015444       ??_Gbad_array_new_length@std@@UEAAPEAXI@Z 0000000180016444 f i LIBCMT:throw_bad_alloc.obj
 0001:00015444       ??_Gexception@std@@UEAAPEAXI@Z 0000000180016444 f i libcpmt:xthrow.obj
 0001:00015444       ??_Ebad_exception@std@@UEAAPEAXI@Z 0000000180016444 f i libvcruntime:frame.obj
 0001:00015444       ??_Ebad_array_new_length@std@@UEAAPEAXI@Z 0000000180016444 f i LIBCMT:throw_bad_alloc.obj
 0001:00015444       ??_Elength_error@std@@UEAAPEAXI@Z 0000000180016444 f i libcpmt:xthrow.obj
 0001:00015444       ??_Gbad_exception@std@@UEAAPEAXI@Z 0000000180016444 f i libvcruntime:frame.obj
 0001:00015444       ??_Gout_of_range@std@@UEAAPEAXI@Z 0000000180016444 f i libcpmt:xthrow.obj
 0001:00015444       ??_Glength_error@std@@UEAAPEAXI@Z 0000000180016444 f i libcpmt:xthrow.obj
 0001:00015444       ??_Elogic_error@std@@UEAAPEAXI@Z 0000000180016444 f i libcpmt:xthrow.obj
 0001:00015444       ??_Eexception@std@@UEAAPEAXI@Z 0000000180016444 f i libcpmt:xthrow.obj
 0001:00015444       ??_Eout_of_range@std@@UEAAPEAXI@Z 0000000180016444 f i libcpmt:xthrow.obj
 0001:00015444       ??_Glogic_error@std@@UEAAPEAXI@Z 0000000180016444 f i libcpmt:xthrow.obj
 0001:00015444       ??_Ebad_alloc@std@@UEAAPEAXI@Z 0000000180016444 f i libcpmt:xthrow.obj
 0001:00015488       ?_Xlength_error@std@@YAXPEBD@Z 0000000180016488 f   libcpmt:xthrow.obj
 0001:000154ac       ?_Xout_of_range@std@@YAXPEBD@Z 00000001800164ac f   libcpmt:xthrow.obj
 0001:000154d0       ?what@exception@std@@UEBAPEBDXZ 00000001800164d0 f i libcpmt:xthrow.obj
 0001:000154e4       _Mtxdst                    00000001800164e4 f   libcpmt:xmtx.obj
 0001:000154ec       _Mtxinit                   00000001800164ec f   libcpmt:xmtx.obj
 0001:000159cc       __crtInitializeCriticalSectionEx 00000001800169cc f   libcpmt:winapisupp.obj
 0001:00015a40       __security_check_cookie    0000000180016a40 f   LIBCMT:_amdsecgs_.obj
 0001:00015bac       ??2@YAPEAX_K@Z             0000000180016bac f   LIBCMT:new_scalar.obj
 0001:00015be8       __scrt_acquire_startup_lock 0000000180016be8 f   LIBCMT:utility.obj
 0001:00015c24       __scrt_dllmain_after_initialize_c 0000000180016c24 f   LIBCMT:utility.obj
 0001:00015c58       __scrt_dllmain_before_initialize_c 0000000180016c58 f   LIBCMT:utility.obj
 0001:00015c70       __scrt_dllmain_crt_thread_attach 0000000180016c70 f   LIBCMT:utility.obj
 0001:00015c98       __scrt_dllmain_crt_thread_detach 0000000180016c98 f   LIBCMT:utility.obj
 0001:00015cb0       __scrt_dllmain_exception_filter 0000000180016cb0 f   LIBCMT:utility.obj
 0001:00015d14       __scrt_dllmain_uninitialize_c 0000000180016d14 f   LIBCMT:utility.obj
 0001:00015d44       __scrt_dllmain_uninitialize_critical 0000000180016d44 f   LIBCMT:utility.obj
 0001:00015d58       __scrt_initialize_crt      0000000180016d58 f   LIBCMT:utility.obj
 0001:00015da4       __scrt_initialize_onexit_tables 0000000180016da4 f   LIBCMT:utility.obj
 0001:00015e70       __scrt_is_nonwritable_in_current_image 0000000180016e70 f   LIBCMT:utility.obj
 0001:00015f0c       __scrt_release_startup_lock 0000000180016f0c f   LIBCMT:utility.obj
 0001:00015f30       __scrt_uninitialize_crt    0000000180016f30 f   LIBCMT:utility.obj
 0001:00015f5c       _onexit                    0000000180016f5c f   LIBCMT:utility.obj
 0001:00015fac       atexit                     0000000180016fac f   LIBCMT:utility.obj
 0001:00015fc4       ??3@YAXPEAX@Z              0000000180016fc4 f   LIBCMT:delete_scalar.obj
 0001:00015fcc       ??3@YAXPEAX_K@Z            0000000180016fcc f   LIBCMT:delete_scalar_size.obj
 0001:00016320       _DllMainCRTStartup         0000000180017320 f   LIBCMT:dll_dllmain.obj
 0001:00016360       _guard_check_icall         0000000180017360 f i LIBCMT:checkcfg.obj
 0001:00016368       ??_Gtype_info@@UEAAPEAXI@Z 0000000180017368 f i LIBCMT:std_type_info_static.obj
 0001:00016368       ??_Etype_info@@UEAAPEAXI@Z 0000000180017368 f i LIBCMT:std_type_info_static.obj
 0001:00016394       __GSHandlerCheck           0000000180017394 f   LIBCMT:_gshandler_.obj
 0001:000163b4       __GSHandlerCheckCommon     00000001800173b4 f   LIBCMT:_gshandler_.obj
 0001:00016410       __GSHandlerCheck_EH        0000000180017410 f   LIBCMT:gshandlereh.obj
 0001:000164a0       _alloca_probe              00000001800174a0 f   LIBCMT:_chkstk_.obj
 0001:000164a0       __chkstk                   00000001800174a0 f   LIBCMT:_chkstk_.obj
 0001:000164f4       __raise_securityfailure    00000001800174f4 f   LIBCMT:gs_report.obj
 0001:00016528       __report_gsfailure         0000000180017528 f   LIBCMT:gs_report.obj
 0001:000165fc       __report_rangecheckfailure 00000001800175fc f   LIBCMT:gs_report.obj
 0001:00016610       __report_securityfailure   0000000180017610 f   LIBCMT:gs_report.obj
 0001:00016790       __crt_debugger_hook        0000000180017790 f   LIBCMT:utility_desktop.obj
 0001:00016798       __scrt_fastfail            0000000180017798 f   LIBCMT:utility_desktop.obj
 0001:000168e0       ??0bad_array_new_length@std@@QEAA@AEBV01@@Z 00000001800178e0 f i LIBCMT:throw_bad_alloc.obj
 0001:00016920       ??0bad_array_new_length@std@@QEAA@XZ 0000000180017920 f i LIBCMT:throw_bad_alloc.obj
 0001:00016940       ?_Xbad_alloc@std@@YAXXZ    0000000180017940 f   libcpmt:xthrow.obj
 0001:00016940       ?__scrt_throw_std_bad_alloc@@YAXXZ 0000000180017940 f   LIBCMT:throw_bad_alloc.obj
 0001:00016960       ?__scrt_throw_std_bad_array_new_length@@YAXXZ 0000000180017960 f   LIBCMT:throw_bad_alloc.obj
 0001:00016980       __isa_available_init       0000000180017980 f   LIBCMT:_cpu_disp_.obj
 0001:00016b48       _get_startup_argv_mode     0000000180017b48 f   LIBCMT:argv_mode.obj
 0001:00016b48       DllMain                    0000000180017b48 f   LIBCMT:dll_dllmain_stub.obj
 0001:00016b50       __scrt_is_ucrt_dll_in_use  0000000180017b50 f   LIBCMT:ucrt_detection.obj
 0001:00016b5c       __security_init_cookie     0000000180017b5c f   LIBCMT:gs_support.obj
 0001:00016c08       ?__scrt_initialize_type_info@@YAXXZ 0000000180017c08 f   LIBCMT:tncleanup.obj
 0001:00016c18       ?__scrt_uninitialize_type_info@@YAXXZ 0000000180017c18 f   LIBCMT:tncleanup.obj
 0001:00016c24       __local_stdio_scanf_options 0000000180017c24 f i LIBCMT:default_local_stdio_options.obj
 0001:00016c2c       __scrt_initialize_default_local_stdio_options 0000000180017c2c f   LIBCMT:default_local_stdio_options.obj
 0001:00016c48       __scrt_get_dyn_tls_init_callback 0000000180017c48 f   LIBCMT:dyn_tls_init.obj
 0001:00016c50       _RTC_Initialize            0000000180017c50 f   LIBCMT:_initsect_.obj
 0001:00016c9c       _RTC_Terminate             0000000180017c9c f   LIBCMT:_initsect_.obj
 0001:00016d00       memmove                    0000000180017d00 f   libvcruntime:memcpy.obj
 0001:00016d00       memcpy                     0000000180017d00 f   libvcruntime:memcpy.obj
 0001:00017138       _purecall                  0000000180018138 f   libvcruntime:purevirt.obj
 0001:00017174       __DestructExceptionObject  0000000180018174 f   libvcruntime:frame.obj
 0001:000171fc       ??0bad_exception@std@@QEAA@AEBV01@@Z 00000001800181fc f i libvcruntime:frame.obj
 0001:0001723c       ??0bad_exception@std@@QEAA@XZ 000000018001823c f i libvcruntime:frame.obj
 0001:00017bb8       ?_CallMemberFunction0@@YAXPEAXP6AX0@Z@Z 0000000180018bb8 f i libvcruntime:frame.obj
 0001:00017bbc       ?_CallMemberFunction1@@YAXPEAXP6AX0@Z0@Z 0000000180018bbc f i libvcruntime:frame.obj
 0001:00017bc8       ?_CallMemberFunction2@@YAXPEAXP6AX0@Z0H@Z 0000000180018bc8 f i libvcruntime:frame.obj
 0001:00017bd8       __AdjustPointer            0000000180018bd8 f   libvcruntime:frame.obj
 0001:00017bfc       __BuildCatchObject         0000000180018bfc f   libvcruntime:frame.obj
 0001:00017cc0       __BuildCatchObjectHelper   0000000180018cc0 f   libvcruntime:frame.obj
 0001:00017ea0       __CxxCallCatchBlock        0000000180018ea0 f   libvcruntime:frame.obj
 0001:0001808c       __FrameUnwindFilter        000000018001908c f   libvcruntime:frame.obj
 0001:000180d8       __FrameUnwindToState       00000001800190d8 f   libvcruntime:frame.obj
 0001:0001826c       __InternalCxxFrameHandler  000000018001926c f   libvcruntime:frame.obj
 0001:000184c4       __TypeMatch                00000001800194c4 f   libvcruntime:frame.obj
 0001:00018604       __std_terminate            0000000180019604 f   libvcruntime:frame.obj
 0001:00018610       longjmp                    0000000180019610 f   libvcruntime:longjmpc.obj
 0001:00018638       strstr                     0000000180019638 f   libvcruntime:strstr.obj
 0001:0001882c       ?_ExecutionInCatch@@YAHPEAU_xDISPATCHER_CONTEXT@@PEBU_s_FuncInfo@@@Z 000000018001982c f   libvcruntime:trnsctrl.obj
 0001:000188a0       ?_GetEstablisherFrame@@YAPEA_KPEA_KPEAU_xDISPATCHER_CONTEXT@@PEBU_s_FuncInfo@@0@Z 00000001800198a0 f   libvcruntime:trnsctrl.obj
 0001:0001896c       ?_GetRangeOfTrysToCheck@@YAPEBU_s_TryBlockMapEntry@@PEA_KPEBU_s_FuncInfo@@HHPEAI2PEAU_xDISPATCHER_CONTEXT@@@Z 000000018001996c f   libvcruntime:trnsctrl.obj
 0001:00018a98       ?__FrameUnwindToEmptyState@@YAXPEA_KPEAU_xDISPATCHER_CONTEXT@@PEBU_s_FuncInfo@@@Z 0000000180019a98 f   libvcruntime:trnsctrl.obj
 0001:00018b2c       ?__SehTransFilter@@YAHPEAU_EXCEPTION_POINTERS@@PEAUEHExceptionRecord@@PEA_KPEAU_CONTEXT@@PEAU_xDISPATCHER_CONTEXT@@PEBU_s_FuncInfo@@PEAH@Z 0000000180019b2c f   libvcruntime:trnsctrl.obj
 0001:00018bc4       _CallSETranslator          0000000180019bc4 f   libvcruntime:trnsctrl.obj
 0001:00018c1c       _CreateFrameInfo           0000000180019c1c f   libvcruntime:trnsctrl.obj
 0001:00018c58       _FindAndUnlinkFrame        0000000180019c58 f   libvcruntime:trnsctrl.obj
 0001:00018cb0       _GetImageBase              0000000180019cb0 f   libvcruntime:trnsctrl.obj
 0001:00018cc4       _GetThrowImageBase         0000000180019cc4 f   libvcruntime:trnsctrl.obj
 0001:00018cd8       _IsExceptionObjectToBeDestroyed 0000000180019cd8 f   libvcruntime:trnsctrl.obj
 0001:00018d08       _SetImageBase              0000000180019d08 f   libvcruntime:trnsctrl.obj
 0001:00018d20       _SetThrowImageBase         0000000180019d20 f   libvcruntime:trnsctrl.obj
 0001:00018d38       _UnwindNestedFrames        0000000180019d38 f   libvcruntime:trnsctrl.obj
 0001:00018e5c       __CxxFrameHandler3         0000000180019e5c f   libvcruntime:trnsctrl.obj
 0001:00018edc       __std_exception_copy       0000000180019edc f   libvcruntime:std_exception.obj
 0001:00018f6c       __std_exception_destroy    0000000180019f6c f   libvcruntime:std_exception.obj
 0001:00018f94       _CxxThrowException         0000000180019f94 f   libvcruntime:throw.obj
 0001:00019080       memset                     000000018001a080 f   libvcruntime:memset.obj
 0001:00019230       memcmp                     000000018001a230 f   libvcruntime:memcmp.obj
 0001:000194c0       __vcrt_FlsAlloc            000000018001a4c0 f   libvcruntime:winapi_downlevel.obj
 0001:00019514       __vcrt_FlsFree             000000018001a514 f   libvcruntime:winapi_downlevel.obj
 0001:00019568       __vcrt_FlsGetValue         000000018001a568 f   libvcruntime:winapi_downlevel.obj
 0001:000195bc       __vcrt_FlsSetValue         000000018001a5bc f   libvcruntime:winapi_downlevel.obj
 0001:00019624       __vcrt_InitializeCriticalSectionEx 000000018001a624 f   libvcruntime:winapi_downlevel.obj
 0001:0001969c       __vcrt_initialize_winapi_thunks 000000018001a69c f   libvcruntime:winapi_downlevel.obj
 0001:000196e8       __vcrt_uninitialize_winapi_thunks 000000018001a6e8 f   libvcruntime:winapi_downlevel.obj
 0001:00019728       __vcrt_initialize          000000018001a728 f   libvcruntime:initialization.obj
 0001:0001975c       __vcrt_thread_attach       000000018001a75c f   libvcruntime:initialization.obj
 0001:00019770       __vcrt_thread_detach       000000018001a770 f   libvcruntime:initialization.obj
 0001:00019784       __vcrt_uninitialize        000000018001a784 f   libvcruntime:initialization.obj
 0001:000197a4       __vcrt_uninitialize_critical 000000018001a7a4 f   libvcruntime:initialization.obj
 0001:000197b4       __C_specific_handler       000000018001a7b4 f   libvcruntime:_chandler_.obj
 0001:000199b0       __std_type_info_compare    000000018001a9b0 f   libvcruntime:std_type_info.obj
 0001:000199d8       __std_type_info_destroy_list 000000018001a9d8 f   libvcruntime:std_type_info.obj
 0001:00019a04       __vcrt_initialize_pure_virtual_call_handler 000000018001aa04 f   libvcruntime:purevirt_data.obj
 0001:00019a28       __vcrt_freefls             000000018001aa28 f   libvcruntime:per_thread_data.obj
 0001:00019a48       __vcrt_freeptd             000000018001aa48 f   libvcruntime:per_thread_data.obj
 0001:00019a98       __vcrt_getptd              000000018001aa98 f   libvcruntime:per_thread_data.obj
 0001:00019ab4       __vcrt_getptd_noexit       000000018001aab4 f   libvcruntime:per_thread_data.obj
 0001:00019b6c       __vcrt_initialize_ptd      000000018001ab6c f   libvcruntime:per_thread_data.obj
 0001:00019bac       __vcrt_uninitialize_ptd    000000018001abac f   libvcruntime:per_thread_data.obj
 0001:00019bd0       ?__GetCurrentState@@YAHPEA_KPEAU_xDISPATCHER_CONTEXT@@PEBU_s_FuncInfo@@@Z 000000018001abd0 f   libvcruntime:ehstate.obj
 0001:00019bf8       ?__GetUnwindTryBlock@@YAHPEA_KPEAU_xDISPATCHER_CONTEXT@@PEBU_s_FuncInfo@@@Z 000000018001abf8 f   libvcruntime:ehstate.obj
 0001:00019c24       ?__SetState@@YAXPEA_KPEAU_xDISPATCHER_CONTEXT@@PEBU_s_FuncInfo@@H@Z 000000018001ac24 f   libvcruntime:ehstate.obj
 0001:00019c30       ?__SetUnwindTryBlock@@YAXPEA_KPEAU_xDISPATCHER_CONTEXT@@PEBU_s_FuncInfo@@H@Z 000000018001ac30 f   libvcruntime:ehstate.obj
 0001:00019c6c       ?__StateFromControlPc@@YAHPEBU_s_FuncInfo@@PEAU_xDISPATCHER_CONTEXT@@@Z 000000018001ac6c f   libvcruntime:ehstate.obj
 0001:00019c74       ?__StateFromIp@@YAHPEBU_s_FuncInfo@@PEAU_xDISPATCHER_CONTEXT@@_J@Z 000000018001ac74 f   libvcruntime:ehstate.obj
 0001:00019cf0       _CallSettingFrame          000000018001acf0 f   libvcruntime:handlers.obj
 0001:00019d40       _local_unwind              000000018001ad40 f   libvcruntime:_jmpuwind_.obj
 0001:00019d70       _NLG_Notify                000000018001ad70 f   libvcruntime:_jmpuwind_.obj
 0001:00019d90       __NLG_Dispatch2            000000018001ad90 f   libvcruntime:_jmpuwind_.obj
 0001:00019da0       __NLG_Return2              000000018001ada0 f   libvcruntime:_jmpuwind_.obj
 0001:00019db0       __vcrt_initialize_locks    000000018001adb0 f   libvcruntime:locks.obj
 0001:00019df8       __vcrt_uninitialize_locks  000000018001adf8 f   libvcruntime:locks.obj
 0001:00019e30       abort                      000000018001ae30 f   libucrt:abort.obj
 0001:00019e88       __acrt_call_reportfault    000000018001ae88 f   libucrt:invalid_parameter.obj
 0001:00019fe4       __acrt_initialize_invalid_parameter_handler 000000018001afe4 f   libucrt:invalid_parameter.obj
 0001:00019fec       _invalid_parameter         000000018001afec f   libucrt:invalid_parameter.obj
 0001:0001a094       _invalid_parameter_noinfo  000000018001b094 f   libucrt:invalid_parameter.obj
 0001:0001a0b4       _invalid_parameter_noinfo_noreturn 000000018001b0b4 f   libucrt:invalid_parameter.obj
 0001:0001a0e4       _invoke_watson             000000018001b0e4 f   libucrt:invalid_parameter.obj
 0001:0001a12c       free                       000000018001b12c f   libucrt:free.obj
 0001:0001ab1c       ??$ftprintf@PEAU_iobuf@@PEB_WAEBQEB_WAEBQEB_WAEBI@?$__crt_char_traits@_W@@SAH$$QEAPEAU_iobuf@@$$QEAPEB_WAEBQEB_W2AEBI@Z 000000018001bb1c f i libucrt:assert.obj
 0001:0001ab44       _wassert                   000000018001bb44 f   libucrt:assert.obj
 0001:0001abc8       fwprintf                   000000018001bbc8 f i libucrt:assert.obj
 0001:0001ac0c       swprintf                   000000018001bc0c f i libucrt:assert.obj
 0001:0001ac60       malloc                     000000018001bc60 f   libucrt:malloc.obj
 0001:0001ac68       _isnan                     000000018001bc68 f   libucrt:ieeemisc.obj
 0001:0001ac94       _finite                    000000018001bc94 f   libucrt:_finite.obj
 0001:0001acc0       __acrt_initialize_stdio    000000018001bcc0 f   libucrt:_file.obj
 0001:0001ade0       __acrt_iob_func            000000018001bde0 f   libucrt:_file.obj
 0001:0001adf4       __acrt_uninitialize_stdio  000000018001bdf4 f   libucrt:_file.obj
 0001:0001ae50       _lock_file                 000000018001be50 f   libucrt:_file.obj
 0001:0001ae5c       _unlock_file               000000018001be5c f   libucrt:_file.obj
 0001:0001ae68       ??$?RV<lambda_7b91131dde12e1c3dfc74ff76b3f2eac>@@AEAV<lambda_dd75445284c072d0bd3768540cc698fa>@@V<lambda_16bc4ecb55b4718497c16bceaea2ceaf>@@@?$__crt_seh_guarded_call@H@@QEAAH$$QEAV<lambda_7b91131dde12e1c3dfc74ff76b3f2eac>@@AEAV<lambda_dd75445284c072d0bd3768540cc698fa>@@$$QEAV<lambda_16bc4ecb55b4718497c16bceaea2ceaf>@@@Z 000000018001be68 f i libucrt:output.obj
 0001:0001aea8       ??$ensure_buffer_is_big_enough@D@formatting_buffer@__crt_stdio_output@@QEAA_N_K@Z 000000018001bea8 f i libucrt:output.obj
 0001:0001af54       ??$is_wide_character_specifier@D@__crt_stdio_output@@YA_N_KDW4length_modifier@0@@Z 000000018001bf54 f i libucrt:output.obj
 0001:0001af84       ??$is_wide_character_specifier@_W@__crt_stdio_output@@YA_N_K_WW4length_modifier@0@@Z 000000018001bf84 f i libucrt:output.obj
 0001:0001afc8       ??$type_case_integer_parse_into_buffer@I@?$output_processor@DV?$string_output_adapter@D@__crt_stdio_output@@V?$standard_base@DV?$string_output_adapter@D@__crt_stdio_output@@@2@@__crt_stdio_output@@AEAAXII_N@Z 000000018001bfc8 f i libucrt:output.obj
 0001:0001afc8       ??$type_case_integer_parse_into_buffer@I@?$output_processor@_WV?$string_output_adapter@_W@__crt_stdio_output@@V?$standard_base@_WV?$string_output_adapter@_W@__crt_stdio_output@@@2@@__crt_stdio_output@@AEAAXII_N@Z 000000018001bfc8 f i libucrt:output.obj
 0001:0001afc8       ??$type_case_integer_parse_into_buffer@I@?$output_processor@_WV?$stream_output_adapter@_W@__crt_stdio_output@@V?$standard_base@_WV?$stream_output_adapter@_W@__crt_stdio_output@@@2@@__crt_stdio_output@@AEAAXII_N@Z 000000018001bfc8 f i libucrt:output.obj
 0001:0001b064       ??$type_case_integer_parse_into_buffer@_K@?$output_processor@DV?$string_output_adapter@D@__crt_stdio_output@@V?$standard_base@DV?$string_output_adapter@D@__crt_stdio_output@@@2@@__crt_stdio_output@@AEAAX_KI_N@Z 000000018001c064 f i libucrt:output.obj
 0001:0001b064       ??$type_case_integer_parse_into_buffer@_K@?$output_processor@_WV?$string_output_adapter@_W@__crt_stdio_output@@V?$standard_base@_WV?$string_output_adapter@_W@__crt_stdio_output@@@2@@__crt_stdio_output@@AEAAX_KI_N@Z 000000018001c064 f i libucrt:output.obj
 0001:0001b064       ??$type_case_integer_parse_into_buffer@_K@?$output_processor@_WV?$stream_output_adapter@_W@__crt_stdio_output@@V?$standard_base@_WV?$stream_output_adapter@_W@__crt_stdio_output@@@2@@__crt_stdio_output@@AEAAX_KI_N@Z 000000018001c064 f i libucrt:output.obj
 0001:0001b100       ??$write_multiple_characters@V?$stream_output_adapter@_W@__crt_stdio_output@@D@__crt_stdio_output@@YAXAEBV?$stream_output_adapter@_W@0@DHQEAH@Z 000000018001c100 f i libucrt:output.obj
 0001:0001b190       ??$write_multiple_characters@V?$string_output_adapter@D@__crt_stdio_output@@D@__crt_stdio_output@@YAXAEBV?$string_output_adapter@D@0@DHQEAH@Z 000000018001c190 f i libucrt:output.obj
 0001:0001b1ec       ??$write_multiple_characters@V?$string_output_adapter@_W@__crt_stdio_output@@D@__crt_stdio_output@@YAXAEBV?$string_output_adapter@_W@0@DHQEAH@Z 000000018001c1ec f i libucrt:output.obj
 0001:0001b25c       ??0?$output_processor@DV?$string_output_adapter@D@__crt_stdio_output@@V?$standard_base@DV?$string_output_adapter@D@__crt_stdio_output@@@2@@__crt_stdio_output@@QEAA@AEBV?$string_output_adapter@D@1@_KQEBDQEAU__crt_locale_pointers@@QEAD@Z 000000018001c25c f i libucrt:output.obj
 0001:0001b2d8       ??0?$output_processor@_WV?$string_output_adapter@_W@__crt_stdio_output@@V?$standard_base@_WV?$string_output_adapter@_W@__crt_stdio_output@@@2@@__crt_stdio_output@@QEAA@AEBV?$string_output_adapter@_W@1@_KQEB_WQEAU__crt_locale_pointers@@QEAD@Z 000000018001c2d8 f i libucrt:output.obj
 0001:0001b2d8       ??0?$output_processor@_WV?$stream_output_adapter@_W@__crt_stdio_output@@V?$standard_base@_WV?$stream_output_adapter@_W@__crt_stdio_output@@@2@@__crt_stdio_output@@QEAA@AEBV?$stream_output_adapter@_W@1@_KQEB_WQEAU__crt_locale_pointers@@QEAD@Z 000000018001c2d8 f i libucrt:output.obj
 0001:0001b358       ??0_LocaleUpdate@@QEAA@QEAU__crt_locale_pointers@@@Z 000000018001c358 f i libucrt:output.obj
 0001:0001b4d8       ?force_decimal_point@__crt_stdio_output@@YAXPEADQEAU__crt_locale_pointers@@@Z 000000018001c4d8 f i libucrt:output.obj
 0001:0001b548       ?parse_int_from_format_string@?$output_processor@DV?$string_output_adapter@D@__crt_stdio_output@@V?$standard_base@DV?$string_output_adapter@D@__crt_stdio_output@@@2@@__crt_stdio_output@@AEAA_NQEAH@Z 000000018001c548 f i libucrt:output.obj
 0001:0001b5cc       ?parse_int_from_format_string@?$output_processor@_WV?$stream_output_adapter@_W@__crt_stdio_output@@V?$standard_base@_WV?$stream_output_adapter@_W@__crt_stdio_output@@@2@@__crt_stdio_output@@AEAA_NQEAH@Z 000000018001c5cc f i libucrt:output.obj
 0001:0001b5cc       ?parse_int_from_format_string@?$output_processor@_WV?$string_output_adapter@_W@__crt_stdio_output@@V?$standard_base@_WV?$string_output_adapter@_W@__crt_stdio_output@@@2@@__crt_stdio_output@@AEAA_NQEAH@Z 000000018001c5cc f i libucrt:output.obj
 0001:0001b64c       ?process@?$output_processor@DV?$string_output_adapter@D@__crt_stdio_output@@V?$standard_base@DV?$string_output_adapter@D@__crt_stdio_output@@@2@@__crt_stdio_output@@QEAAHXZ 000000018001c64c f i libucrt:output.obj
 0001:0001b850       ?process@?$output_processor@_WV?$stream_output_adapter@_W@__crt_stdio_output@@V?$standard_base@_WV?$stream_output_adapter@_W@__crt_stdio_output@@@2@@__crt_stdio_output@@QEAAHXZ 000000018001c850 f i libucrt:output.obj
 0001:0001bac8       ?process@?$output_processor@_WV?$string_output_adapter@_W@__crt_stdio_output@@V?$standard_base@_WV?$string_output_adapter@_W@__crt_stdio_output@@@2@@__crt_stdio_output@@QEAAHXZ 000000018001cac8 f i libucrt:output.obj
 0001:0001bd44       ?state_case_normal@?$output_processor@DV?$string_output_adapter@D@__crt_stdio_output@@V?$standard_base@DV?$string_output_adapter@D@__crt_stdio_output@@@2@@__crt_stdio_output@@AEAA_NXZ 000000018001cd44 f i libucrt:output.obj
 0001:0001bdb8       ?state_case_normal_tchar@?$output_processor@DV?$string_output_adapter@D@__crt_stdio_output@@V?$standard_base@DV?$string_output_adapter@D@__crt_stdio_output@@@2@@__crt_stdio_output@@AEAA_ND@Z 000000018001cdb8 f i libucrt:output.obj
 0001:0001be50       ?state_case_size@?$output_processor@DV?$string_output_adapter@D@__crt_stdio_output@@V?$standard_base@DV?$string_output_adapter@D@__crt_stdio_output@@@2@@__crt_stdio_output@@AEAA_NXZ 000000018001ce50 f i libucrt:output.obj
 0001:0001bfcc       ?state_case_size@?$output_processor@_WV?$stream_output_adapter@_W@__crt_stdio_output@@V?$standard_base@_WV?$stream_output_adapter@_W@__crt_stdio_output@@@2@@__crt_stdio_output@@AEAA_NXZ 000000018001cfcc f i libucrt:output.obj
 0001:0001c170       ?state_case_size@?$output_processor@_WV?$string_output_adapter@_W@__crt_stdio_output@@V?$standard_base@_WV?$string_output_adapter@_W@__crt_stdio_output@@@2@@__crt_stdio_output@@AEAA_NXZ 000000018001d170 f i libucrt:output.obj
 0001:0001c314       ?state_case_type@?$output_processor@DV?$string_output_adapter@D@__crt_stdio_output@@V?$standard_base@DV?$string_output_adapter@D@__crt_stdio_output@@@2@@__crt_stdio_output@@AEAA_NXZ 000000018001d314 f i libucrt:output.obj
 0001:0001c590       ?state_case_type@?$output_processor@_WV?$stream_output_adapter@_W@__crt_stdio_output@@V?$standard_base@_WV?$stream_output_adapter@_W@__crt_stdio_output@@@2@@__crt_stdio_output@@AEAA_NXZ 000000018001d590 f i libucrt:output.obj
 0001:0001c85c       ?state_case_type@?$output_processor@_WV?$string_output_adapter@_W@__crt_stdio_output@@V?$standard_base@_WV?$string_output_adapter@_W@__crt_stdio_output@@@2@@__crt_stdio_output@@AEAA_NXZ 000000018001d85c f i libucrt:output.obj
 0001:0001cb28       ?type_case_Z@?$output_processor@DV?$string_output_adapter@D@__crt_stdio_output@@V?$standard_base@DV?$string_output_adapter@D@__crt_stdio_output@@@2@@__crt_stdio_output@@AEAA_NXZ 000000018001db28 f i libucrt:output.obj
 0001:0001cba8       ?type_case_Z@?$output_processor@_WV?$stream_output_adapter@_W@__crt_stdio_output@@V?$standard_base@_WV?$stream_output_adapter@_W@__crt_stdio_output@@@2@@__crt_stdio_output@@AEAA_NXZ 000000018001dba8 f i libucrt:output.obj
 0001:0001cba8       ?type_case_Z@?$output_processor@_WV?$string_output_adapter@_W@__crt_stdio_output@@V?$standard_base@_WV?$string_output_adapter@_W@__crt_stdio_output@@@2@@__crt_stdio_output@@AEAA_NXZ 000000018001dba8 f i libucrt:output.obj
 0001:0001cc28       ?type_case_a@?$output_processor@DV?$string_output_adapter@D@__crt_stdio_output@@V?$standard_base@DV?$string_output_adapter@D@__crt_stdio_output@@@2@@__crt_stdio_output@@AEAA_NXZ 000000018001dc28 f i libucrt:output.obj
 0001:0001ce44       ?type_case_a@?$output_processor@_WV?$string_output_adapter@_W@__crt_stdio_output@@V?$standard_base@_WV?$string_output_adapter@_W@__crt_stdio_output@@@2@@__crt_stdio_output@@AEAA_NXZ 000000018001de44 f i libucrt:output.obj
 0001:0001ce44       ?type_case_a@?$output_processor@_WV?$stream_output_adapter@_W@__crt_stdio_output@@V?$standard_base@_WV?$stream_output_adapter@_W@__crt_stdio_output@@@2@@__crt_stdio_output@@AEAA_NXZ 000000018001de44 f i libucrt:output.obj
 0001:0001d088       ?type_case_c_tchar@?$output_processor@DV?$string_output_adapter@D@__crt_stdio_output@@V?$standard_base@DV?$string_output_adapter@D@__crt_stdio_output@@@2@@__crt_stdio_output@@AEAA_ND@Z 000000018001e088 f i libucrt:output.obj
 0001:0001d13c       ?type_case_c_tchar@?$output_processor@_WV?$stream_output_adapter@_W@__crt_stdio_output@@V?$standard_base@_WV?$stream_output_adapter@_W@__crt_stdio_output@@@2@@__crt_stdio_output@@AEAA_N_W@Z 000000018001e13c f i libucrt:output.obj
 0001:0001d13c       ?type_case_c_tchar@?$output_processor@_WV?$string_output_adapter@_W@__crt_stdio_output@@V?$standard_base@_WV?$string_output_adapter@_W@__crt_stdio_output@@@2@@__crt_stdio_output@@AEAA_N_W@Z 000000018001e13c f i libucrt:output.obj
 0001:0001d1e4       ?type_case_integer@?$output_processor@DV?$string_output_adapter@D@__crt_stdio_output@@V?$standard_base@DV?$string_output_adapter@D@__crt_stdio_output@@@2@@__crt_stdio_output@@AEAA_NI_N@Z 000000018001e1e4 f i libucrt:output.obj
 0001:0001d1e4       ?type_case_integer@?$output_processor@_WV?$stream_output_adapter@_W@__crt_stdio_output@@V?$standard_base@_WV?$stream_output_adapter@_W@__crt_stdio_output@@@2@@__crt_stdio_output@@AEAA_NI_N@Z 000000018001e1e4 f i libucrt:output.obj
 0001:0001d1e4       ?type_case_integer@?$output_processor@_WV?$string_output_adapter@_W@__crt_stdio_output@@V?$standard_base@_WV?$string_output_adapter@_W@__crt_stdio_output@@@2@@__crt_stdio_output@@AEAA_NI_N@Z 000000018001e1e4 f i libucrt:output.obj
 0001:0001d384       ?type_case_n@?$output_processor@_WV?$string_output_adapter@_W@__crt_stdio_output@@V?$standard_base@_WV?$string_output_adapter@_W@__crt_stdio_output@@@2@@__crt_stdio_output@@AEAA_NXZ 000000018001e384 f i libucrt:output.obj
 0001:0001d384       ?type_case_n@?$output_processor@DV?$string_output_adapter@D@__crt_stdio_output@@V?$standard_base@DV?$string_output_adapter@D@__crt_stdio_output@@@2@@__crt_stdio_output@@AEAA_NXZ 000000018001e384 f i libucrt:output.obj
 0001:0001d384       ?type_case_n@?$output_processor@_WV?$stream_output_adapter@_W@__crt_stdio_output@@V?$standard_base@_WV?$stream_output_adapter@_W@__crt_stdio_output@@@2@@__crt_stdio_output@@AEAA_NXZ 000000018001e384 f i libucrt:output.obj
 0001:0001d460       ?type_case_s@?$output_processor@DV?$string_output_adapter@D@__crt_stdio_output@@V?$standard_base@DV?$string_output_adapter@D@__crt_stdio_output@@@2@@__crt_stdio_output@@AEAA_NXZ 000000018001e460 f i libucrt:output.obj
 0001:0001d4f0       ?type_case_s@?$output_processor@_WV?$string_output_adapter@_W@__crt_stdio_output@@V?$standard_base@_WV?$string_output_adapter@_W@__crt_stdio_output@@@2@@__crt_stdio_output@@AEAA_NXZ 000000018001e4f0 f i libucrt:output.obj
 0001:0001d4f0       ?type_case_s@?$output_processor@_WV?$stream_output_adapter@_W@__crt_stdio_output@@V?$standard_base@_WV?$stream_output_adapter@_W@__crt_stdio_output@@@2@@__crt_stdio_output@@AEAA_NXZ 000000018001e4f0 f i libucrt:output.obj
 0001:0001d5b8       ?write_stored_string_tchar@?$output_processor@DV?$string_output_adapter@D@__crt_stdio_output@@V?$standard_base@DV?$string_output_adapter@D@__crt_stdio_output@@@2@@__crt_stdio_output@@AEAA_ND@Z 000000018001e5b8 f i libucrt:output.obj
 0001:0001d690       ?write_stored_string_tchar@?$output_processor@_WV?$stream_output_adapter@_W@__crt_stdio_output@@V?$standard_base@_WV?$stream_output_adapter@_W@__crt_stdio_output@@@2@@__crt_stdio_output@@AEAA_N_W@Z 000000018001e690 f i libucrt:output.obj
 0001:0001d77c       ?write_stored_string_tchar@?$output_processor@_WV?$string_output_adapter@_W@__crt_stdio_output@@V?$standard_base@_WV?$string_output_adapter@_W@__crt_stdio_output@@@2@@__crt_stdio_output@@AEAA_N_W@Z 000000018001e77c f i libucrt:output.obj
 0001:0001d86c       ?write_string@?$stream_output_adapter@_W@__crt_stdio_output@@QEBAXQEB_WHQEAH1@Z 000000018001e86c f i libucrt:output.obj
 0001:0001d978       ?write_string@?$string_output_adapter@D@__crt_stdio_output@@QEBAXQEBDHQEAH1@Z 000000018001e978 f i libucrt:output.obj
 0001:0001da34       ?write_string@?$string_output_adapter@_W@__crt_stdio_output@@QEBAXQEB_WHQEAH1@Z 000000018001ea34 f i libucrt:output.obj
 0001:0001daf4       __stdio_common_vfwprintf   000000018001eaf4 f   libucrt:output.obj
 0001:0001db80       __stdio_common_vsprintf    000000018001eb80 f   libucrt:output.obj
 0001:0001ddb4       __stdio_common_vswprintf   000000018001edb4 f   libucrt:output.obj
 0001:0001e0bc       fopen                      000000018001f0bc f   libucrt:fopen.obj
 0001:0001e0c8       _fclose_nolock             000000018001f0c8 f   libucrt:fclose.obj
 0001:0001e14c       fclose                     000000018001f14c f   libucrt:fclose.obj
 0001:0001e42c       fseek                      000000018001f42c f   libucrt:fseek.obj
 0001:0001e434       _fread_nolock_s            000000018001f434 f   libucrt:fread.obj
 0001:0001e6b4       fread                      000000018001f6b4 f   libucrt:fread.obj
 0001:0001e6d4       fread_s                    000000018001f6d4 f   libucrt:fread.obj
 0001:0001e77c       realloc                    000000018001f77c f   libucrt:realloc.obj
 0001:0001e784       __ascii_stricmp            000000018001f784 f   libucrt:stricmp.obj
 0001:0001e7c0       _stricmp                   000000018001f7c0 f   libucrt:stricmp.obj
 0001:0001e808       _stricmp_l                 000000018001f808 f   libucrt:stricmp.obj
 0001:0001e8bc       __acrt_initialize_locks    000000018001f8bc f   libucrt:locks.obj
 0001:0001e904       __acrt_lock                000000018001f904 f   libucrt:locks.obj
 0001:0001e920       __acrt_uninitialize_locks  000000018001f920 f   libucrt:locks.obj
 0001:0001e958       __acrt_unlock              000000018001f958 f   libucrt:locks.obj
 0001:0001e974       _calloc_base               000000018001f974 f   libucrt:calloc_base.obj
 0001:0001e9ec       __pctype_func              000000018001f9ec f   libucrt:ctype.obj
 0001:0001ea1c       isdigit                    000000018001fa1c f i libucrt:_ctype.obj
 0001:0001ea90       _malloc_base               000000018001fa90 f   libucrt:malloc_base.obj
 0001:0001eaf0       _realloc_base              000000018001faf0 f   libucrt:realloc_base.obj
 0001:0001eb74       __acrt_errno_from_os_error 000000018001fb74 f   libucrt:errno.obj
 0001:0001ebbc       __acrt_errno_map_os_error  000000018001fbbc f   libucrt:errno.obj
 0001:0001ec0c       __doserrno                 000000018001fc0c f   libucrt:errno.obj
 0001:0001ec2c       _errno                     000000018001fc2c f   libucrt:errno.obj
 0001:0001ec4c       ??$make_c_string_character_source@DPEAPEAD@__crt_strtox@@YA?AV?$c_string_character_source@D@0@QEBDQEAPEAD@Z 000000018001fc4c f i libucrt:strtod.obj
 0001:0001ec4c       ??$make_c_string_character_source@_WPEAPEA_W@__crt_strtox@@YA?AV?$c_string_character_source@_W@0@QEB_WQEAPEA_W@Z 000000018001fc4c f i libucrt:strtod.obj
 0001:0001ec60       ?divide@__crt_strtox@@YA_KAEAUbig_integer@1@AEBU21@@Z 000000018001fc60 f i libucrt:strtod.obj
 0001:0001f130       pow                        0000000180020130 f   libucrt:pow.obj
 0001:000207d0       powf                       00000001800217d0 f   libucrt:powf.obj
 0001:00021698       __strncnt                  0000000180022698 f   libucrt:strncnt.obj
 0001:000216b0       _free_base                 00000001800226b0 f   libucrt:free_base.obj
 0001:00021768       _ismbblead                 0000000180022768 f   libucrt:ismbbyte.obj
 0001:000217cc       _tolower_l                 00000001800227cc f   libucrt:tolower_toupper.obj
 0001:0002190c       tolower                    000000018002290c f   libucrt:tolower_toupper.obj
 0001:00021938       wcscpy_s                   0000000180022938 f   libucrt:wcscpy_s.obj
 0001:000219a0       strnlen                    00000001800229a0 f   libucrt:strnlen.obj
 0001:00021afc       wcsnlen                    0000000180022afc f   libucrt:strnlen.obj
 0001:00021cec       __acrt_initialize_new_handler 0000000180022cec f   libucrt:new_handler.obj
 0001:00021cf4       _callnewh                  0000000180022cf4 f   libucrt:new_handler.obj
 0001:00021d34       _query_new_handler         0000000180022d34 f   libucrt:new_handler.obj
 0001:00021d68       _seh_filter_dll            0000000180022d68 f   libucrt:exception_filter.obj
 0001:00021d7c       _seh_filter_exe            0000000180022d7c f   libucrt:exception_filter.obj
 0001:0002213c       __acrt_initialize_thread_local_exit_callback 000000018002313c f   libucrt:exit.obj
 0001:00022144       _cexit                     0000000180023144 f   libucrt:exit.obj
 0001:00022154       _exit                      0000000180023154 f   libucrt:exit.obj
 0001:00022160       _is_c_termination_complete 0000000180023160 f   libucrt:exit.obj
 0001:00022324       __acrt_allocate_buffer_for_argv 0000000180023324 f   libucrt:argv_parsing.obj
 0001:00022388       _configure_narrow_argv     0000000180023388 f   libucrt:argv_parsing.obj
 0001:000226e4       __dcrt_uninitialize_environments_nolock 00000001800236e4 f   libucrt:environment_initialization.obj
 0001:0002271c       _initialize_narrow_environment 000000018002371c f   libucrt:environment_initialization.obj
 0001:00022724       ??$?RV<lambda_b8c45f8f788dd370798f47cfe8ac3a86>@@AEAV<lambda_4e60a939b0d047cfe11ddc22648dfba9>@@V<lambda_332c3edc96d0294ec56c57d38c1cdfd5>@@@?$__crt_seh_guarded_call@H@@QEAAH$$QEAV<lambda_b8c45f8f788dd370798f47cfe8ac3a86>@@AEAV<lambda_4e60a939b0d047cfe11ddc22648dfba9>@@$$QEAV<lambda_332c3edc96d0294ec56c57d38c1cdfd5>@@@Z 0000000180023724 f i libucrt:onexit.obj
 0001:00022760       ??$?RV<lambda_e24bbb7b643b32fcea6fa61b31d4c984>@@AEAV<lambda_275893d493268fdec8709772e3fcec0e>@@V<lambda_9d71df4d7cf3f480f8d633942495c3b0>@@@?$__crt_seh_guarded_call@H@@QEAAH$$QEAV<lambda_e24bbb7b643b32fcea6fa61b31d4c984>@@AEAV<lambda_275893d493268fdec8709772e3fcec0e>@@$$QEAV<lambda_9d71df4d7cf3f480f8d633942495c3b0>@@@Z 0000000180023760 f i libucrt:onexit.obj
 0001:00022adc       _crt_atexit                0000000180023adc f   libucrt:onexit.obj
 0001:00022aec       _execute_onexit_table      0000000180023aec f   libucrt:onexit.obj
 0001:00022b28       _initialize_onexit_table   0000000180023b28 f   libucrt:onexit.obj
 0001:00022b68       _register_onexit_function  0000000180023b68 f   libucrt:onexit.obj
 0001:00022be8       __acrt_uninitialize_command_line 0000000180023be8 f   libucrt:argv_data.obj
 0001:00022ce8       __acrt_initialize          0000000180023ce8 f   libucrt:initialization.obj
 0001:00022cfc       __acrt_thread_attach       0000000180023cfc f   libucrt:initialization.obj
 0001:00022d10       __acrt_thread_detach       0000000180023d10 f   libucrt:initialization.obj
 0001:00022d20       __acrt_uninitialize        0000000180023d20 f   libucrt:initialization.obj
 0001:00022d34       __acrt_uninitialize_critical 0000000180023d34 f   libucrt:initialization.obj
 0001:00022d44       _initterm                  0000000180023d44 f   libucrt:initterm.obj
 0001:00022dbc       _initterm_e                0000000180023dbc f   libucrt:initterm.obj
 0001:00022e08       terminate                  0000000180023e08 f   libucrt:terminate.obj
 0001:00022e30       strdup                     0000000180023e30 f   libucrt:strdup.obj
 0001:00022e30       _strdup                    0000000180023e30 f   libucrt:strdup.obj
 0001:00022ea8       strcpy_s                   0000000180023ea8 f   libucrt:strcpy_s.obj
 0001:00022f08       ??$is_overflow_condition@K@__crt_strtox@@YA_NIK@Z 0000000180023f08 f i libucrt:atox.obj
 0001:00022f34       ??$parse_integer@KV?$c_string_character_source@D@__crt_strtox@@@__crt_strtox@@YAKQEAU__crt_locale_pointers@@V?$c_string_character_source@D@0@H_N@Z 0000000180023f34 f i libucrt:atox.obj
 0001:00023248       ??$parse_integer@KV?$c_string_character_source@_W@__crt_strtox@@@__crt_strtox@@YAKQEAU__crt_locale_pointers@@V?$c_string_character_source@_W@0@H_N@Z 0000000180024248 f i libucrt:atox.obj
 0001:0002391c       ??$?RV<lambda_c36588078e9f5dfd39652860aa6b3aaf>@@AEAV<lambda_ec61778202f4f5fc7e7711acc23c3bca>@@V<lambda_dc9d2797ccde5d239b4a0efae8ebd7db>@@@?$__crt_seh_guarded_call@P6AXH@Z@@QEAAP6AXH@Z$$QEAV<lambda_c36588078e9f5dfd39652860aa6b3aaf>@@AEAV<lambda_ec61778202f4f5fc7e7711acc23c3bca>@@$$QEAV<lambda_dc9d2797ccde5d239b4a0efae8ebd7db>@@@Z 000000018002491c f i libucrt:signal.obj
 0001:00023964       __acrt_get_sigabrt_handler 0000000180024964 f   libucrt:signal.obj
 0001:00023994       __acrt_initialize_signal_handlers 0000000180024994 f   libucrt:signal.obj
 0001:000239b4       raise                      00000001800249b4 f   libucrt:signal.obj
 0001:00023c50       ??$?RV<lambda_46352004c1216016012b18bd6f87e700>@@AEAV<lambda_3bd07e1a1191394380780325891bf33f>@@V<lambda_334532d3f185bcaa59b5be82d7d22bff>@@@?$__crt_seh_guarded_call@X@@QEAAX$$QEAV<lambda_46352004c1216016012b18bd6f87e700>@@AEAV<lambda_3bd07e1a1191394380780325891bf33f>@@$$QEAV<lambda_334532d3f185bcaa59b5be82d7d22bff>@@@Z 0000000180024c50 f i libucrt:per_thread_data.obj
 0001:00023cb0       ??$?RV<lambda_5e887d1dcbef67a5eb4283622ba103bf>@@AEAV<lambda_4466841279450cc726390878d4a41900>@@V<lambda_341c25c0346d94847f1f3c463c57e077>@@@?$__crt_seh_guarded_call@X@@QEAAX$$QEAV<lambda_5e887d1dcbef67a5eb4283622ba103bf>@@AEAV<lambda_4466841279450cc726390878d4a41900>@@$$QEAV<lambda_341c25c0346d94847f1f3c463c57e077>@@@Z 0000000180024cb0 f i libucrt:per_thread_data.obj
 0001:00023cf8       ??$?RV<lambda_72d1df2b273a38828b1ce30cbf4cdab5>@@AEAV<lambda_876a65b173b8412d3a47c70a915b0cf4>@@V<lambda_41932305e351933ebe8f8be3ed8bb5dc>@@@?$__crt_seh_guarded_call@X@@QEAAX$$QEAV<lambda_72d1df2b273a38828b1ce30cbf4cdab5>@@AEAV<lambda_876a65b173b8412d3a47c70a915b0cf4>@@$$QEAV<lambda_41932305e351933ebe8f8be3ed8bb5dc>@@@Z 0000000180024cf8 f i libucrt:per_thread_data.obj
 0001:00023d38       ??$?RV<lambda_fb3a7dec4e47f37f22dae91bb15c9095>@@AEAV<lambda_698284760c8add0bfb0756c19673e34b>@@V<lambda_dfb8eca1e75fef3034a8fb18dd509707>@@@?$__crt_seh_guarded_call@X@@QEAAX$$QEAV<lambda_fb3a7dec4e47f37f22dae91bb15c9095>@@AEAV<lambda_698284760c8add0bfb0756c19673e34b>@@$$QEAV<lambda_dfb8eca1e75fef3034a8fb18dd509707>@@@Z 0000000180024d38 f i libucrt:per_thread_data.obj
 0001:00023fc8       __acrt_freeptd             0000000180024fc8 f   libucrt:per_thread_data.obj
 0001:0002400c       __acrt_getptd              000000018002500c f   libucrt:per_thread_data.obj
 0001:000240a0       __acrt_getptd_noexit       00000001800250a0 f   libucrt:per_thread_data.obj
 0001:00024140       __acrt_initialize_ptd      0000000180025140 f   libucrt:per_thread_data.obj
 0001:0002417c       __acrt_uninitialize_ptd    000000018002517c f   libucrt:per_thread_data.obj
 0001:000241a0       _query_app_type            00000001800251a0 f   libucrt:report_runtime_error.obj
 0001:000242d0       _itow_s                    00000001800252d0 f   libucrt:xtoa.obj
 0001:000242f0       _set_error_mode            00000001800252f0 f   libucrt:set_error_mode.obj
 0001:00024330       wcscat_s                   0000000180025330 f   libucrt:wcscat_s.obj
 0001:000243b0       wcsncat_s                  00000001800253b0 f   libucrt:wcsncat_s.obj
 0001:000244d8       __acrt_show_wide_message_box 00000001800254d8 f   libucrt:crtmbox.obj
 0001:000245f4       __acrt_stdio_flush_nolock  00000001800255f4 f   libucrt:fflush.obj
 0001:0002466c       _fflush_nolock             000000018002566c f   libucrt:fflush.obj
 0001:000246b8       _flushall                  00000001800256b8 f   libucrt:fflush.obj
 0001:000247a8       fflush                     00000001800257a8 f   libucrt:fflush.obj
 0001:000247ec       ??$?RV<lambda_7a5ef57ff966f610505f1d28a3d40618>@@AEAV<lambda_b721fa326cdb32351d23dfa67958c160>@@V<lambda_5e0fb27672408a07956fe59e48ccb2aa>@@@?$__crt_seh_guarded_call@H@@QEAAH$$QEAV<lambda_7a5ef57ff966f610505f1d28a3d40618>@@AEAV<lambda_b721fa326cdb32351d23dfa67958c160>@@$$QEAV<lambda_5e0fb27672408a07956fe59e48ccb2aa>@@@Z 00000001800257ec f i libucrt:setvbuf.obj
 0001:0002491c       setvbuf                    000000018002591c f   libucrt:setvbuf.obj
 0001:00024ae0       _handle_error              0000000180025ae0 f   libucrt:libm_error.obj
 0001:00024c08       _handle_errorf             0000000180025c08 f   libucrt:libm_error.obj
 0001:00024d3c       _handle_nan                0000000180025d3c f   libucrt:libm_error.obj
 0001:00024d58       _handle_nanf               0000000180025d58 f   libucrt:libm_error.obj
 0001:00024f08       __acrt_AreFileApisANSI     0000000180025f08 f   libucrt:winapi_thunks.obj
 0001:00024f54       __acrt_FlsAlloc            0000000180025f54 f   libucrt:winapi_thunks.obj
 0001:00024fac       __acrt_FlsFree             0000000180025fac f   libucrt:winapi_thunks.obj
 0001:00025004       __acrt_FlsGetValue         0000000180026004 f   libucrt:winapi_thunks.obj
 0001:0002505c       __acrt_FlsSetValue         000000018002605c f   libucrt:winapi_thunks.obj
 0001:000250c4       __acrt_InitializeCriticalSectionEx 00000001800260c4 f   libucrt:winapi_thunks.obj
 0001:0002513c       __acrt_LCMapStringEx       000000018002613c f   libucrt:winapi_thunks.obj
 0001:0002522c       __acrt_LocaleNameToLCID    000000018002622c f   libucrt:winapi_thunks.obj
 0001:00025294       __acrt_MessageBoxW         0000000180026294 f   libucrt:winapi_thunks.obj
 0001:0002531c       __acrt_can_show_message_box 000000018002631c f   libucrt:winapi_thunks.obj
 0001:00025378       __acrt_get_parent_window   0000000180026378 f   libucrt:winapi_thunks.obj
 0001:00025408       __acrt_initialize_winapi_thunks 0000000180026408 f   libucrt:winapi_thunks.obj
 0001:00025440       __acrt_is_interactive      0000000180026440 f   libucrt:winapi_thunks.obj
 0001:00025514       __acrt_is_packaged_app     0000000180026514 f   libucrt:winapi_thunks.obj
 0001:0002559c       __acrt_uninitialize_winapi_thunks 000000018002659c f   libucrt:winapi_thunks.obj
 0001:000255e0       _fcloseall                 00000001800265e0 f   libucrt:closeall.obj
 0001:00025694       __acrt_stdio_free_buffer_nolock 0000000180026694 f   libucrt:_freebuf.obj
 0001:000258bc       __acrt_initialize_lowio    00000001800268bc f   libucrt:ioinit.obj
 0001:000258f8       __acrt_uninitialize_lowio  00000001800268f8 f   libucrt:ioinit.obj
 0001:00025938       strtol                     0000000180026938 f   libucrt:strtox.obj
 0001:00025968       wcstol                     0000000180026968 f   libucrt:strtox.obj
 0001:00025998       _mbtowc_l                  0000000180026998 f   libucrt:mbtowc.obj
 0001:00025ae0       mbtowc                     0000000180026ae0 f   libucrt:mbtowc.obj
 0001:00025ae8       _wctomb_s_l                0000000180026ae8 f   libucrt:wctomb.obj
 0001:00025c6c       wctomb_s                   0000000180026c6c f   libucrt:wctomb.obj
 0001:00025c80       __acrt_update_locale_info  0000000180026c80 f   libucrt:locale_update.obj
 0001:00025cb4       __acrt_update_multibyte_info 0000000180026cb4 f   libucrt:locale_update.obj
 0001:00025ce8       ?__acrt_fp_classify@@YA?AW4__acrt_fp_class@@AEBN@Z 0000000180026ce8 f i libucrt:cvt.obj
 0001:00026720       __acrt_fp_format           0000000180027720 f   libucrt:cvt.obj
 0001:00026964       _fputwc_nolock             0000000180027964 f   libucrt:fputwc.obj
 0001:00026ae0       _fileno                    0000000180027ae0 f   libucrt:fileno.obj
 0001:00026b08       _fputc_nolock              0000000180027b08 f   libucrt:fputc.obj
 0001:00026b20       _get_printf_count_output   0000000180027b20 f   libucrt:printf_count_output.obj
 0001:00026b38       __acrt_stdio_begin_temporary_buffering_nolock 0000000180027b38 f   libucrt:_sftbuf.obj
 0001:00026c08       __acrt_stdio_end_temporary_buffering_nolock 0000000180027c08 f   libucrt:_sftbuf.obj
 0001:00026c44       __acrt_set_locale_changed  0000000180027c44 f   libucrt:wsetlocale.obj
 0001:00026c50       __acrt_uninitialize_locale 0000000180027c50 f   libucrt:wsetlocale.obj
 0001:00026c98       ?__acrt_stdio_allocate_stream@@YA?AV__crt_stdio_stream@@XZ 0000000180027c98 f   libucrt:stream.obj
 0001:00026cf4       ?__acrt_stdio_free_stream@@YAXV__crt_stdio_stream@@@Z 0000000180027cf4 f   libucrt:stream.obj
 0001:00026e24       ??$__acrt_stdio_parse_mode@D@@YA?AU__acrt_stdio_stream_mode@@QEBD@Z 0000000180027e24 f i libucrt:openfile.obj
 0001:000270c0       _openfile                  00000001800280c0 f   libucrt:openfile.obj
 0001:0002715c       ??$?RV<lambda_bfedae4ebbf01fab1bb6dcc6a9e276e0>@@AEAV<lambda_2fe9b910cf3cbf4a0ab98a02ba45b3ec>@@V<lambda_237c231691f317818eb88cc1d5d642d6>@@@?$__crt_seh_guarded_call@H@@QEAAH$$QEAV<lambda_bfedae4ebbf01fab1bb6dcc6a9e276e0>@@AEAV<lambda_2fe9b910cf3cbf4a0ab98a02ba45b3ec>@@$$QEAV<lambda_237c231691f317818eb88cc1d5d642d6>@@@Z 000000018002815c f i libucrt:close.obj
 0001:000271d0       _close                     00000001800281d0 f   libucrt:close.obj
 0001:00027274       _close_nolock              0000000180028274 f   libucrt:close.obj
 0001:00027798       _ftelli64_nolock           0000000180028798 f   libucrt:ftell.obj
 0001:0002792c       _lseeki64                  000000018002892c f   libucrt:lseek.obj
 0001:00027934       _lseeki64_nolock           0000000180028934 f   libucrt:lseek.obj
 0001:00027e6c       _read                      0000000180028e6c f   libucrt:read.obj
 0001:00027f84       _read_nolock               0000000180028f84 f   libucrt:read.obj
 0001:00028594       __acrt_stdio_refill_and_read_narrow_nolock 0000000180029594 f   libucrt:_filbuf.obj
 0001:0002859c       _query_new_mode            000000018002959c f   libucrt:new_mode.obj
 0001:000285a4       __acrt_initialize_heap     00000001800295a4 f   libucrt:heap_handle.obj
 0001:000285c0       __acrt_uninitialize_heap   00000001800295c0 f   libucrt:heap_handle.obj
 0001:000285cc       _isctype_l                 00000001800295cc f   libucrt:isctype.obj
 0001:000286dc       __acrt_GetStringTypeA      00000001800296dc f   libucrt:getstringtypea.obj
 0001:00028bec       __acrt_LCMapStringA        0000000180029bec f   libucrt:lcmapstringa.obj
 0001:00028c84       iswctype                   0000000180029c84 f   libucrt:iswctype.obj
 0001:00028cf4       _raise_exc                 0000000180029cf4 f   libucrt:fpexcept.obj
 0001:00028d1c       _raise_exc_ex              0000000180029d1c f   libucrt:fpexcept.obj
 0001:00029024       _raise_excf                000000018002a024 f   libucrt:fpexcept.obj
 0001:00029050       _set_errno_from_matherr    000000018002a050 f   libucrt:fpexcept.obj
 0001:00029080       _clrfp                     000000018002a080 f   libucrt:fpctrl.obj
 0001:000290a0       _ctrlfp                    000000018002a0a0 f   libucrt:fpctrl.obj
 0001:0002911c       _set_statfp                000000018002a11c f   libucrt:fpctrl.obj
 0001:0002913c       _statfp                    000000018002a13c f   libucrt:fpctrl.obj
 0001:00029150       __acrt_initialize_fma3     000000018002a150 f   libucrt:fma3_available.obj
 0001:000291c0       _pow_special               000000018002a1c0 f   libucrt:pow_special.obj
 0001:000292e4       _powf_special              000000018002a2e4 f   libucrt:pow_special.obj
 0001:00029470       __acrt_initialize_timeset  000000018002a470 f   libucrt:timeset.obj
 0001:000294a0       _isleadbyte_l              000000018002a4a0 f i libucrt:_wctype.obj
 0001:000299bc       ?expand_if_necessary@?$argument_list@D@?A0xca0879c4@@AEAAHXZ 000000018002a9bc f i libucrt:argv_wildcards.obj
 0001:00029a84       __acrt_expand_narrow_argv_wildcards 000000018002aa84 f   libucrt:argv_wildcards.obj
 0001:00029a8c       ??$?RV<lambda_99476a1ad63dd22509b5d3e65b0ffc95>@@AEAV<lambda_ad1ced32f4ac17aa236e5ef05d6b3b7c>@@V<lambda_f7424dd8d45958661754dc4f2697e9c3>@@@?$__crt_seh_guarded_call@X@@QEAAX$$QEAV<lambda_99476a1ad63dd22509b5d3e65b0ffc95>@@AEAV<lambda_ad1ced32f4ac17aa236e5ef05d6b3b7c>@@$$QEAV<lambda_f7424dd8d45958661754dc4f2697e9c3>@@@Z 000000018002aa8c f i libucrt:mbctype.obj
 0001:0002a188       __acrt_initialize_multibyte 000000018002b188 f   libucrt:mbctype.obj
 0001:0002a1b0       __acrt_update_thread_multibyte_data 000000018002b1b0 f   libucrt:mbctype.obj
 0001:0002a270       _setmbcp_nolock            000000018002b270 f   libucrt:mbctype.obj
 0001:0002a518       __acrt_initialize_command_line 000000018002b518 f   libucrt:argv_data.obj
 0001:0002a540       __dcrt_get_narrow_environment_from_os 000000018002b540 f   libucrt:get_environment_from_os.obj
 0001:0002a644       _recalloc                  000000018002b644 f   libucrt:recalloc.obj
 0001:0002a64c       _recalloc_base             000000018002b64c f   libucrt:recalloc.obj
 0001:0002a6e4       __acrt_execute_initializers 000000018002b6e4 f   libucrt:shared_initialization.obj
 0001:0002a778       __acrt_execute_uninitializers 000000018002b778 f   libucrt:shared_initialization.obj
 0001:0002a7c8       __acrt_has_user_matherr    000000018002b7c8 f   libucrt:matherr.obj
 0001:0002a7e8       __acrt_initialize_user_matherr 000000018002b7e8 f   libucrt:matherr.obj
 0001:0002a7f0       __acrt_invoke_user_matherr 000000018002b7f0 f   libucrt:matherr.obj
 0001:0002a838       __acrt_add_locale_ref      000000018002b838 f   libucrt:locale_refcounting.obj
 0001:0002a8c4       __acrt_free_locale         000000018002b8c4 f   libucrt:locale_refcounting.obj
 0001:0002aa3c       __acrt_locale_add_lc_time_reference 000000018002ba3c f   libucrt:locale_refcounting.obj
 0001:0002aa64       __acrt_locale_free_lc_time_if_unreferenced 000000018002ba64 f   libucrt:locale_refcounting.obj
 0001:0002aa9c       __acrt_locale_release_lc_time_reference 000000018002ba9c f   libucrt:locale_refcounting.obj
 0001:0002aac4       __acrt_release_locale_ref  000000018002bac4 f   libucrt:locale_refcounting.obj
 0001:0002ab6c       __acrt_update_thread_locale_data 000000018002bb6c f   libucrt:locale_refcounting.obj
 0001:0002abdc       _updatetlocinfoEx_nolock   000000018002bbdc f   libucrt:locale_refcounting.obj
 0001:0002ac44       ??$?RV<lambda_b521505b218e5242e90febf6bfebc422>@@AEAV<lambda_6978c1fb23f02e42e1d9e99668cc68aa>@@V<lambda_314360699dd331753a4119843814e9a7>@@@?$__crt_seh_guarded_call@H@@QEAAH$$QEAV<lambda_b521505b218e5242e90febf6bfebc422>@@AEAV<lambda_6978c1fb23f02e42e1d9e99668cc68aa>@@$$QEAV<lambda_314360699dd331753a4119843814e9a7>@@@Z 000000018002bc44 f i libucrt:commit.obj
 0001:0002acd0       _commit                    000000018002bcd0 f   libucrt:commit.obj
 0001:0002b304       _write                     000000018002c304 f   libucrt:write.obj
 0001:0002b3f0       _write_nolock              000000018002c3f0 f   libucrt:write.obj
 0001:0002b79c       __acrt_DownlevelLocaleNameToLCID 000000018002c79c f   libucrt:lcidtoname_downlevel.obj
 0001:0002b7d0       __acrt_lowio_create_handle_array 000000018002c7d0 f   libucrt:osfinfo.obj
 0001:0002b868       __acrt_lowio_destroy_handle_array 000000018002c868 f   libucrt:osfinfo.obj
 0001:0002b8b8       __acrt_lowio_ensure_fh_exists 000000018002c8b8 f   libucrt:osfinfo.obj
 0001:0002b970       __acrt_lowio_lock_fh       000000018002c970 f   libucrt:osfinfo.obj
 0001:0002b994       __acrt_lowio_set_os_handle 000000018002c994 f   libucrt:osfinfo.obj
 0001:0002ba54       __acrt_lowio_unlock_fh     000000018002ca54 f   libucrt:osfinfo.obj
 0001:0002ba78       _alloc_osfhnd              000000018002ca78 f   libucrt:osfinfo.obj
 0001:0002bba8       _free_osfhnd               000000018002cba8 f   libucrt:osfinfo.obj
 0001:0002bc64       _get_osfhandle             000000018002cc64 f   libucrt:osfinfo.obj
 0001:0002bcdc       __acrt_fp_strflt_to_string 000000018002ccdc f   libucrt:_fptostr.obj
 0001:0002bd9c       __acrt_fltout              000000018002cd9c f   libucrt:cfout.obj
 0001:0002d3a0       __acrt_stdio_flush_and_write_narrow_nolock 000000018002e3a0 f   libucrt:_flsbuf.obj
 0001:0002d488       __acrt_stdio_flush_and_write_wide_nolock 000000018002e488 f   libucrt:_flsbuf.obj
 0001:0002d574       _isatty                    000000018002e574 f   libucrt:isatty.obj
 0001:0002d5d4       __acrt_locale_free_monetary 000000018002e5d4 f   libucrt:initmon.obj
 0001:0002d6e0       __acrt_locale_free_numeric 000000018002e6e0 f   libucrt:initnum.obj
 0001:0002d7a4       __acrt_locale_free_time    000000018002e7a4 f   libucrt:inittime.obj
 0001:0002d8c0       strncmp                    000000018002e8c0 f   libucrt:strncmp.obj
 0001:0002d940       __ascii_strnicmp           000000018002e940 f   libucrt:strnicmp.obj
 0001:0002d988       _strnicmp                  000000018002e988 f   libucrt:strnicmp.obj
 0001:0002d9d8       _strnicmp_l                000000018002e9d8 f   libucrt:strnicmp.obj
 0001:0002e0f8       _sopen_nolock              000000018002f0f8 f   libucrt:open.obj
 0001:0002e188       _sopen_s                   000000018002f188 f   libucrt:open.obj
 0001:0002e1bc       _wsopen_nolock             000000018002f1bc f   libucrt:open.obj
 0001:0002e5ac       __acrt_stdio_allocate_buffer_nolock 000000018002f5ac f   libucrt:_getbuf.obj
 0001:0002e610       strncpy_s                  000000018002f610 f   libucrt:strncpy_s.obj
 0001:0002e6e4       _getfpcontrolword          000000018002f6e4 f   libucrt:_fenvutils.obj
 0001:0002e6fc       _getfpstatusword           000000018002f6fc f   libucrt:_fenvutils.obj
 0001:0002e710       _setfpcontrolword          000000018002f710 f   libucrt:_fenvutils.obj
 0001:0002e71c       _setfpstatusword           000000018002f71c f   libucrt:_fenvutils.obj
 0001:0002e780       _get_fpsr                  000000018002f780 f   libucrt:fpsr.obj
 0001:0002e790       _set_fpsr                  000000018002f790 f   libucrt:fpsr.obj
 0001:0002e79a       _fclrf                     000000018002f79a f   libucrt:fpsr.obj
 0001:0002e7ae       _frnd                      000000018002f7ae f   libucrt:fpsr.obj
 0001:0002e8a0       qsort                      000000018002f8a0 f   libucrt:qsort.obj
 0001:0002ebd4       strpbrk                    000000018002fbd4 f   libucrt:strpbrk.obj
 0001:0002ec74       _mbsdec                    000000018002fc74 f   libucrt:mbsdec.obj
 0001:0002ec7c       _mbsdec_l                  000000018002fc7c f   libucrt:mbsdec.obj
 0001:0002ed2c       _msize                     000000018002fd2c f   libucrt:msize.obj
 0001:0002ed68       _putwch_nolock             000000018002fd68 f   libucrt:putwch.obj
 0001:0002edc4       fegetenv                   000000018002fdc4 f   libucrt:fegetenv.obj
 0001:0002ede4       fesetenv                   000000018002fde4 f   libucrt:fesetenv.obj
 0001:0002ee30       feholdexcept               000000018002fe30 f   libucrt:feholdexcept.obj
 0001:0002ee80       ceil                       000000018002fe80 f   libucrt:ceil.obj
 0001:0002ef50       log10                      000000018002ff50 f   libucrt:log10.obj
 0001:0002f4fc       _get_fmode                 00000001800304fc f   libucrt:setmode.obj
 0001:0002f52c       _setmode_nolock            000000018003052c f   libucrt:setmode.obj
 0001:0002f60c       __acrt_copy_path_to_wide_string 000000018003060c f   libucrt:string_utilities.obj
 0001:0002f704       _chsize_nolock             0000000180030704 f   libucrt:chsize.obj
 0001:0002f880       _clearfp                   0000000180030880 f   libucrt:ieee.obj
 0001:0002f8d4       _controlfp                 00000001800308d4 f   libucrt:ieee.obj
 0001:0002f8e0       _statusfp                  00000001800308e0 f   libucrt:ieee.obj
 0001:0002fbc0       __dcrt_lowio_initialize_console_output 0000000180030bc0 f   libucrt:initcon.obj
 0001:0002fbfc       __dcrt_terminate_console_output 0000000180030bfc f   libucrt:initcon.obj
 0001:0002fc20       _log10_special             0000000180030c20 f   libucrt:log_special.obj
 0001:0002fcd6       IsProcessorFeaturePresent  0000000180030cd6 f   kernel32:KERNEL32.dll
 0001:0002fcdc       RtlUnwindEx                0000000180030cdc f   kernel32:KERNEL32.dll
 0001:0002fce4       ?DloadAcquireSectionWriteAccess@@YAXXZ 0000000180030ce4 f i DelayImp:delayhlp.obj
 0001:0002fda0       ?DloadGetSRWLockFunctionPointers@@YAEXZ 0000000180030da0 f i DelayImp:delayhlp.obj
 0001:0002fe3c       ?DloadMakePermanentImageCommit@@YAXPEAX_K@Z 0000000180030e3c f i DelayImp:delayhlp.obj
 0001:0002fed4       ?DloadObtainSection@@YAPEAXPEAK0@Z 0000000180030ed4 f i DelayImp:delayhlp.obj
 0001:0002ff6c       ?DloadProtectSection@@YAXKPEAK@Z 0000000180030f6c f i DelayImp:delayhlp.obj
 0001:0002fffc       ?DloadReleaseSectionWriteAccess@@YAXXZ 0000000180030ffc f i DelayImp:delayhlp.obj
 0001:000300a0       __delayLoadHelper2         00000001800310a0 f   DelayImp:delayhlp.obj
 0001:000303a0       _FindPESection             00000001800313a0 f   LIBCMT:pesect.obj
 0001:000303f0       _IsNonwritableInCurrentImage 00000001800313f0 f   LIBCMT:pesect.obj
 0001:00030440       _ValidateImageBase         0000000180031440 f   LIBCMT:pesect.obj
 0001:00030470       strrchr                    0000000180031470 f   libvcruntime:strrchr.obj
 0001:000305b0       acos                       00000001800315b0 f   libucrt:acos.obj
 0001:00030870       acosf                      0000000180031870 f   libucrt:acosf.obj
 0001:00030ae0       floor                      0000000180031ae0 f   libucrt:floor.obj
 0001:00030b90       fmodf                      0000000180031b90 f   libucrt:fmodf.obj
 0001:00030dd4       sqrtf                      0000000180031dd4 f   libucrt:sqrtf.obj
 0001:00030e90       strcmp                     0000000180031e90 f   libucrt:strcmp.obj
 0001:00030f00       tan                        0000000180031f00 f   libucrt:tan.obj
 0001:0003173c       _tan_special               000000018003273c f   libucrt:sincos_special.obj
 0001:00031750       __remainder_piby2_fma3     0000000180032750 f   libucrt:remainder_piby2_forfma3.obj
 0001:00031940       __remainder_piby2_fma3_bdl 0000000180032940 f   libucrt:remainder_piby2_forfma3.obj
 0001:000319c0       __remainder_piby2_forAsm   00000001800329c0 f   libucrt:remainder_piby2_forasm.obj
 0001:00031bd0       __remainder_piby2_cw_forAsm 0000000180032bd0 f   libucrt:remainder_piby2_forasm.obj
 0001:00031d20       _guard_dispatch_icall_nop  0000000180032d20 f   LIBCMT:_guard_dispatch_.obj
 0001:00031d40       __longjmp_internal         0000000180032d40 f   libvcruntime:_longjmp_.obj
 0001:00031e40       __intrinsic_setjmp         0000000180032e40 f   libvcruntime:_setjmp_.obj
 0001:00031e40       _setjmp                    0000000180032e40 f   libvcruntime:_setjmp_.obj
 0001:00031ee0       setjmp                     0000000180032ee0 f   libvcruntime:_setjmp_.obj
 0002:00000000       __imp_AddFontResourceExA   0000000180034000     gdi32:GDI32.dll
 0002:00000008       \177GDI32_NULL_THUNK_DATA  0000000180034008     gdi32:GDI32.dll
 0002:00000010       __imp_GetModuleHandleA     0000000180034010     kernel32:KERNEL32.dll
 0002:00000018       __imp_VirtualQuery         0000000180034018     kernel32:KERNEL32.dll
 0002:00000020       __imp_VirtualProtect       0000000180034020     kernel32:KERNEL32.dll
 0002:00000028       __imp_GetSystemInfo        0000000180034028     kernel32:KERNEL32.dll
 0002:00000030       __imp_SetEndOfFile         0000000180034030     kernel32:KERNEL32.dll
 0002:00000038       __imp_HeapSize             0000000180034038     kernel32:KERNEL32.dll
 0002:00000040       __imp_CreateFileW          0000000180034040     kernel32:KERNEL32.dll
 0002:00000048       __imp_SetStdHandle         0000000180034048     kernel32:KERNEL32.dll
 0002:00000050       __imp_GetConsoleCP         0000000180034050     kernel32:KERNEL32.dll
 0002:00000058       __imp_FlushFileBuffers     0000000180034058     kernel32:KERNEL32.dll
 0002:00000060       __imp_FreeEnvironmentStringsW 0000000180034060     kernel32:KERNEL32.dll
 0002:00000068       __imp_GetEnvironmentStringsW 0000000180034068     kernel32:KERNEL32.dll
 0002:00000070       __imp_GetCommandLineW      0000000180034070     kernel32:KERNEL32.dll
 0002:00000078       __imp_GetCommandLineA      0000000180034078     kernel32:KERNEL32.dll
 0002:00000080       __imp_GetOEMCP             0000000180034080     kernel32:KERNEL32.dll
 0002:00000088       __imp_IsValidCodePage      0000000180034088     kernel32:KERNEL32.dll
 0002:00000090       __imp_FindNextFileA        0000000180034090     kernel32:KERNEL32.dll
 0002:00000098       __imp_FindFirstFileExA     0000000180034098     kernel32:KERNEL32.dll
 0002:000000a0       __imp_FindClose            00000001800340a0     kernel32:KERNEL32.dll
 0002:000000a8       __imp_GetProcessHeap       00000001800340a8     kernel32:KERNEL32.dll
 0002:000000b0       __imp_ReadConsoleW         00000001800340b0     kernel32:KERNEL32.dll
 0002:000000b8       __imp_GetConsoleMode       00000001800340b8     kernel32:KERNEL32.dll
 0002:000000c0       __imp_SetFilePointerEx     00000001800340c0     kernel32:KERNEL32.dll
 0002:000000c8       __imp_ReadFile             00000001800340c8     kernel32:KERNEL32.dll
 0002:000000d0       __imp_GetACP               00000001800340d0     kernel32:KERNEL32.dll
 0002:000000d8       __imp_CreateThread         00000001800340d8     kernel32:KERNEL32.dll
 0002:000000e0       __imp_OutputDebugStringW   00000001800340e0     kernel32:KERNEL32.dll
 0002:000000e8       __imp_WriteFile            00000001800340e8     kernel32:KERNEL32.dll
 0002:000000f0       __imp_ExitProcess          00000001800340f0     kernel32:KERNEL32.dll
 0002:000000f8       __imp_HeapFree             00000001800340f8     kernel32:KERNEL32.dll
 0002:00000100       __imp_HeapReAlloc          0000000180034100     kernel32:KERNEL32.dll
 0002:00000108       __imp_HeapAlloc            0000000180034108     kernel32:KERNEL32.dll
 0002:00000110       __imp_WriteConsoleW        0000000180034110     kernel32:KERNEL32.dll
 0002:00000118       __imp_GetModuleHandleExW   0000000180034118     kernel32:KERNEL32.dll
 0002:00000120       __imp_GetModuleFileNameW   0000000180034120     kernel32:KERNEL32.dll
 0002:00000128       __imp_GetModuleFileNameA   0000000180034128     kernel32:KERNEL32.dll
 0002:00000130       __imp_GetFileType          0000000180034130     kernel32:KERNEL32.dll
 0002:00000138       __imp_GetStdHandle         0000000180034138     kernel32:KERNEL32.dll
 0002:00000140       __imp_InterlockedFlushSList 0000000180034140     kernel32:KERNEL32.dll
 0002:00000148       __imp_LoadLibraryExW       0000000180034148     kernel32:KERNEL32.dll
 0002:00000150       __imp_FreeLibrary          0000000180034150     kernel32:KERNEL32.dll
 0002:00000158       __imp_GetLastError         0000000180034158     kernel32:KERNEL32.dll
 0002:00000160       __imp_RtlUnwindEx          0000000180034160     kernel32:KERNEL32.dll
 0002:00000168       __imp_RaiseException       0000000180034168     kernel32:KERNEL32.dll
 0002:00000170       __imp_RtlPcToFileHeader    0000000180034170     kernel32:KERNEL32.dll
 0002:00000178       __imp_InitializeSListHead  0000000180034178     kernel32:KERNEL32.dll
 0002:00000180       __imp_GetCurrentThreadId   0000000180034180     kernel32:KERNEL32.dll
 0002:00000188       __imp_GetCurrentProcessId  0000000180034188     kernel32:KERNEL32.dll
 0002:00000190       __imp_QueryPerformanceCounter 0000000180034190     kernel32:KERNEL32.dll
 0002:00000198       __imp_GetStartupInfoW      0000000180034198     kernel32:KERNEL32.dll
 0002:000001a0       __imp_IsDebuggerPresent    00000001800341a0     kernel32:KERNEL32.dll
 0002:000001a8       __imp_IsProcessorFeaturePresent 00000001800341a8     kernel32:KERNEL32.dll
 0002:000001b0       __imp_TerminateProcess     00000001800341b0     kernel32:KERNEL32.dll
 0002:000001b8       __imp_GetCurrentProcess    00000001800341b8     kernel32:KERNEL32.dll
 0002:000001c0       __imp_SetUnhandledExceptionFilter 00000001800341c0     kernel32:KERNEL32.dll
 0002:000001c8       __imp_UnhandledExceptionFilter 00000001800341c8     kernel32:KERNEL32.dll
 0002:000001d0       __imp_RtlVirtualUnwind     00000001800341d0     kernel32:KERNEL32.dll
 0002:000001d8       __imp_RtlLookupFunctionEntry 00000001800341d8     kernel32:KERNEL32.dll
 0002:000001e0       __imp_RtlCaptureContext    00000001800341e0     kernel32:KERNEL32.dll
 0002:000001e8       __imp_WaitForSingleObjectEx 00000001800341e8     kernel32:KERNEL32.dll
 0002:000001f0       __imp_CloseHandle          00000001800341f0     kernel32:KERNEL32.dll
 0002:000001f8       __imp_GetCPInfo            00000001800341f8     kernel32:KERNEL32.dll
 0002:00000200       __imp_GetStringTypeW       0000000180034200     kernel32:KERNEL32.dll
 0002:00000208       __imp_LCMapStringW         0000000180034208     kernel32:KERNEL32.dll
 0002:00000210       __imp_GetProcAddress       0000000180034210     kernel32:KERNEL32.dll
 0002:00000218       __imp_GetModuleHandleW     0000000180034218     kernel32:KERNEL32.dll
 0002:00000220       __imp_GetSystemTimeAsFileTime 0000000180034220     kernel32:KERNEL32.dll
 0002:00000228       __imp_TlsFree              0000000180034228     kernel32:KERNEL32.dll
 0002:00000230       __imp_TlsSetValue          0000000180034230     kernel32:KERNEL32.dll
 0002:00000238       __imp_TlsGetValue          0000000180034238     kernel32:KERNEL32.dll
 0002:00000240       __imp_TlsAlloc             0000000180034240     kernel32:KERNEL32.dll
 0002:00000248       __imp_CreateEventW         0000000180034248     kernel32:KERNEL32.dll
 0002:00000250       __imp_InitializeCriticalSectionAndSpinCount 0000000180034250     kernel32:KERNEL32.dll
 0002:00000258       __imp_SetLastError         0000000180034258     kernel32:KERNEL32.dll
 0002:00000260       __imp_MultiByteToWideChar  0000000180034260     kernel32:KERNEL32.dll
 0002:00000268       __imp_DecodePointer        0000000180034268     kernel32:KERNEL32.dll
 0002:00000270       __imp_EncodePointer        0000000180034270     kernel32:KERNEL32.dll
 0002:00000278       __imp_DeleteCriticalSection 0000000180034278     kernel32:KERNEL32.dll
 0002:00000280       __imp_LeaveCriticalSection 0000000180034280     kernel32:KERNEL32.dll
 0002:00000288       __imp_EnterCriticalSection 0000000180034288     kernel32:KERNEL32.dll
 0002:00000290       __imp_WideCharToMultiByte  0000000180034290     kernel32:KERNEL32.dll
 0002:00000298       __imp_LoadLibraryExA       0000000180034298     kernel32:KERNEL32.dll
 0002:000002a0       \177KERNEL32_NULL_THUNK_DATA 00000001800342a0     kernel32:KERNEL32.dll
 0002:000002a8       __imp_cairo_image_surface_create_from_png_stream 00000001800342a8     cairo:libcairo-2.dll
 0002:000002b0       __imp_cairo_surface_destroy 00000001800342b0     cairo:libcairo-2.dll
 0002:000002b8       __imp_cairo_image_surface_get_height 00000001800342b8     cairo:libcairo-2.dll
 0002:000002c0       __imp_cairo_image_surface_create 00000001800342c0     cairo:libcairo-2.dll
 0002:000002c8       __imp_cairo_image_surface_get_width 00000001800342c8     cairo:libcairo-2.dll
 0002:000002d0       __imp_cairo_surface_finish 00000001800342d0     cairo:libcairo-2.dll
 0002:000002d8       __imp_cairo_pdf_surface_set_size 00000001800342d8     cairo:libcairo-2.dll
 0002:000002e0       __imp_cairo_pdf_surface_create_for_stream 00000001800342e0     cairo:libcairo-2.dll
 0002:000002e8       __imp_cairo_svg_surface_create_for_stream 00000001800342e8     cairo:libcairo-2.dll
 0002:000002f0       __imp_cairo_image_surface_get_stride 00000001800342f0     cairo:libcairo-2.dll
 0002:000002f8       __imp_cairo_image_surface_get_format 00000001800342f8     cairo:libcairo-2.dll
 0002:00000300       __imp_cairo_destroy        0000000180034300     cairo:libcairo-2.dll
 0002:00000308       __imp_cairo_image_surface_get_data 0000000180034308     cairo:libcairo-2.dll
 0002:00000310       __imp_cairo_status_to_string 0000000180034310     cairo:libcairo-2.dll
 0002:00000318       __imp_cairo_surface_flush  0000000180034318     cairo:libcairo-2.dll
 0002:00000320       __imp_cairo_surface_status 0000000180034320     cairo:libcairo-2.dll
 0002:00000328       __imp_cairo_create         0000000180034328     cairo:libcairo-2.dll
 0002:00000330       __imp_cairo_set_line_join  0000000180034330     cairo:libcairo-2.dll
 0002:00000338       __imp_cairo_pattern_get_filter 0000000180034338     cairo:libcairo-2.dll
 0002:00000340       __imp_cairo_set_source_surface 0000000180034340     cairo:libcairo-2.dll
 0002:00000348       __imp_cairo_fill           0000000180034348     cairo:libcairo-2.dll
 0002:00000350       __imp_cairo_set_line_cap   0000000180034350     cairo:libcairo-2.dll
 0002:00000358       __imp_cairo_get_source     0000000180034358     cairo:libcairo-2.dll
 0002:00000360       __imp_cairo_mask_surface   0000000180034360     cairo:libcairo-2.dll
 0002:00000368       __imp_cairo_pattern_set_filter 0000000180034368     cairo:libcairo-2.dll
 0002:00000370       __imp_cairo_fill_extents   0000000180034370     cairo:libcairo-2.dll
 0002:00000378       __imp_cairo_show_page      0000000180034378     cairo:libcairo-2.dll
 0002:00000380       __imp_cairo_restore        0000000180034380     cairo:libcairo-2.dll
 0002:00000388       __imp_cairo_line_to        0000000180034388     cairo:libcairo-2.dll
 0002:00000390       __imp_cairo_set_fill_rule  0000000180034390     cairo:libcairo-2.dll
 0002:00000398       __imp_cairo_paint          0000000180034398     cairo:libcairo-2.dll
 0002:000003a0       __imp_cairo_push_group     00000001800343a0     cairo:libcairo-2.dll
 0002:000003a8       __imp_cairo_stroke         00000001800343a8     cairo:libcairo-2.dll
 0002:000003b0       __imp_cairo_move_to        00000001800343b0     cairo:libcairo-2.dll
 0002:000003b8       __imp_cairo_get_line_cap   00000001800343b8     cairo:libcairo-2.dll
 0002:000003c0       __imp_cairo_pattern_add_color_stop_rgba 00000001800343c0     cairo:libcairo-2.dll
 0002:000003c8       __imp_cairo_pattern_set_extend 00000001800343c8     cairo:libcairo-2.dll
 0002:000003d0       __imp_cairo_get_operator   00000001800343d0     cairo:libcairo-2.dll
 0002:000003d8       __imp_cairo_clip           00000001800343d8     cairo:libcairo-2.dll
 0002:000003e0       __imp_cairo_get_antialias  00000001800343e0     cairo:libcairo-2.dll
 0002:000003e8       __imp_cairo_set_source_rgba 00000001800343e8     cairo:libcairo-2.dll
 0002:000003f0       __imp_cairo_copy_path_flat 00000001800343f0     cairo:libcairo-2.dll
 0002:000003f8       __imp_cairo_set_source     00000001800343f8     cairo:libcairo-2.dll
 0002:00000400       __imp_cairo_scale          0000000180034400     cairo:libcairo-2.dll
 0002:00000408       __imp_cairo_user_to_device_distance 0000000180034408     cairo:libcairo-2.dll
 0002:00000410       __imp_cairo_set_matrix     0000000180034410     cairo:libcairo-2.dll
 0002:00000418       __imp_cairo_surface_mark_dirty 0000000180034418     cairo:libcairo-2.dll
 0002:00000420       __imp_cairo_fill_preserve  0000000180034420     cairo:libcairo-2.dll
 0002:00000428       __imp_cairo_rotate         0000000180034428     cairo:libcairo-2.dll
 0002:00000430       __imp_cairo_stroke_extents 0000000180034430     cairo:libcairo-2.dll
 0002:00000438       __imp_cairo_matrix_init    0000000180034438     cairo:libcairo-2.dll
 0002:00000440       __imp_cairo_pop_group_to_source 0000000180034440     cairo:libcairo-2.dll
 0002:00000448       __imp_cairo_get_dash       0000000180034448     cairo:libcairo-2.dll
 0002:00000450       __imp_cairo_get_miter_limit 0000000180034450     cairo:libcairo-2.dll
 0002:00000458       __imp_cairo_append_path    0000000180034458     cairo:libcairo-2.dll
 0002:00000460       __imp_cairo_new_path       0000000180034460     cairo:libcairo-2.dll
 0002:00000468       __imp_cairo_identity_matrix 0000000180034468     cairo:libcairo-2.dll
 0002:00000470       __imp_cairo_get_line_join  0000000180034470     cairo:libcairo-2.dll
 0002:00000478       __imp_cairo_in_stroke      0000000180034478     cairo:libcairo-2.dll
 0002:00000480       __imp_cairo_paint_with_alpha 0000000180034480     cairo:libcairo-2.dll
 0002:00000488       __imp_cairo_set_antialias  0000000180034488     cairo:libcairo-2.dll
 0002:00000490       __imp_cairo_get_dash_count 0000000180034490     cairo:libcairo-2.dll
 0002:00000498       __imp_cairo_set_dash       0000000180034498     cairo:libcairo-2.dll
 0002:000004a0       __imp_cairo_transform      00000001800344a0     cairo:libcairo-2.dll
 0002:000004a8       __imp_cairo_close_path     00000001800344a8     cairo:libcairo-2.dll
 0002:000004b0       __imp_cairo_arc            00000001800344b0     cairo:libcairo-2.dll
 0002:000004b8       __imp_cairo_get_line_width 00000001800344b8     cairo:libcairo-2.dll
 0002:000004c0       __imp_cairo_clip_preserve  00000001800344c0     cairo:libcairo-2.dll
 0002:000004c8       __imp_cairo_set_line_width 00000001800344c8     cairo:libcairo-2.dll
 0002:000004d0       __imp_cairo_set_miter_limit 00000001800344d0     cairo:libcairo-2.dll
 0002:000004d8       __imp_cairo_get_current_point 00000001800344d8     cairo:libcairo-2.dll
 0002:000004e0       __imp_cairo_translate      00000001800344e0     cairo:libcairo-2.dll
 0002:000004e8       __imp_cairo_curve_to       00000001800344e8     cairo:libcairo-2.dll
 0002:000004f0       __imp_cairo_rectangle      00000001800344f0     cairo:libcairo-2.dll
 0002:000004f8       __imp_cairo_pattern_create_radial 00000001800344f8     cairo:libcairo-2.dll
 0002:00000500       __imp_cairo_pattern_create_linear 0000000180034500     cairo:libcairo-2.dll
 0002:00000508       __imp_cairo_pattern_destroy 0000000180034508     cairo:libcairo-2.dll
 0002:00000510       __imp_cairo_pattern_create_for_surface 0000000180034510     cairo:libcairo-2.dll
 0002:00000518       __imp_cairo_path_destroy   0000000180034518     cairo:libcairo-2.dll
 0002:00000520       __imp_cairo_in_fill        0000000180034520     cairo:libcairo-2.dll
 0002:00000528       __imp_cairo_set_operator   0000000180034528     cairo:libcairo-2.dll
 0002:00000530       __imp_cairo_surface_mark_dirty_rectangle 0000000180034530     cairo:libcairo-2.dll
 0002:00000538       __imp_cairo_save           0000000180034538     cairo:libcairo-2.dll
 0002:00000540       __imp_cairo_get_matrix     0000000180034540     cairo:libcairo-2.dll
 0002:00000548       __imp_cairo_arc_negative   0000000180034548     cairo:libcairo-2.dll
 0002:00000550       __imp_cairo_stroke_preserve 0000000180034550     cairo:libcairo-2.dll
 0002:00000558       __imp_cairo_version_string 0000000180034558     cairo:libcairo-2.dll
 0002:00000560       __imp_cairo_image_surface_create_from_png 0000000180034560     cairo:libcairo-2.dll
 0002:00000568       \177libcairo-2_NULL_THUNK_DATA 0000000180034568     cairo:libcairo-2.dll
 0002:00000570       __imp_FT_New_Face          0000000180034570     freetype:libfreetype-6.dll
 0002:00000578       __imp_FT_Done_Face         0000000180034578     freetype:libfreetype-6.dll
 0002:00000580       __imp_FT_Get_Sfnt_Name_Count 0000000180034580     freetype:libfreetype-6.dll
 0002:00000588       __imp_FT_Init_FreeType     0000000180034588     freetype:libfreetype-6.dll
 0002:00000590       __imp_FT_Get_Sfnt_Name     0000000180034590     freetype:libfreetype-6.dll
 0002:00000598       __imp_FT_Get_Sfnt_Table    0000000180034598     freetype:libfreetype-6.dll
 0002:000005a0       \177libfreetype-6_NULL_THUNK_DATA 00000001800345a0     freetype:libfreetype-6.dll
 0002:000005a8       __imp_g_list_first         00000001800345a8     glib-2.0:libglib-2.0-0.dll
 0002:000005b0       __imp_g_list_foreach       00000001800345b0     glib-2.0:libglib-2.0-0.dll
 0002:000005b8       __imp_g_hash_table_new     00000001800345b8     glib-2.0:libglib-2.0-0.dll
 0002:000005c0       __imp_g_strdup             00000001800345c0     glib-2.0:libglib-2.0-0.dll
 0002:000005c8       __imp_g_hash_table_lookup  00000001800345c8     glib-2.0:libglib-2.0-0.dll
 0002:000005d0       __imp_g_str_equal          00000001800345d0     glib-2.0:libglib-2.0-0.dll
 0002:000005d8       __imp_g_strfreev           00000001800345d8     glib-2.0:libglib-2.0-0.dll
 0002:000005e0       __imp_g_hash_table_replace 00000001800345e0     glib-2.0:libglib-2.0-0.dll
 0002:000005e8       __imp_g_iconv_open         00000001800345e8     glib-2.0:libglib-2.0-0.dll
 0002:000005f0       __imp_g_strsplit           00000001800345f0     glib-2.0:libglib-2.0-0.dll
 0002:000005f8       __imp_g_ascii_strcasecmp   00000001800345f8     glib-2.0:libglib-2.0-0.dll
 0002:00000600       __imp_g_str_hash           0000000180034600     glib-2.0:libglib-2.0-0.dll
 0002:00000608       __imp_g_string_append      0000000180034608     glib-2.0:libglib-2.0-0.dll
 0002:00000610       __imp_g_hash_table_destroy 0000000180034610     glib-2.0:libglib-2.0-0.dll
 0002:00000618       __imp_g_string_new         0000000180034618     glib-2.0:libglib-2.0-0.dll
 0002:00000620       __imp_g_string_free        0000000180034620     glib-2.0:libglib-2.0-0.dll
 0002:00000628       __imp_g_iconv              0000000180034628     glib-2.0:libglib-2.0-0.dll
 0002:00000630       __imp_g_list_insert_sorted 0000000180034630     glib-2.0:libglib-2.0-0.dll
 0002:00000638       __imp_g_list_free          0000000180034638     glib-2.0:libglib-2.0-0.dll
 0002:00000640       __imp_g_free               0000000180034640     glib-2.0:libglib-2.0-0.dll
 0002:00000648       \177libglib-2.0-0_NULL_THUNK_DATA 0000000180034648     glib-2.0:libglib-2.0-0.dll
 0002:00000650       __imp_g_object_unref       0000000180034650     gobject-2.0:libgobject-2.0-0.dll
 0002:00000658       \177libgobject-2.0-0_NULL_THUNK_DATA 0000000180034658     gobject-2.0:libgobject-2.0-0.dll
 0002:00000660       __imp_pango_font_description_set_stretch 0000000180034660     pango-1.0:libpango-1.0-0.dll
 0002:00000668       __imp_pango_font_metrics_get_ascent 0000000180034668     pango-1.0:libpango-1.0-0.dll
 0002:00000670       __imp_pango_layout_get_line 0000000180034670     pango-1.0:libpango-1.0-0.dll
 0002:00000678       __imp_pango_layout_set_text 0000000180034678     pango-1.0:libpango-1.0-0.dll
 0002:00000680       __imp_pango_layout_get_baseline 0000000180034680     pango-1.0:libpango-1.0-0.dll
 0002:00000688       __imp_pango_font_metrics_unref 0000000180034688     pango-1.0:libpango-1.0-0.dll
 0002:00000690       __imp_pango_context_get_language 0000000180034690     pango-1.0:libpango-1.0-0.dll
 0002:00000698       __imp_pango_layout_get_pixel_extents 0000000180034698     pango-1.0:libpango-1.0-0.dll
 0002:000006a0       __imp_pango_font_description_from_string 00000001800346a0     pango-1.0:libpango-1.0-0.dll
 0002:000006a8       __imp_pango_layout_line_get_extents 00000001800346a8     pango-1.0:libpango-1.0-0.dll
 0002:000006b0       __imp_pango_layout_get_extents 00000001800346b0     pango-1.0:libpango-1.0-0.dll
 0002:000006b8       __imp_pango_layout_get_context 00000001800346b8     pango-1.0:libpango-1.0-0.dll
 0002:000006c0       __imp_pango_layout_set_font_description 00000001800346c0     pango-1.0:libpango-1.0-0.dll
 0002:000006c8       __imp_pango_context_get_metrics 00000001800346c8     pango-1.0:libpango-1.0-0.dll
 0002:000006d0       __imp_pango_layout_get_font_description 00000001800346d0     pango-1.0:libpango-1.0-0.dll
 0002:000006d8       __imp_pango_font_description_copy 00000001800346d8     pango-1.0:libpango-1.0-0.dll
 0002:000006e0       __imp_pango_font_description_set_family_static 00000001800346e0     pango-1.0:libpango-1.0-0.dll
 0002:000006e8       __imp_pango_font_description_set_family 00000001800346e8     pango-1.0:libpango-1.0-0.dll
 0002:000006f0       __imp_pango_font_description_get_family 00000001800346f0     pango-1.0:libpango-1.0-0.dll
 0002:000006f8       __imp_pango_font_description_free 00000001800346f8     pango-1.0:libpango-1.0-0.dll
 0002:00000700       __imp_pango_font_description_new 0000000180034700     pango-1.0:libpango-1.0-0.dll
 0002:00000708       __imp_pango_font_description_equal 0000000180034708     pango-1.0:libpango-1.0-0.dll
 0002:00000710       __imp_pango_font_description_set_weight 0000000180034710     pango-1.0:libpango-1.0-0.dll
 0002:00000718       __imp_pango_font_description_set_style 0000000180034718     pango-1.0:libpango-1.0-0.dll
 0002:00000720       __imp_pango_font_description_better_match 0000000180034720     pango-1.0:libpango-1.0-0.dll
 0002:00000728       __imp_pango_font_description_set_absolute_size 0000000180034728     pango-1.0:libpango-1.0-0.dll
 0002:00000730       \177libpango-1.0-0_NULL_THUNK_DATA 0000000180034730     pango-1.0:libpango-1.0-0.dll
 0002:00000738       __imp_pango_cairo_create_layout 0000000180034738     pangocairo-1.0:libpangocairo-1.0-0.dll
 0002:00000740       __imp_pango_cairo_update_layout 0000000180034740     pangocairo-1.0:libpangocairo-1.0-0.dll
 0002:00000748       __imp_pango_cairo_layout_path 0000000180034748     pangocairo-1.0:libpangocairo-1.0-0.dll
 0002:00000750       __imp_pango_cairo_font_map_set_default 0000000180034750     pangocairo-1.0:libpangocairo-1.0-0.dll
 0002:00000758       __imp_pango_cairo_show_layout 0000000180034758     pangocairo-1.0:libpangocairo-1.0-0.dll
 0002:00000760       \177libpangocairo-1.0-0_NULL_THUNK_DATA 0000000180034760     pangocairo-1.0:libpangocairo-1.0-0.dll
 0002:00000768       __imp_png_get_io_ptr       0000000180034768     libpng:libpng14-14.dll
 0002:00000770       __imp_png_write_info       0000000180034770     libpng:libpng14-14.dll
 0002:00000778       __imp_png_set_packswap     0000000180034778     libpng:libpng14-14.dll
 0002:00000780       __imp_png_malloc           0000000180034780     libpng:libpng14-14.dll
 0002:00000788       __imp_png_get_error_ptr    0000000180034788     libpng:libpng14-14.dll
 0002:00000790       __imp_png_set_packing      0000000180034790     libpng:libpng14-14.dll
 0002:00000798       __imp_png_set_PLTE         0000000180034798     libpng:libpng14-14.dll
 0002:000007a0       __imp_png_set_longjmp_fn   00000001800347a0     libpng:libpng14-14.dll
 0002:000007a8       __imp_png_set_tRNS         00000001800347a8     libpng:libpng14-14.dll
 0002:000007b0       __imp_png_destroy_write_struct 00000001800347b0     libpng:libpng14-14.dll
 0002:000007b8       __imp_png_set_write_user_transform_fn 00000001800347b8     libpng:libpng14-14.dll
 0002:000007c0       __imp_png_set_bKGD         00000001800347c0     libpng:libpng14-14.dll
 0002:000007c8       __imp_png_write_image      00000001800347c8     libpng:libpng14-14.dll
 0002:000007d0       __imp_png_create_write_struct_2 00000001800347d0     libpng:libpng14-14.dll
 0002:000007d8       __imp_png_error            00000001800347d8     libpng:libpng14-14.dll
 0002:000007e0       __imp_png_write_end        00000001800347e0     libpng:libpng14-14.dll
 0002:000007e8       __imp_png_set_filler       00000001800347e8     libpng:libpng14-14.dll
 0002:000007f0       __imp_png_create_info_struct 00000001800347f0     libpng:libpng14-14.dll
 0002:000007f8       __imp_png_set_write_fn     00000001800347f8     libpng:libpng14-14.dll
 0002:00000800       __imp_png_set_IHDR         0000000180034800     libpng:libpng14-14.dll
 0002:00000808       __imp_png_set_compression_level 0000000180034808     libpng:libpng14-14.dll
 0002:00000810       __imp_png_data_freer       0000000180034810     libpng:libpng14-14.dll
 0002:00000818       __imp_png_set_filter       0000000180034818     libpng:libpng14-14.dll
 0002:00000820       \177libpng14-14_NULL_THUNK_DATA 0000000180034820     libpng:libpng14-14.dll
 0002:00000828       __guard_check_icall_fptr   0000000180034828     LIBCMT:guard_support.obj
 0002:00000830       __guard_dispatch_icall_fptr 0000000180034830     LIBCMT:guard_support.obj
 0002:00000838       __xc_a                     0000000180034838     LIBCMT:initializers.obj
 0002:000008b8       _register_canvas_          00000001800348b8     init.obj
 0002:000008c0       __xc_z                     00000001800348c0     LIBCMT:initializers.obj
 0002:000008c8       __xi_a                     00000001800348c8     LIBCMT:initializers.obj
 0002:000008e0       __acrt_stdio_initializer   00000001800348e0     libucrt:stdio_initializer.obj
 0002:000008e8       __acrt_tran_fma3_initializer 00000001800348e8     libucrt:fma3_initializer.obj
 0002:000008f0       __acrt_timeset_initializer 00000001800348f0     libucrt:timeset_initializer.obj
 0002:000008f8       __acrt_multibyte_initializer 00000001800348f8     libucrt:multibyte_initializer.obj
 0002:00000900       __xi_z                     0000000180034900     LIBCMT:initializers.obj
 0002:00000908       __xl_a                     0000000180034908     LIBCMT:tlssup.obj
 0002:00000910       __xl_z                     0000000180034910     LIBCMT:tlssup.obj
 0002:00000918       __xp_a                     0000000180034918     LIBCMT:initializers.obj
 0002:00000920       __acrt_locale_terminator   0000000180034920     libucrt:locale_initializer.obj
 0002:00000928       __dcrt_console_output_terminator 0000000180034928     libucrt:console_output_initializer.obj
 0002:00000930       __acrt_stdio_terminator    0000000180034930     libucrt:stdio_initializer.obj
 0002:00000938       __xp_z                     0000000180034938     LIBCMT:initializers.obj
 0002:00000940       __xt_a                     0000000180034940     LIBCMT:initializers.obj
 0002:00000948       __xt_z                     0000000180034948     LIBCMT:initializers.obj
 0002:00000950       __sz_node_exe              0000000180034950     node:node.exe
 0002:000009b0       ??_C@_01NBENCBCI@?$CK?$AA@ 00000001800349b0     libcpmt:locale0.obj
 0002:000009c0       ??_7exception@std@@6B@     00000001800349c0     libcpmt:xthrow.obj
 0002:000009d0       ??_C@_0BC@EOODALEL@Unknown?5exception?$AA@ 00000001800349d0     libcpmt:xthrow.obj
 0002:000009f0       ??_7bad_alloc@std@@6B@     00000001800349f0     libcpmt:xthrow.obj
 0002:00000a00       ??_C@_0P@GHFPNOJB@bad?5allocation?$AA@ 0000000180034a00     libcpmt:xthrow.obj
 0002:00000a18       ??_7logic_error@std@@6B@   0000000180034a18     libcpmt:xthrow.obj
 0002:00000a30       ??_7length_error@std@@6B@  0000000180034a30     libcpmt:xthrow.obj
 0002:00000a48       ??_7out_of_range@std@@6B@  0000000180034a48     libcpmt:xthrow.obj
 0002:00000a58       ?_BADOFF@std@@3_JB         0000000180034a58     libcpmt:ios.obj
 0002:00001190       ??_C@_0BN@LKKBCCDB@address?5family?5not?5supported?$AA@ 0000000180035190     libcpmt:syserror.obj
 0002:000011b0       ??_C@_0P@LDMLAFHI@address?5in?5use?$AA@ 00000001800351b0     libcpmt:syserror.obj
 0002:000011c0       ??_C@_0BG@DHPCNBJB@address?5not?5available?$AA@ 00000001800351c0     libcpmt:syserror.obj
 0002:000011d8       ??_C@_0BC@DFIBIBIL@already?5connected?$AA@ 00000001800351d8     libcpmt:syserror.obj
 0002:000011f0       ??_C@_0BH@CAKOHOMI@argument?5list?5too?5long?$AA@ 00000001800351f0     libcpmt:syserror.obj
 0002:00001208       ??_C@_0BH@CGIMPKIM@argument?5out?5of?5domain?$AA@ 0000000180035208     libcpmt:syserror.obj
 0002:00001220       ??_C@_0M@KGHGGJGL@bad?5address?$AA@ 0000000180035220     libcpmt:syserror.obj
 0002:00001230       ??_C@_0BE@MPJPGCEO@bad?5file?5descriptor?$AA@ 0000000180035230     libcpmt:syserror.obj
 0002:00001248       ??_C@_0M@PMMIEFCP@bad?5message?$AA@ 0000000180035248     libcpmt:syserror.obj
 0002:00001258       ??_C@_0M@KPHOFDBE@broken?5pipe?$AA@ 0000000180035258     libcpmt:syserror.obj
 0002:00001268       ??_C@_0BD@MGNDDEGM@connection?5aborted?$AA@ 0000000180035268     libcpmt:syserror.obj
 0002:00001280       ??_C@_0BP@KAIHPOGN@connection?5already?5in?5progress?$AA@ 0000000180035280     libcpmt:syserror.obj
 0002:000012a0       ??_C@_0BD@PJLIIJEL@connection?5refused?$AA@ 00000001800352a0     libcpmt:syserror.obj
 0002:000012b8       ??_C@_0BB@IECNJNOI@connection?5reset?$AA@ 00000001800352b8     libcpmt:syserror.obj
 0002:000012d0       ??_C@_0BC@PPHBOELF@cross?5device?5link?$AA@ 00000001800352d0     libcpmt:syserror.obj
 0002:000012e8       ??_C@_0BN@KDMIFEIP@destination?5address?5required?$AA@ 00000001800352e8     libcpmt:syserror.obj
 0002:00001308       ??_C@_0BI@NGCEHDD@device?5or?5resource?5busy?$AA@ 0000000180035308     libcpmt:syserror.obj
 0002:00001320       ??_C@_0BE@JIDOCPHM@directory?5not?5empty?$AA@ 0000000180035320     libcpmt:syserror.obj
 0002:00001338       ??_C@_0BI@BNCLIGPB@executable?5format?5error?$AA@ 0000000180035338     libcpmt:syserror.obj
 0002:00001350       ??_C@_0M@MIDIAGJP@file?5exists?$AA@ 0000000180035350     libcpmt:syserror.obj
 0002:00001360       ??_C@_0P@DNAJLBJK@file?5too?5large?$AA@ 0000000180035360     libcpmt:syserror.obj
 0002:00001370       ??_C@_0BC@EJHOMAAK@filename?5too?5long?$AA@ 0000000180035370     libcpmt:syserror.obj
 0002:00001388       ??_C@_0BH@KEFGLDAF@function?5not?5supported?$AA@ 0000000180035388     libcpmt:syserror.obj
 0002:000013a0       ??_C@_0BB@DHFDFGDM@host?5unreachable?$AA@ 00000001800353a0     libcpmt:syserror.obj
 0002:000013b8       ??_C@_0BD@JPHBMONG@identifier?5removed?$AA@ 00000001800353b8     libcpmt:syserror.obj
 0002:000013d0       ??_C@_0BG@CDNPAGJK@illegal?5byte?5sequence?$AA@ 00000001800353d0     libcpmt:syserror.obj
 0002:000013e8       ??_C@_0CD@BNPLBMNA@inappropriate?5io?5control?5operati@ 00000001800353e8     libcpmt:syserror.obj
 0002:00001410       ??_C@_0M@EGEKIIMP@interrupted?$AA@ 0000000180035410     libcpmt:syserror.obj
 0002:00001420       ??_C@_0BB@FCMFBGOM@invalid?5argument?$AA@ 0000000180035420     libcpmt:syserror.obj
 0002:00001438       ??_C@_0N@OHAFKDEK@invalid?5seek?$AA@ 0000000180035438     libcpmt:syserror.obj
 0002:00001448       ??_C@_08GLNPIFBN@io?5error?$AA@ 0000000180035448     libcpmt:syserror.obj
 0002:00001458       ??_C@_0P@FLLDBIDK@is?5a?5directory?$AA@ 0000000180035458     libcpmt:syserror.obj
 0002:00001468       ??_C@_0N@IFLPBIOP@message?5size?$AA@ 0000000180035468     libcpmt:syserror.obj
 0002:00001478       ??_C@_0N@KIIEAAIO@network?5down?$AA@ 0000000180035478     libcpmt:syserror.obj
 0002:00001488       ??_C@_0O@FNPDBHEE@network?5reset?$AA@ 0000000180035488     libcpmt:syserror.obj
 0002:00001498       ??_C@_0BE@IFNCKGE@network?5unreachable?$AA@ 0000000180035498     libcpmt:syserror.obj
 0002:000014b0       ??_C@_0BA@PFFCAOFK@no?5buffer?5space?$AA@ 00000001800354b0     libcpmt:syserror.obj
 0002:000014c0       ??_C@_0BB@IEPBLJHK@no?5child?5process?$AA@ 00000001800354c0     libcpmt:syserror.obj
 0002:000014d8       ??_C@_07PLECNNKG@no?5link?$AA@ 00000001800354d8     libcpmt:syserror.obj
 0002:000014e0       ??_C@_0BC@NJECKMKE@no?5lock?5available?$AA@ 00000001800354e0     libcpmt:syserror.obj
 0002:000014f8       ??_C@_0BF@PBGGPKKE@no?5message?5available?$AA@ 00000001800354f8     libcpmt:syserror.obj
 0002:00001510       ??_C@_0L@EDOLMPAK@no?5message?$AA@ 0000000180035510     libcpmt:syserror.obj
 0002:00001520       ??_C@_0BD@EAMBFIDF@no?5protocol?5option?$AA@ 0000000180035520     libcpmt:syserror.obj
 0002:00001538       ??_C@_0BD@IJDJKDEA@no?5space?5on?5device?$AA@ 0000000180035538     libcpmt:syserror.obj
 0002:00001550       ??_C@_0BE@MKFDAFMP@no?5stream?5resources?$AA@ 0000000180035550     libcpmt:syserror.obj
 0002:00001568       ??_C@_0BK@IMCPHCBI@no?5such?5device?5or?5address?$AA@ 0000000180035568     libcpmt:syserror.obj
 0002:00001588       ??_C@_0P@FDINDDOK@no?5such?5device?$AA@ 0000000180035588     libcpmt:syserror.obj
 0002:00001598       ??_C@_0BK@NDOCBPGE@no?5such?5file?5or?5directory?$AA@ 0000000180035598     libcpmt:syserror.obj
 0002:000015b8       ??_C@_0BA@ENLPPKBN@no?5such?5process?$AA@ 00000001800355b8     libcpmt:syserror.obj
 0002:000015c8       ??_C@_0BA@DOCPFFJG@not?5a?5directory?$AA@ 00000001800355c8     libcpmt:syserror.obj
 0002:000015d8       ??_C@_0N@POEIPGGF@not?5a?5socket?$AA@ 00000001800355d8     libcpmt:syserror.obj
 0002:000015e8       ??_C@_0N@LGAPMMPI@not?5a?5stream?$AA@ 00000001800355e8     libcpmt:syserror.obj
 0002:000015f8       ??_C@_0O@GLMIBBEG@not?5connected?$AA@ 00000001800355f8     libcpmt:syserror.obj
 0002:00001608       ??_C@_0BC@ENOOLCNF@not?5enough?5memory?$AA@ 0000000180035608     libcpmt:syserror.obj
 0002:00001620       ??_C@_0O@NHEDABJP@not?5supported?$AA@ 0000000180035620     libcpmt:syserror.obj
 0002:00001630       ??_C@_0BD@MOLBPMEA@operation?5canceled?$AA@ 0000000180035630     libcpmt:syserror.obj
 0002:00001648       ??_C@_0BG@KDKHOPCO@operation?5in?5progress?$AA@ 0000000180035648     libcpmt:syserror.obj
 0002:00001660       ??_C@_0BI@OHIEJAAB@operation?5not?5permitted?$AA@ 0000000180035660     libcpmt:syserror.obj
 0002:00001678       ??_C@_0BI@LNEGIFLN@operation?5not?5supported?$AA@ 0000000180035678     libcpmt:syserror.obj
 0002:00001690       ??_C@_0BG@OEMDKMEE@operation?5would?5block?$AA@ 0000000180035690     libcpmt:syserror.obj
 0002:000016a8       ??_C@_0L@BLPOFLNJ@owner?5dead?$AA@ 00000001800356a8     libcpmt:syserror.obj
 0002:000016b8       ??_C@_0BC@CIJDGCDI@permission?5denied?$AA@ 00000001800356b8     libcpmt:syserror.obj
 0002:000016d0       ??_C@_0P@FNPOCJBE@protocol?5error?$AA@ 00000001800356d0     libcpmt:syserror.obj
 0002:000016e0       ??_C@_0BH@JPPPLHJB@protocol?5not?5supported?$AA@ 00000001800356e0     libcpmt:syserror.obj
 0002:000016f8       ??_C@_0BG@EICBIHDP@read?5only?5file?5system?$AA@ 00000001800356f8     libcpmt:syserror.obj
 0002:00001710       ??_C@_0BO@BJBOMOEJ@resource?5deadlock?5would?5occur?$AA@ 0000000180035710     libcpmt:syserror.obj
 0002:00001730       ??_C@_0BP@LKNGHENJ@resource?5unavailable?5try?5again?$AA@ 0000000180035730     libcpmt:syserror.obj
 0002:00001750       ??_C@_0BE@GOIPJJHG@result?5out?5of?5range?$AA@ 0000000180035750     libcpmt:syserror.obj
 0002:00001768       ??_C@_0BG@MPLKFPAE@state?5not?5recoverable?$AA@ 0000000180035768     libcpmt:syserror.obj
 0002:00001780       ??_C@_0P@DIIFGFCG@stream?5timeout?$AA@ 0000000180035780     libcpmt:syserror.obj
 0002:00001790       ??_C@_0P@IPFDMIFL@text?5file?5busy?$AA@ 0000000180035790     libcpmt:syserror.obj
 0002:000017a0       ??_C@_09KJPPMAOI@timed?5out?$AA@ 00000001800357a0     libcpmt:syserror.obj
 0002:000017b0       ??_C@_0BO@HACHBEKI@too?5many?5files?5open?5in?5system?$AA@ 00000001800357b0     libcpmt:syserror.obj
 0002:000017d0       ??_C@_0BE@GHAFMPAH@too?5many?5files?5open?$AA@ 00000001800357d0     libcpmt:syserror.obj
 0002:000017e8       ??_C@_0P@HCOMKFCC@too?5many?5links?$AA@ 00000001800357e8     libcpmt:syserror.obj
 0002:000017f8       ??_C@_0BO@EFGOJEF@too?5many?5symbolic?5link?5levels?$AA@ 00000001800357f8     libcpmt:syserror.obj
 0002:00001818       ??_C@_0BA@KGKGOOJA@value?5too?5large?$AA@ 0000000180035818     libcpmt:syserror.obj
 0002:00001828       ??_C@_0BE@MIEJDDNH@wrong?5protocol?5type?$AA@ 0000000180035828     libcpmt:syserror.obj
 0002:00001868       ??_C@_1BK@MGMFAEKH@?$AAk?$AAe?$AAr?$AAn?$AAe?$AAl?$AA3?$AA2?$AA?4?$AAd?$AAl?$AAl?$AA?$AA@ 0000000180035868     libcpmt:winapisupp.obj
 0002:00001888       ??_C@_08KNHFBNJ@FlsAlloc?$AA@ 0000000180035888     libcpmt:winapisupp.obj
 0002:00001898       ??_C@_07PEJMOBNF@FlsFree?$AA@ 0000000180035898     libcpmt:winapisupp.obj
 0002:000018a0       ??_C@_0M@GDNOONDI@FlsGetValue?$AA@ 00000001800358a0     libcpmt:winapisupp.obj
 0002:000018b0       ??_C@_0M@JCPCPOEF@FlsSetValue?$AA@ 00000001800358b0     libcpmt:winapisupp.obj
 0002:000018c0       ??_C@_0BM@HCFOFFN@InitializeCriticalSectionEx?$AA@ 00000001800358c0     libcpmt:winapisupp.obj
 0002:000018e0       ??_C@_0BE@GPLMMCMH@InitOnceExecuteOnce?$AA@ 00000001800358e0     libcpmt:winapisupp.obj
 0002:000018f8       ??_C@_0P@DLHPPCNH@CreateEventExW?$AA@ 00000001800358f8     libcpmt:winapisupp.obj
 0002:00001908       ??_C@_0BB@MEFPJLHN@CreateSemaphoreW?$AA@ 0000000180035908     libcpmt:winapisupp.obj
 0002:00001920       ??_C@_0BD@KIEEOEEH@CreateSemaphoreExW?$AA@ 0000000180035920     libcpmt:winapisupp.obj
 0002:00001938       ??_C@_0BG@OGFAJCKC@CreateThreadpoolTimer?$AA@ 0000000180035938     libcpmt:winapisupp.obj
 0002:00001950       ??_C@_0BD@LPLEMMDI@SetThreadpoolTimer?$AA@ 0000000180035950     libcpmt:winapisupp.obj
 0002:00001968       ??_C@_0CA@FMNJENH@WaitForThreadpoolTimerCallbacks?$AA@ 0000000180035968     libcpmt:winapisupp.obj
 0002:00001988       ??_C@_0BF@DCFCCNOC@CloseThreadpoolTimer?$AA@ 0000000180035988     libcpmt:winapisupp.obj
 0002:000019a0       ??_C@_0BF@FLABGKKM@CreateThreadpoolWait?$AA@ 00000001800359a0     libcpmt:winapisupp.obj
 0002:000019b8       ??_C@_0BC@MGCOHNA@SetThreadpoolWait?$AA@ 00000001800359b8     libcpmt:winapisupp.obj
 0002:000019d0       ??_C@_0BE@OCIOMIMP@CloseThreadpoolWait?$AA@ 00000001800359d0     libcpmt:winapisupp.obj
 0002:000019e8       ??_C@_0BJ@LKGHFHBO@FlushProcessWriteBuffers?$AA@ 00000001800359e8     libcpmt:winapisupp.obj
 0002:00001a08       ??_C@_0BP@KALKKPMO@FreeLibraryWhenCallbackReturns?$AA@ 0000000180035a08     libcpmt:winapisupp.obj
 0002:00001a28       ??_C@_0BK@DFNBACLA@GetCurrentProcessorNumber?$AA@ 0000000180035a28     libcpmt:winapisupp.obj
 0002:00001a48       ??_C@_0BE@FKKLLFLM@CreateSymbolicLinkW?$AA@ 0000000180035a48     libcpmt:winapisupp.obj
 0002:00001a60       ??_C@_0BE@JOGNEJCI@GetCurrentPackageId?$AA@ 0000000180035a60     libcpmt:winapisupp.obj
 0002:00001a78       ??_C@_0P@CDHHOHKP@GetTickCount64?$AA@ 0000000180035a78     libcpmt:winapisupp.obj
 0002:00001a88       ??_C@_0BN@NEEHBBPO@GetFileInformationByHandleEx?$AA@ 0000000180035a88     libcpmt:winapisupp.obj
 0002:00001aa8       ??_C@_0BL@KBBHGKCM@SetFileInformationByHandle?$AA@ 0000000180035aa8     libcpmt:winapisupp.obj
 0002:00001ac8       ??_C@_0BP@FPNJPEJC@GetSystemTimePreciseAsFileTime?$AA@ 0000000180035ac8     libcpmt:winapisupp.obj
 0002:00001ae8       ??_C@_0BM@HLJJNPAH@InitializeConditionVariable?$AA@ 0000000180035ae8     libcpmt:winapisupp.obj
 0002:00001b08       ??_C@_0BG@BFNILBLN@WakeConditionVariable?$AA@ 0000000180035b08     libcpmt:winapisupp.obj
 0002:00001b20       ??_C@_0BJ@PGPPEPCC@WakeAllConditionVariable?$AA@ 0000000180035b20     libcpmt:winapisupp.obj
 0002:00001b40       ??_C@_0BJ@JEBJOJFJ@SleepConditionVariableCS?$AA@ 0000000180035b40     libcpmt:winapisupp.obj
 0002:00001b60       ??_C@_0BC@MMLHEBPB@InitializeSRWLock?$AA@ 0000000180035b60     libcpmt:winapisupp.obj
 0002:00001b78       ??_C@_0BI@OMNLIJDB@AcquireSRWLockExclusive?$AA@ 0000000180035b78     libcpmt:winapisupp.obj
 0002:00001b90       ??_C@_0BL@OGHFEMNA@TryAcquireSRWLockExclusive?$AA@ 0000000180035b90     libcpmt:winapisupp.obj
 0002:00001bb0       ??_C@_0BI@HMIEPCNJ@ReleaseSRWLockExclusive?$AA@ 0000000180035bb0     libcpmt:winapisupp.obj
 0002:00001bc8       ??_C@_0BK@LGACAGIC@SleepConditionVariableSRW?$AA@ 0000000180035bc8     libcpmt:winapisupp.obj
 0002:00001be8       ??_C@_0BF@GGPHFPJA@CreateThreadpoolWork?$AA@ 0000000180035be8     libcpmt:winapisupp.obj
 0002:00001c00       ??_C@_0BF@NHDAIMMO@SubmitThreadpoolWork?$AA@ 0000000180035c00     libcpmt:winapisupp.obj
 0002:00001c18       ??_C@_0BE@NPHIPNPD@CloseThreadpoolWork?$AA@ 0000000180035c18     libcpmt:winapisupp.obj
 0002:00001c30       ??_C@_0BA@IHGNDAEB@CompareStringEx?$AA@ 0000000180035c30     libcpmt:winapisupp.obj
 0002:00001c40       ??_C@_0BA@ONOKGCMP@GetLocaleInfoEx?$AA@ 0000000180035c40     libcpmt:winapisupp.obj
 0002:00001c50       ??_C@_0O@KKBNKAPF@LCMapStringEx?$AA@ 0000000180035c50     libcpmt:winapisupp.obj
 0002:00001c60       ??_C@_11LOCGONAA@?$AA?$AA@ 0000000180035c60     libcpmt:wlocale.obj
 0002:00001c64       ??_C@_01JOAMLHOP@?9?$AA@   0000000180035c64     libcpmt:wlocale.obj
 0002:00001d08       ??_C@_1M@JKFFICHJ@?$AAe?$AAs?$AA?9?$AAv?$AAe?$AA?$AA@ 0000000180035d08     libcpmt:winapinls.obj
 0002:00001d18       ??_C@_1M@PNMLOJDF@?$AAe?$AAt?$AA?9?$AAe?$AAe?$AA?$AA@ 0000000180035d18     libcpmt:winapinls.obj
 0002:00001d28       ??_C@_1M@GHHLIKEI@?$AAe?$AAu?$AA?9?$AAe?$AAs?$AA?$AA@ 0000000180035d28     libcpmt:winapinls.obj
 0002:00001d38       ??_C@_1M@PBNONODE@?$AAf?$AAa?$AA?9?$AAi?$AAr?$AA?$AA@ 0000000180035d38     libcpmt:winapinls.obj
 0002:00001d48       ??_C@_1M@JEEHPMIL@?$AAf?$AAi?$AA?9?$AAf?$AAi?$AA?$AA@ 0000000180035d48     libcpmt:winapinls.obj
 0002:00001d58       ??_C@_1M@LMDCNDBA@?$AAf?$AAo?$AA?9?$AAf?$AAo?$AA?$AA@ 0000000180035d58     libcpmt:winapinls.obj
 0002:00001d68       ??_C@_1M@JKEOHLDK@?$AAf?$AAr?$AA?9?$AAb?$AAe?$AA?$AA@ 0000000180035d68     libcpmt:winapinls.obj
 0002:00001d78       ??_C@_1M@NOHADPMI@?$AAf?$AAr?$AA?9?$AAc?$AAa?$AA?$AA@ 0000000180035d78     libcpmt:winapinls.obj
 0002:00001d88       ??_C@_1M@KDHIHAEC@?$AAf?$AAr?$AA?9?$AAc?$AAh?$AA?$AA@ 0000000180035d88     libcpmt:winapinls.obj
 0002:00001d98       ??_C@_1M@MMBBFGAK@?$AAf?$AAr?$AA?9?$AAf?$AAr?$AA?$AA@ 0000000180035d98     libcpmt:winapinls.obj
 0002:00001da8       ??_C@_1M@PAFNENNF@?$AAf?$AAr?$AA?9?$AAl?$AAu?$AA?$AA@ 0000000180035da8     libcpmt:winapinls.obj
 0002:00001db8       ??_C@_1M@EOHDJGDD@?$AAf?$AAr?$AA?9?$AAm?$AAc?$AA?$AA@ 0000000180035db8     libcpmt:winapinls.obj
 0002:00001dc8       ??_C@_1M@FAPLLOPF@?$AAg?$AAl?$AA?9?$AAe?$AAs?$AA?$AA@ 0000000180035dc8     libcpmt:winapinls.obj
 0002:00001dd8       ??_C@_1M@FOPBFLOO@?$AAg?$AAu?$AA?9?$AAi?$AAn?$AA?$AA@ 0000000180035dd8     libcpmt:winapinls.obj
 0002:00001de8       ??_C@_1M@KBMCINPM@?$AAh?$AAe?$AA?9?$AAi?$AAl?$AA?$AA@ 0000000180035de8     libcpmt:winapinls.obj
 0002:00001df8       ??_C@_1M@BBPHKFPJ@?$AAh?$AAi?$AA?9?$AAi?$AAn?$AA?$AA@ 0000000180035df8     libcpmt:winapinls.obj
 0002:00001e08       ??_C@_1M@PMBNDPHD@?$AAh?$AAr?$AA?9?$AAb?$AAa?$AA?$AA@ 0000000180035e08     libcpmt:winapinls.obj
 0002:00001e18       ??_C@_1M@BPCKOEGE@?$AAh?$AAr?$AA?9?$AAh?$AAr?$AA?$AA@ 0000000180035e18     libcpmt:winapinls.obj
 0002:00001e28       ??_C@_1M@GACBMHKE@?$AAh?$AAu?$AA?9?$AAh?$AAu?$AA?$AA@ 0000000180035e28     libcpmt:winapinls.obj
 0002:00001e38       ??_C@_1M@MILPAJJC@?$AAh?$AAy?$AA?9?$AAa?$AAm?$AA?$AA@ 0000000180035e38     libcpmt:winapinls.obj
 0002:00001e48       ??_C@_1M@BABBICEC@?$AAi?$AAd?$AA?9?$AAi?$AAd?$AA?$AA@ 0000000180035e48     libcpmt:winapinls.obj
 0002:00001e58       ??_C@_1M@BIKNHHPF@?$AAi?$AAs?$AA?9?$AAi?$AAs?$AA?$AA@ 0000000180035e58     libcpmt:winapinls.obj
 0002:00001e68       ??_C@_1M@NMPCJPHE@?$AAi?$AAt?$AA?9?$AAc?$AAh?$AA?$AA@ 0000000180035e68     libcpmt:winapinls.obj
 0002:00001e78       ??_C@_1M@GHKGFEDF@?$AAi?$AAt?$AA?9?$AAi?$AAt?$AA?$AA@ 0000000180035e78     libcpmt:winapinls.obj
 0002:00001e88       ??_C@_1M@NIEJCJJA@?$AAj?$AAa?$AA?9?$AAj?$AAp?$AA?$AA@ 0000000180035e88     libcpmt:winapinls.obj
 0002:00001e98       ??_C@_1M@JILFNBIM@?$AAk?$AAa?$AA?9?$AAg?$AAe?$AA?$AA@ 0000000180035e98     libcpmt:winapinls.obj
 0002:00001ea8       ??_C@_1M@PACPMGPH@?$AAk?$AAk?$AA?9?$AAk?$AAz?$AA?$AA@ 0000000180035ea8     libcpmt:winapinls.obj
 0002:00001eb8       ??_C@_1M@IELFGMHA@?$AAk?$AAn?$AA?9?$AAi?$AAn?$AA?$AA@ 0000000180035eb8     libcpmt:winapinls.obj
 0002:00001ec8       ??_C@_1M@DMHAEOGC@?$AAk?$AAo?$AA?9?$AAk?$AAr?$AA?$AA@ 0000000180035ec8     libcpmt:winapinls.obj
 0002:00001ed8       ??_C@_1O@IBBJHCH@?$AAk?$AAo?$AAk?$AA?9?$AAi?$AAn?$AA?$AA@ 0000000180035ed8     libcpmt:winapinls.obj
 0002:00001ee8       ??_C@_1M@HBAHBIGA@?$AAk?$AAy?$AA?9?$AAk?$AAg?$AA?$AA@ 0000000180035ee8     libcpmt:winapinls.obj
 0002:00001ef8       ??_C@_1M@KPMILCJG@?$AAl?$AAt?$AA?9?$AAl?$AAt?$AA?$AA@ 0000000180035ef8     libcpmt:winapinls.obj
 0002:00001f08       ??_C@_1M@BDEKKCA@?$AAl?$AAv?$AA?9?$AAl?$AAv?$AA?$AA@ 0000000180035f08     libcpmt:winapinls.obj
 0002:00001f18       ??_C@_1M@ELCKCCJJ@?$AAm?$AAi?$AA?9?$AAn?$AAz?$AA?$AA@ 0000000180035f18     libcpmt:winapinls.obj
 0002:00001f28       ??_C@_1M@CBOOLAPA@?$AAm?$AAk?$AA?9?$AAm?$AAk?$AA?$AA@ 0000000180035f28     libcpmt:winapinls.obj
 0002:00001f38       ??_C@_1M@GPHNBJKN@?$AAm?$AAl?$AA?9?$AAi?$AAn?$AA?$AA@ 0000000180035f38     libcpmt:winapinls.obj
 0002:00001f48       ??_C@_1M@PABJILIG@?$AAm?$AAn?$AA?9?$AAm?$AAn?$AA?$AA@ 0000000180035f48     libcpmt:winapinls.obj
 0002:00001f58       ??_C@_1M@FGBKKIPG@?$AAm?$AAr?$AA?9?$AAi?$AAn?$AA?$AA@ 0000000180035f58     libcpmt:winapinls.obj
 0002:00001f68       ??_C@_1M@NDBPDDAL@?$AAm?$AAs?$AA?9?$AAb?$AAn?$AA?$AA@ 0000000180035f68     libcpmt:winapinls.obj
 0002:00001f78       ??_C@_1M@OPIHOOPI@?$AAm?$AAs?$AA?9?$AAm?$AAy?$AA?$AA@ 0000000180035f78     libcpmt:winapinls.obj
 0002:00001f88       ??_C@_1M@PPDBCNFM@?$AAm?$AAt?$AA?9?$AAm?$AAt?$AA?$AA@ 0000000180035f88     libcpmt:winapinls.obj
 0002:00001f98       ??_C@_1M@KDJDKMDD@?$AAn?$AAb?$AA?9?$AAn?$AAo?$AA?$AA@ 0000000180035f98     libcpmt:winapinls.obj
 0002:00001fa8       ??_C@_1M@KFCFLMJP@?$AAn?$AAl?$AA?9?$AAb?$AAe?$AA?$AA@ 0000000180035fa8     libcpmt:winapinls.obj
 0002:00001fb8       ??_C@_1M@KPOPDDGO@?$AAn?$AAl?$AA?9?$AAn?$AAl?$AA?$AA@ 0000000180035fb8     libcpmt:winapinls.obj
 0002:00001fc8       ??_C@_1M@LJKPEMLN@?$AAn?$AAn?$AA?9?$AAn?$AAo?$AA?$AA@ 0000000180035fc8     libcpmt:winapinls.obj
 0002:00001fd8       ??_C@_1M@BDGHHBFL@?$AAn?$AAs?$AA?9?$AAz?$AAa?$AA?$AA@ 0000000180035fd8     libcpmt:winapinls.obj
 0002:00001fe8       ??_C@_1M@IDEHOAP@?$AAp?$AAa?$AA?9?$AAi?$AAn?$AA?$AA@ 0000000180035fe8     libcpmt:winapinls.obj
 0002:00001ff8       ??_C@_1M@HDBKGOGH@?$AAp?$AAl?$AA?9?$AAp?$AAl?$AA?$AA@ 0000000180035ff8     libcpmt:winapinls.obj
 0002:00002008       ??_C@_1M@LJLLCMEH@?$AAp?$AAt?$AA?9?$AAb?$AAr?$AA?$AA@ 0000000180036008     libcpmt:winapinls.obj
 0002:00002018       ??_C@_1M@NCMONAAL@?$AAp?$AAt?$AA?9?$AAp?$AAt?$AA?$AA@ 0000000180036018     libcpmt:winapinls.obj
 0002:00002028       ??_C@_1O@EAKMAJDN@?$AAq?$AAu?$AAz?$AA?9?$AAb?$AAo?$AA?$AA@ 0000000180036028     libcpmt:winapinls.obj
 0002:00002038       ??_C@_1O@BHHPIGDN@?$AAq?$AAu?$AAz?$AA?9?$AAe?$AAc?$AA?$AA@ 0000000180036038     libcpmt:winapinls.obj
 0002:00002048       ??_C@_1O@GBAPEKMJ@?$AAq?$AAu?$AAz?$AA?9?$AAp?$AAe?$AA?$AA@ 0000000180036048     libcpmt:winapinls.obj
 0002:00002058       ??_C@_1M@CLGLEFBO@?$AAr?$AAo?$AA?9?$AAr?$AAo?$AA?$AA@ 0000000180036058     libcpmt:winapinls.obj
 0002:00002068       ??_C@_1M@CEEDODME@?$AAr?$AAu?$AA?9?$AAr?$AAu?$AA?$AA@ 0000000180036068     libcpmt:winapinls.obj
 0002:00002078       ??_C@_1M@HPKKKMPP@?$AAs?$AAa?$AA?9?$AAi?$AAn?$AA?$AA@ 0000000180036078     libcpmt:winapinls.obj
 0002:00002088       ??_C@_1M@BKMAIGOJ@?$AAs?$AAe?$AA?9?$AAf?$AAi?$AA?$AA@ 0000000180036088     libcpmt:winapinls.obj
 0002:00002098       ??_C@_1M@NDPIFLFI@?$AAs?$AAe?$AA?9?$AAn?$AAo?$AA?$AA@ 0000000180036098     libcpmt:winapinls.obj
 0002:000020a8       ??_C@_1M@DANKKHJ@?$AAs?$AAe?$AA?9?$AAs?$AAe?$AA?$AA@ 00000001800360a8     libcpmt:winapinls.obj
 0002:000020b8       ??_C@_1M@PNBLONPJ@?$AAs?$AAk?$AA?9?$AAs?$AAk?$AA?$AA@ 00000001800360b8     libcpmt:winapinls.obj
 0002:000020c8       ??_C@_1M@LFMODOAL@?$AAs?$AAl?$AA?9?$AAs?$AAi?$AA?$AA@ 00000001800360c8     libcpmt:winapinls.obj
 0002:000020d8       ??_C@_1O@DFKOMPG@?$AAs?$AAm?$AAa?$AA?9?$AAn?$AAo?$AA?$AA@ 00000001800360d8     libcpmt:winapinls.obj
 0002:000020e8       ??_C@_1O@NDKPBNNH@?$AAs?$AAm?$AAa?$AA?9?$AAs?$AAe?$AA?$AA@ 00000001800360e8     libcpmt:winapinls.obj
 0002:000020f8       ??_C@_1O@PLLKBHAB@?$AAs?$AAm?$AAj?$AA?9?$AAn?$AAo?$AA?$AA@ 00000001800360f8     libcpmt:winapinls.obj
 0002:00002108       ??_C@_1O@CLEPOGCA@?$AAs?$AAm?$AAj?$AA?9?$AAs?$AAe?$AA?$AA@ 0000000180036108     libcpmt:winapinls.obj
 0002:00002118       ??_C@_1O@DLGJGKMK@?$AAs?$AAm?$AAn?$AA?9?$AAf?$AAi?$AA?$AA@ 0000000180036118     libcpmt:winapinls.obj
 0002:00002128       ??_C@_1O@OJDJGAJC@?$AAs?$AAm?$AAs?$AA?9?$AAf?$AAi?$AA?$AA@ 0000000180036128     libcpmt:winapinls.obj
 0002:00002138       ??_C@_1M@BOFOGHPB@?$AAs?$AAq?$AA?9?$AAa?$AAl?$AA?$AA@ 0000000180036138     libcpmt:winapinls.obj
 0002:00002148       ??_C@_1BG@LJBBIPGB@?$AAs?$AAr?$AA?9?$AAb?$AAa?$AA?9?$AAc?$AAy?$AAr?$AAl?$AA?$AA@ 0000000180036148     libcpmt:winapinls.obj
 0002:00002160       ??_C@_1BG@JLBENFOE@?$AAs?$AAr?$AA?9?$AAb?$AAa?$AA?9?$AAl?$AAa?$AAt?$AAn?$AA?$AA@ 0000000180036160     libcpmt:winapinls.obj
 0002:00002178       ??_C@_1BG@KODPNHE@?$AAs?$AAr?$AA?9?$AAs?$AAp?$AA?9?$AAc?$AAy?$AAr?$AAl?$AA?$AA@ 0000000180036178     libcpmt:winapinls.obj
 0002:00002190       ??_C@_1BG@CIOGKHPB@?$AAs?$AAr?$AA?9?$AAs?$AAp?$AA?9?$AAl?$AAa?$AAt?$AAn?$AA?$AA@ 0000000180036190     libcpmt:winapinls.obj
 0002:000021a8       ??_C@_1M@NGFJLMAC@?$AAs?$AAv?$AA?9?$AAf?$AAi?$AA?$AA@ 00000001800361a8     libcpmt:winapinls.obj
 0002:000021b8       ??_C@_1M@MPJEJAJC@?$AAs?$AAv?$AA?9?$AAs?$AAe?$AA?$AA@ 00000001800361b8     libcpmt:winapinls.obj
 0002:000021c8       ??_C@_1M@MPNDHLFK@?$AAs?$AAw?$AA?9?$AAk?$AAe?$AA?$AA@ 00000001800361c8     libcpmt:winapinls.obj
 0002:000021d8       ??_C@_1O@KOHBJJI@?$AAs?$AAy?$AAr?$AA?9?$AAs?$AAy?$AA?$AA@ 00000001800361d8     libcpmt:winapinls.obj
 0002:000021e8       ??_C@_1M@LDCEFHA@?$AAt?$AAa?$AA?9?$AAi?$AAn?$AA?$AA@ 00000001800361e8     libcpmt:winapinls.obj
 0002:000021f8       ??_C@_1M@CNJOFAK@?$AAt?$AAe?$AA?9?$AAi?$AAn?$AA?$AA@ 00000001800361f8     libcpmt:winapinls.obj
 0002:00002208       ??_C@_1M@GNAECACD@?$AAt?$AAh?$AA?9?$AAt?$AAh?$AA?$AA@ 0000000180036208     libcpmt:winapinls.obj
 0002:00002218       ??_C@_1M@CHBIHOJO@?$AAt?$AAn?$AA?9?$AAz?$AAa?$AA?$AA@ 0000000180036218     libcpmt:winapinls.obj
 0002:00002228       ??_C@_1M@GCCMIGPJ@?$AAt?$AAr?$AA?9?$AAt?$AAr?$AA?$AA@ 0000000180036228     libcpmt:winapinls.obj
 0002:00002238       ??_C@_1M@CELMCNBK@?$AAt?$AAt?$AA?9?$AAr?$AAu?$AA?$AA@ 0000000180036238     libcpmt:winapinls.obj
 0002:00002248       ??_C@_1M@KLMCELGA@?$AAu?$AAk?$AA?9?$AAu?$AAa?$AA?$AA@ 0000000180036248     libcpmt:winapinls.obj
 0002:00002258       ??_C@_1M@EPAJJAJF@?$AAu?$AAr?$AA?9?$AAp?$AAk?$AA?$AA@ 0000000180036258     libcpmt:winapinls.obj
 0002:00002268       ??_C@_1BG@GEGPMCDJ@?$AAu?$AAz?$AA?9?$AAu?$AAz?$AA?9?$AAc?$AAy?$AAr?$AAl?$AA?$AA@ 0000000180036268     libcpmt:winapinls.obj
 0002:00002280       ??_C@_1BG@EGGKJILM@?$AAu?$AAz?$AA?9?$AAu?$AAz?$AA?9?$AAl?$AAa?$AAt?$AAn?$AA?$AA@ 0000000180036280     libcpmt:winapinls.obj
 0002:00002298       ??_C@_1M@GFOCLFF@?$AAv?$AAi?$AA?9?$AAv?$AAn?$AA?$AA@ 0000000180036298     libcpmt:winapinls.obj
 0002:000022a8       ??_C@_1M@CPAMEDFI@?$AAx?$AAh?$AA?9?$AAz?$AAa?$AA?$AA@ 00000001800362a8     libcpmt:winapinls.obj
 0002:000022b8       ??_C@_1O@EBKIFIGN@?$AAz?$AAh?$AA?9?$AAc?$AAh?$AAs?$AA?$AA@ 00000001800362b8     libcpmt:winapinls.obj
 0002:000022c8       ??_C@_1O@NMHPGANE@?$AAz?$AAh?$AA?9?$AAc?$AAh?$AAt?$AA?$AA@ 00000001800362c8     libcpmt:winapinls.obj
 0002:000022d8       ??_C@_1M@LPINJOMC@?$AAz?$AAh?$AA?9?$AAc?$AAn?$AA?$AA@ 00000001800362d8     libcpmt:winapinls.obj
 0002:000022e8       ??_C@_1M@OCJEJODD@?$AAz?$AAh?$AA?9?$AAh?$AAk?$AA?$AA@ 00000001800362e8     libcpmt:winapinls.obj
 0002:000022f8       ??_C@_1M@DNDLJINH@?$AAz?$AAh?$AA?9?$AAm?$AAo?$AA?$AA@ 00000001800362f8     libcpmt:winapinls.obj
 0002:00002308       ??_C@_1M@MBFDNDND@?$AAz?$AAh?$AA?9?$AAs?$AAg?$AA?$AA@ 0000000180036308     libcpmt:winapinls.obj
 0002:00002318       ??_C@_1M@IMEPLEPE@?$AAz?$AAh?$AA?9?$AAt?$AAw?$AA?$AA@ 0000000180036318     libcpmt:winapinls.obj
 0002:00002328       ??_C@_1M@BBGHNHJP@?$AAz?$AAu?$AA?9?$AAz?$AAa?$AA?$AA@ 0000000180036328     libcpmt:winapinls.obj
 0002:00003fc0       ??_C@_15EMKDOKLE@?$AAa?$AAr?$AA?$AA@ 0000000180037fc0     libcpmt:winapinls.obj
 0002:00003fc8       ??_C@_15KNPADPLH@?$AAb?$AAg?$AA?$AA@ 0000000180037fc8     libcpmt:winapinls.obj
 0002:00003fd0       ??_C@_15EDMHLDMO@?$AAc?$AAa?$AA?$AA@ 0000000180037fd0     libcpmt:winapinls.obj
 0002:00003fd8       ??_C@_1O@BPEAJADD@?$AAz?$AAh?$AA?9?$AAC?$AAH?$AAS?$AA?$AA@ 0000000180037fd8     libcpmt:winapinls.obj
 0002:00003fe8       ??_C@_15LJNHCMNK@?$AAc?$AAs?$AA?$AA@ 0000000180037fe8     libcpmt:winapinls.obj
 0002:00003ff0       ??_C@_15FOMCIDHG@?$AAd?$AAa?$AA?$AA@ 0000000180037ff0     libcpmt:winapinls.obj
 0002:00003ff8       ??_C@_15NBKABECB@?$AAd?$AAe?$AA?$AA@ 0000000180037ff8     libcpmt:winapinls.obj
 0002:00004000       ??_C@_15GHPEIIAO@?$AAe?$AAl?$AA?$AA@ 0000000180038000     libcpmt:winapinls.obj
 0002:00004008       ??_C@_15MNPNEAIF@?$AAe?$AAn?$AA?$AA@ 0000000180038008     libcpmt:winapinls.obj
 0002:00004010       ??_C@_15GPIOMPMH@?$AAe?$AAs?$AA?$AA@ 0000000180038010     libcpmt:winapinls.obj
 0002:00004018       ??_C@_15NGLOAKJC@?$AAf?$AAi?$AA?$AA@ 0000000180038018     libcpmt:winapinls.obj
 0002:00004020       ??_C@_15FBKGNKAM@?$AAf?$AAr?$AA?$AA@ 0000000180038020     libcpmt:winapinls.obj
 0002:00004028       ??_C@_15KGGCNEFK@?$AAh?$AAe?$AA?$AA@ 0000000180038028     libcpmt:winapinls.obj
 0002:00004030       ??_C@_15PGHLIDMF@?$AAh?$AAu?$AA?$AA@ 0000000180038030     libcpmt:winapinls.obj
 0002:00004038       ??_C@_15BIEMAPLM@?$AAi?$AAs?$AA?$AA@ 0000000180038038     libcpmt:winapinls.obj
 0002:00004040       ??_C@_15IFJLDHAF@?$AAi?$AAt?$AA?$AA@ 0000000180038040     libcpmt:winapinls.obj
 0002:00004048       ??_C@_15GEMIOCAG@?$AAj?$AAa?$AA?$AA@ 0000000180038048     libcpmt:winapinls.obj
 0002:00004050       ??_C@_15EPELEGJA@?$AAk?$AAo?$AA?$AA@ 0000000180038050     libcpmt:winapinls.obj
 0002:00004058       ??_C@_15NDDHIMN@?$AAn?$AAl?$AA?$AA@ 0000000180038058     libcpmt:winapinls.obj
 0002:00004060       ??_C@_15BPIGNHCD@?$AAn?$AAo?$AA?$AA@ 0000000180038060     libcpmt:winapinls.obj
 0002:00004068       ??_C@_15DEOPBLCG@?$AAp?$AAl?$AA?$AA@ 0000000180038068     libcpmt:winapinls.obj
 0002:00004070       ??_C@_15KBECGEFG@?$AAp?$AAt?$AA?$AA@ 0000000180038070     libcpmt:winapinls.obj
 0002:00004078       ??_C@_15GLJCBFMD@?$AAr?$AAo?$AA?$AA@ 0000000180038078     libcpmt:winapinls.obj
 0002:00004080       ??_C@_15FEDGKCDI@?$AAr?$AAu?$AA?$AA@ 0000000180038080     libcpmt:winapinls.obj
 0002:00004088       ??_C@_15GLKMLLHM@?$AAh?$AAr?$AA?$AA@ 0000000180038088     libcpmt:winapinls.obj
 0002:00004090       ??_C@_15CPKMFBDB@?$AAs?$AAk?$AA?$AA@ 0000000180038090     libcpmt:winapinls.obj
 0002:00004098       ??_C@_15BAAIOGMK@?$AAs?$AAq?$AA?$AA@ 0000000180038098     libcpmt:winapinls.obj
 0002:000040a0       ??_C@_15INNPNOHD@?$AAs?$AAv?$AA?$AA@ 00000001800380a0     libcpmt:winapinls.obj
 0002:000040a8       ??_C@_15CABMMOGH@?$AAt?$AAh?$AA?$AA@ 00000001800380a8     libcpmt:winapinls.obj
 0002:000040b0       ??_C@_15BPLIHJJM@?$AAt?$AAr?$AA?$AA@ 00000001800380b0     libcpmt:winapinls.obj
 0002:000040b8       ??_C@_15NEOEKKDJ@?$AAu?$AAr?$AA?$AA@ 00000001800380b8     libcpmt:winapinls.obj
 0002:000040c0       ??_C@_15NFICGAJK@?$AAi?$AAd?$AA?$AA@ 00000001800380c0     libcpmt:winapinls.obj
 0002:000040c8       ??_C@_15PJPFLCCM@?$AAu?$AAk?$AA?$AA@ 00000001800380c8     libcpmt:winapinls.obj
 0002:000040d0       ??_C@_15HPJPHDM@?$AAb?$AAe?$AA?$AA@ 00000001800380d0     libcpmt:winapinls.obj
 0002:000040d8       ??_C@_15LCHLGJII@?$AAs?$AAl?$AA?$AA@ 00000001800380d8     libcpmt:winapinls.obj
 0002:000040e0       ??_C@_15PCFJPHHO@?$AAe?$AAt?$AA?$AA@ 00000001800380e0     libcpmt:winapinls.obj
 0002:000040e8       ??_C@_15HPFPGODN@?$AAl?$AAv?$AA?$AA@ 00000001800380e8     libcpmt:winapinls.obj
 0002:000040f0       ??_C@_15NFFGKGLG@?$AAl?$AAt?$AA?$AA@ 00000001800380f0     libcpmt:winapinls.obj
 0002:000040f8       ??_C@_15BDAKCCHN@?$AAf?$AAa?$AA?$AA@ 00000001800380f8     libcpmt:winapinls.obj
 0002:00004100       ??_C@_15NFGIAIAJ@?$AAv?$AAi?$AA?$AA@ 0000000180038100     libcpmt:winapinls.obj
 0002:00004108       ??_C@_15LMKNDMHN@?$AAh?$AAy?$AA?$AA@ 0000000180038108     libcpmt:winapinls.obj
 0002:00004110       ??_C@_15IJBHMCFL@?$AAa?$AAz?$AA?$AA@ 0000000180038110     libcpmt:winapinls.obj
 0002:00004118       ??_C@_15EKOFJABL@?$AAe?$AAu?$AA?$AA@ 0000000180038118     libcpmt:winapinls.obj
 0002:00004120       ??_C@_15BGHADCNK@?$AAm?$AAk?$AA?$AA@ 0000000180038120     libcpmt:winapinls.obj
 0002:00004128       ??_C@_15JDNICKHM@?$AAa?$AAf?$AA?$AA@ 0000000180038128     libcpmt:winapinls.obj
 0002:00004130       ??_C@_15KPJEDBKD@?$AAk?$AAa?$AA?$AA@ 0000000180038130     libcpmt:winapinls.obj
 0002:00004138       ??_C@_15PDNFFFEO@?$AAf?$AAo?$AA?$AA@ 0000000180038138     libcpmt:winapinls.obj
 0002:00004140       ??_C@_15OMLEGLOC@?$AAh?$AAi?$AA?$AA@ 0000000180038140     libcpmt:winapinls.obj
 0002:00004148       ??_C@_15IDNNENKK@?$AAm?$AAs?$AA?$AA@ 0000000180038148     libcpmt:winapinls.obj
 0002:00004150       ??_C@_15MACJNBMH@?$AAk?$AAk?$AA?$AA@ 0000000180038150     libcpmt:winapinls.obj
 0002:00004158       ??_C@_15DKDJEOND@?$AAk?$AAy?$AA?$AA@ 0000000180038158     libcpmt:winapinls.obj
 0002:00004160       ??_C@_15DFGDLJBG@?$AAs?$AAw?$AA?$AA@ 0000000180038160     libcpmt:winapinls.obj
 0002:00004168       ??_C@_15BBFAICNG@?$AAu?$AAz?$AA?$AA@ 0000000180038168     libcpmt:winapinls.obj
 0002:00004170       ??_C@_15DKNDCGEA@?$AAt?$AAt?$AA?$AA@ 0000000180038170     libcpmt:winapinls.obj
 0002:00004178       ??_C@_15MGIFMDPL@?$AAp?$AAa?$AA?$AA@ 0000000180038178     libcpmt:winapinls.obj
 0002:00004180       ??_C@_15HCNDBBA@?$AAg?$AAu?$AA?$AA@ 0000000180038180     libcpmt:winapinls.obj
 0002:00004188       ??_C@_15FNBEIBON@?$AAt?$AAa?$AA?$AA@ 0000000180038188     libcpmt:winapinls.obj
 0002:00004190       ??_C@_15NCHGBGLK@?$AAt?$AAe?$AA?$AA@ 0000000180038190     libcpmt:winapinls.obj
 0002:00004198       ??_C@_15PHPHCBPF@?$AAk?$AAn?$AA?$AA@ 0000000180038198     libcpmt:winapinls.obj
 0002:000041a0       ??_C@_15DLGBCKMP@?$AAm?$AAr?$AA?$AA@ 00000001800381a0     libcpmt:winapinls.obj
 0002:000041a8       ??_C@_15EABBLBFF@?$AAs?$AAa?$AA?$AA@ 00000001800381a8     libcpmt:winapinls.obj
 0002:000041b0       ??_C@_15CBKOMCOI@?$AAm?$AAn?$AA?$AA@ 00000001800381b0     libcpmt:winapinls.obj
 0002:000041b8       ??_C@_15CKDMCJAF@?$AAg?$AAl?$AA?$AA@ 00000001800381b8     libcpmt:winapinls.obj
 0002:000041c0       ??_C@_17CNJFBPG@?$AAk?$AAo?$AAk?$AA?$AA@ 00000001800381c0     libcpmt:winapinls.obj
 0002:000041c8       ??_C@_17FFBJICPL@?$AAs?$AAy?$AAr?$AA?$AA@ 00000001800381c8     libcpmt:winapinls.obj
 0002:000041d0       ??_C@_17KPNDCPAF@?$AAd?$AAi?$AAv?$AA?$AA@ 00000001800381d0     libcpmt:winapinls.obj
 0002:000041d8       ??_C@_1M@OKAHONE@?$AAa?$AAr?$AA?9?$AAS?$AAA?$AA?$AA@ 00000001800381d8     libcpmt:winapinls.obj
 0002:000041e8       ??_C@_1M@FFFIGIGK@?$AAb?$AAg?$AA?9?$AAB?$AAG?$AA?$AA@ 00000001800381e8     libcpmt:winapinls.obj
 0002:000041f8       ??_C@_1M@BJNKEDC@?$AAc?$AAa?$AA?9?$AAE?$AAS?$AA?$AA@ 00000001800381f8     libcpmt:winapinls.obj
 0002:00004208       ??_C@_1M@CLNBBOPM@?$AAz?$AAh?$AA?9?$AAT?$AAW?$AA?$AA@ 0000000180038208     libcpmt:winapinls.obj
 0002:00004218       ??_C@_1M@IJJHFJHA@?$AAc?$AAs?$AA?9?$AAC?$AAZ?$AA?$AA@ 0000000180038218     libcpmt:winapinls.obj
 0002:00004228       ??_C@_1M@CLPEOBGI@?$AAd?$AAa?$AA?9?$AAD?$AAK?$AA?$AA@ 0000000180038228     libcpmt:winapinls.obj
 0002:00004238       ??_C@_1M@MCMADGCB@?$AAd?$AAe?$AA?9?$AAD?$AAE?$AA?$AA@ 0000000180038238     libcpmt:winapinls.obj
 0002:00004248       ??_C@_1M@OOCKEMAM@?$AAe?$AAl?$AA?9?$AAG?$AAR?$AA?$AA@ 0000000180038248     libcpmt:winapinls.obj
 0002:00004258       ??_C@_1M@BMHNFIME@?$AAe?$AAn?$AA?9?$AAU?$AAS?$AA?$AA@ 0000000180038258     libcpmt:winapinls.obj
 0002:00004268       ??_C@_1M@DDNJFGID@?$AAf?$AAi?$AA?9?$AAF?$AAI?$AA?$AA@ 0000000180038268     libcpmt:winapinls.obj
 0002:00004278       ??_C@_1M@GLIPPMAC@?$AAf?$AAr?$AA?9?$AAF?$AAR?$AA?$AA@ 0000000180038278     libcpmt:winapinls.obj
 0002:00004288       ??_C@_1M@GFMCHPE@?$AAh?$AAe?$AA?9?$AAI?$AAL?$AA?$AA@ 0000000180038288     libcpmt:winapinls.obj
 0002:00004298       ??_C@_1M@MHLPGNKM@?$AAh?$AAu?$AA?9?$AAH?$AAU?$AA?$AA@ 0000000180038298     libcpmt:winapinls.obj
 0002:000042a8       ??_C@_1M@LPDDNNPN@?$AAi?$AAs?$AA?9?$AAI?$AAS?$AA?$AA@ 00000001800382a8     libcpmt:winapinls.obj
 0002:000042b8       ??_C@_1M@MADIPODN@?$AAi?$AAt?$AA?9?$AAI?$AAT?$AA?$AA@ 00000001800382b8     libcpmt:winapinls.obj
 0002:000042c8       ??_C@_1M@HPNHIDJI@?$AAj?$AAa?$AA?9?$AAJ?$AAP?$AA?$AA@ 00000001800382c8     libcpmt:winapinls.obj
 0002:000042d8       ??_C@_1M@JLOOOEGK@?$AAk?$AAo?$AA?9?$AAK?$AAR?$AA?$AA@ 00000001800382d8     libcpmt:winapinls.obj
 0002:000042e8       ??_C@_1M@IHBJJGG@?$AAn?$AAl?$AA?9?$AAN?$AAL?$AA?$AA@ 00000001800382e8     libcpmt:winapinls.obj
 0002:000042f8       ??_C@_1M@EANAGDL@?$AAn?$AAb?$AA?9?$AAN?$AAO?$AA?$AA@ 00000001800382f8     libcpmt:winapinls.obj
 0002:00004308       ??_C@_1M@NEIEMEGP@?$AAp?$AAl?$AA?9?$AAP?$AAL?$AA?$AA@ 0000000180038308     libcpmt:winapinls.obj
 0002:00004318       ??_C@_1M@BOCFIGEP@?$AAp?$AAt?$AA?9?$AAB?$AAR?$AA?$AA@ 0000000180038318     libcpmt:winapinls.obj
 0002:00004328       ??_C@_1M@IMPFOPBG@?$AAr?$AAo?$AA?9?$AAR?$AAO?$AA?$AA@ 0000000180038328     libcpmt:winapinls.obj
 0002:00004338       ??_C@_1M@IDNNEJMM@?$AAr?$AAu?$AA?9?$AAR?$AAU?$AA?$AA@ 0000000180038338     libcpmt:winapinls.obj
 0002:00004348       ??_C@_1M@LILEEOGM@?$AAh?$AAr?$AA?9?$AAH?$AAR?$AA?$AA@ 0000000180038348     libcpmt:winapinls.obj
 0002:00004358       ??_C@_1M@FKIFEHPB@?$AAs?$AAk?$AA?9?$AAS?$AAK?$AA?$AA@ 0000000180038358     libcpmt:winapinls.obj
 0002:00004368       ??_C@_1M@LJMAMNPJ@?$AAs?$AAq?$AA?9?$AAA?$AAL?$AA?$AA@ 0000000180038368     libcpmt:winapinls.obj
 0002:00004378       ??_C@_1M@GIAKDKJK@?$AAs?$AAv?$AA?9?$AAS?$AAE?$AA?$AA@ 0000000180038378     libcpmt:winapinls.obj
 0002:00004388       ??_C@_1M@MKJKIKCL@?$AAt?$AAh?$AA?9?$AAT?$AAH?$AA?$AA@ 0000000180038388     libcpmt:winapinls.obj
 0002:00004398       ??_C@_1M@MFLCCMPB@?$AAt?$AAr?$AA?9?$AAT?$AAR?$AA?$AA@ 0000000180038398     libcpmt:winapinls.obj
 0002:000043a8       ??_C@_1M@OIJHDKJN@?$AAu?$AAr?$AA?9?$AAP?$AAK?$AA?$AA@ 00000001800383a8     libcpmt:winapinls.obj
 0002:000043b8       ??_C@_1M@LHIPCIEK@?$AAi?$AAd?$AA?9?$AAI?$AAD?$AA?$AA@ 00000001800383b8     libcpmt:winapinls.obj
 0002:000043c8       ??_C@_1M@MFMOBGI@?$AAu?$AAk?$AA?9?$AAU?$AAA?$AA?$AA@ 00000001800383c8     libcpmt:winapinls.obj
 0002:000043d8       ??_C@_1M@OBGLJIPL@?$AAb?$AAe?$AA?9?$AAB?$AAY?$AA?$AA@ 00000001800383d8     libcpmt:winapinls.obj
 0002:000043e8       ??_C@_1M@BCFAJEAD@?$AAs?$AAl?$AA?9?$AAS?$AAI?$AA?$AA@ 00000001800383e8     libcpmt:winapinls.obj
 0002:000043f8       ??_C@_1M@FKFFEDDN@?$AAe?$AAt?$AA?9?$AAE?$AAE?$AA?$AA@ 00000001800383f8     libcpmt:winapinls.obj
 0002:00004408       ??_C@_1M@KGKKAACI@?$AAl?$AAv?$AA?9?$AAL?$AAV?$AA?$AA@ 0000000180038408     libcpmt:winapinls.obj
 0002:00004418       ??_C@_1M@IFGBIJO@?$AAl?$AAt?$AA?9?$AAL?$AAT?$AA?$AA@ 0000000180038418     libcpmt:winapinls.obj
 0002:00004428       ??_C@_1M@FGEAHEDM@?$AAf?$AAa?$AA?9?$AAI?$AAR?$AA?$AA@ 0000000180038428     libcpmt:winapinls.obj
 0002:00004438       ??_C@_1M@KBMAIBFN@?$AAv?$AAi?$AA?9?$AAV?$AAN?$AA?$AA@ 0000000180038438     libcpmt:winapinls.obj
 0002:00004448       ??_C@_1M@GPCBKDJK@?$AAh?$AAy?$AA?9?$AAA?$AAM?$AA?$AA@ 0000000180038448     libcpmt:winapinls.obj
 0002:00004458       ??_C@_1BG@BECMDDJB@?$AAa?$AAz?$AA?9?$AAA?$AAZ?$AA?9?$AAL?$AAa?$AAt?$AAn?$AA?$AA@ 0000000180038458     libcpmt:winapinls.obj
 0002:00004470       ??_C@_1M@MAOFCAEA@?$AAe?$AAu?$AA?9?$AAE?$AAS?$AA?$AA@ 0000000180038470     libcpmt:winapinls.obj
 0002:00004480       ??_C@_1M@IGHABKPI@?$AAm?$AAk?$AA?9?$AAM?$AAK?$AA?$AA@ 0000000180038480     libcpmt:winapinls.obj
 0002:00004490       ??_C@_1M@IAIGNEJG@?$AAt?$AAn?$AA?9?$AAZ?$AAA?$AA?$AA@ 0000000180038490     libcpmt:winapinls.obj
 0002:000044a0       ??_C@_1M@IIJCOJFA@?$AAx?$AAh?$AA?9?$AAZ?$AAA?$AA?$AA@ 00000001800384a0     libcpmt:winapinls.obj
 0002:000044b0       ??_C@_1M@LGPJHNJH@?$AAz?$AAu?$AA?9?$AAZ?$AAA?$AA?$AA@ 00000001800384b0     libcpmt:winapinls.obj
 0002:000044c0       ??_C@_1M@HOKAOIO@?$AAa?$AAf?$AA?9?$AAZ?$AAA?$AA?$AA@ 00000001800384c0     libcpmt:winapinls.obj
 0002:000044d0       ??_C@_1M@DPCLHLIE@?$AAk?$AAa?$AA?9?$AAG?$AAE?$AA?$AA@ 00000001800384d0     libcpmt:winapinls.obj
 0002:000044e0       ??_C@_1M@BLKMHJBI@?$AAf?$AAo?$AA?9?$AAF?$AAO?$AA?$AA@ 00000001800384e0     libcpmt:winapinls.obj
 0002:000044f0       ??_C@_1M@LGGJAPPB@?$AAh?$AAi?$AA?9?$AAI?$AAN?$AA?$AA@ 00000001800384f0     libcpmt:winapinls.obj
 0002:00004500       ??_C@_1M@FIKPIHFE@?$AAm?$AAt?$AA?9?$AAM?$AAT?$AA?$AA@ 0000000180038500     libcpmt:winapinls.obj
 0002:00004510       ??_C@_1M@HEGGPBFA@?$AAs?$AAe?$AA?9?$AAN?$AAO?$AA?$AA@ 0000000180038510     libcpmt:winapinls.obj
 0002:00004520       ??_C@_1M@EIBJEEPA@?$AAm?$AAs?$AA?9?$AAM?$AAY?$AA?$AA@ 0000000180038520     libcpmt:winapinls.obj
 0002:00004530       ??_C@_1M@FHLBGMPP@?$AAk?$AAk?$AA?9?$AAK?$AAZ?$AA?$AA@ 0000000180038530     libcpmt:winapinls.obj
 0002:00004540       ??_C@_1M@NGJJLCGI@?$AAk?$AAy?$AA?9?$AAK?$AAG?$AA?$AA@ 0000000180038540     libcpmt:winapinls.obj
 0002:00004550       ??_C@_1M@GIENNBFC@?$AAs?$AAw?$AA?9?$AAK?$AAE?$AA?$AA@ 0000000180038550     libcpmt:winapinls.obj
 0002:00004560       ??_C@_1BG@NDGMJIMJ@?$AAu?$AAz?$AA?9?$AAU?$AAZ?$AA?9?$AAL?$AAa?$AAt?$AAn?$AA?$AA@ 0000000180038560     libcpmt:winapinls.obj
 0002:00004578       ??_C@_1M@IDCCIHBC@?$AAt?$AAt?$AA?9?$AAR?$AAU?$AA?$AA@ 0000000180038578     libcpmt:winapinls.obj
 0002:00004588       ??_C@_1M@LOICPMOJ@?$AAb?$AAn?$AA?9?$AAI?$AAN?$AA?$AA@ 0000000180038588     libcpmt:winapinls.obj
 0002:00004598       ??_C@_1M@KPKKNEAH@?$AAp?$AAa?$AA?9?$AAI?$AAN?$AA?$AA@ 0000000180038598     libcpmt:winapinls.obj
 0002:000045a8       ??_C@_1M@PJGPPBOG@?$AAg?$AAu?$AA?9?$AAI?$AAN?$AA?$AA@ 00000001800385a8     libcpmt:winapinls.obj
 0002:000045b8       ??_C@_1M@KMKMOPHI@?$AAt?$AAa?$AA?9?$AAI?$AAN?$AA?$AA@ 00000001800385b8     libcpmt:winapinls.obj
 0002:000045c8       ??_C@_1M@KFEHEPAC@?$AAt?$AAe?$AA?9?$AAI?$AAN?$AA?$AA@ 00000001800385c8     libcpmt:winapinls.obj
 0002:000045d8       ??_C@_1M@CDCLMGHI@?$AAk?$AAn?$AA?9?$AAI?$AAN?$AA?$AA@ 00000001800385d8     libcpmt:winapinls.obj
 0002:000045e8       ??_C@_1M@MIODLDKF@?$AAm?$AAl?$AA?9?$AAI?$AAN?$AA?$AA@ 00000001800385e8     libcpmt:winapinls.obj
 0002:000045f8       ??_C@_1M@PBIEACPO@?$AAm?$AAr?$AA?9?$AAI?$AAN?$AA?$AA@ 00000001800385f8     libcpmt:winapinls.obj
 0002:00004608       ??_C@_1M@NIDEAGPH@?$AAs?$AAa?$AA?9?$AAI?$AAN?$AA?$AA@ 0000000180038608     libcpmt:winapinls.obj
 0002:00004618       ??_C@_1M@FHIHCBIO@?$AAm?$AAn?$AA?9?$AAM?$AAN?$AA?$AA@ 0000000180038618     libcpmt:winapinls.obj
 0002:00004628       ??_C@_1M@JAIJPENP@?$AAc?$AAy?$AA?9?$AAG?$AAB?$AA?$AA@ 0000000180038628     libcpmt:winapinls.obj
 0002:00004638       ??_C@_1M@PHGFBEPN@?$AAg?$AAl?$AA?9?$AAE?$AAS?$AA?$AA@ 0000000180038638     libcpmt:winapinls.obj
 0002:00004648       ??_C@_1O@KPIPDNCP@?$AAk?$AAo?$AAk?$AA?9?$AAI?$AAN?$AA?$AA@ 0000000180038648     libcpmt:winapinls.obj
 0002:00004658       ??_C@_1O@KNHJLDJA@?$AAs?$AAy?$AAr?$AA?9?$AAS?$AAY?$AA?$AA@ 0000000180038658     libcpmt:winapinls.obj
 0002:00004668       ??_C@_1O@MKEKBLAH@?$AAd?$AAi?$AAv?$AA?9?$AAM?$AAV?$AA?$AA@ 0000000180038668     libcpmt:winapinls.obj
 0002:00004678       ??_C@_1O@OHDCKDDF@?$AAq?$AAu?$AAz?$AA?9?$AAB?$AAO?$AA?$AA@ 0000000180038678     libcpmt:winapinls.obj
 0002:00004688       ??_C@_1M@LEPJNLFD@?$AAn?$AAs?$AA?9?$AAZ?$AAA?$AA?$AA@ 0000000180038688     libcpmt:winapinls.obj
 0002:00004698       ??_C@_1M@OMLEIIJB@?$AAm?$AAi?$AA?9?$AAN?$AAZ?$AA?$AA@ 0000000180038698     libcpmt:winapinls.obj
 0002:000046a8       ??_C@_1M@PMPEAILG@?$AAa?$AAr?$AA?9?$AAI?$AAQ?$AA?$AA@ 00000001800386a8     libcpmt:winapinls.obj
 0002:000046b8       ??_C@_1M@BIBDDEMK@?$AAz?$AAh?$AA?9?$AAC?$AAN?$AA?$AA@ 00000001800386b8     libcpmt:winapinls.obj
 0002:000046c8       ??_C@_1M@CNKPNOEE@?$AAd?$AAe?$AA?9?$AAC?$AAH?$AA?$AA@ 00000001800386c8     libcpmt:winapinls.obj
 0002:000046d8       ??_C@_1M@LKMGMLKO@?$AAe?$AAn?$AA?9?$AAG?$AAB?$AA?$AA@ 00000001800386d8     libcpmt:winapinls.obj
 0002:000046e8       ??_C@_1M@PGKJFFGL@?$AAe?$AAs?$AA?9?$AAM?$AAX?$AA?$AA@ 00000001800386e8     libcpmt:winapinls.obj
 0002:000046f8       ??_C@_1M@DNNANBDC@?$AAf?$AAr?$AA?9?$AAB?$AAE?$AA?$AA@ 00000001800386f8     libcpmt:winapinls.obj
 0002:00004708       ??_C@_1M@HLGMDFHM@?$AAi?$AAt?$AA?9?$AAC?$AAH?$AA?$AA@ 0000000180038708     libcpmt:winapinls.obj
 0002:00004718       ??_C@_1M@CLLBGJH@?$AAn?$AAl?$AA?9?$AAB?$AAE?$AA?$AA@ 0000000180038718     libcpmt:winapinls.obj
 0002:00004728       ??_C@_1M@BODBOGLF@?$AAn?$AAn?$AA?9?$AAN?$AAO?$AA?$AA@ 0000000180038728     libcpmt:winapinls.obj
 0002:00004738       ??_C@_1M@HFFAHKAD@?$AAp?$AAt?$AA?9?$AAP?$AAT?$AA?$AA@ 0000000180038738     libcpmt:winapinls.obj
 0002:00004748       ??_C@_1BG@LNOAKHIE@?$AAs?$AAr?$AA?9?$AAS?$AAP?$AA?9?$AAL?$AAa?$AAt?$AAn?$AA?$AA@ 0000000180038748     libcpmt:winapinls.obj
 0002:00004760       ??_C@_1M@HBMHBGAK@?$AAs?$AAv?$AA?9?$AAF?$AAI?$AA?$AA@ 0000000180038760     libcpmt:winapinls.obj
 0002:00004770       ??_C@_1BG@DGCJGJBE@?$AAa?$AAz?$AA?9?$AAA?$AAZ?$AA?9?$AAC?$AAy?$AAr?$AAl?$AA?$AA@ 0000000180038770     libcpmt:winapinls.obj
 0002:00004788       ??_C@_1M@KEJDAAHB@?$AAs?$AAe?$AA?9?$AAS?$AAE?$AA?$AA@ 0000000180038788     libcpmt:winapinls.obj
 0002:00004798       ??_C@_1M@HEIBJJAD@?$AAm?$AAs?$AA?9?$AAB?$AAN?$AA?$AA@ 0000000180038798     libcpmt:winapinls.obj
 0002:000047a8       ??_C@_1BG@PBGJMCEM@?$AAu?$AAz?$AA?9?$AAU?$AAZ?$AA?9?$AAC?$AAy?$AAr?$AAl?$AA?$AA@ 00000001800387a8     libcpmt:winapinls.obj
 0002:000047c0       ??_C@_1O@LAOBCMDF@?$AAq?$AAu?$AAz?$AA?9?$AAE?$AAC?$AA?$AA@ 00000001800387c0     libcpmt:winapinls.obj
 0002:000047d0       ??_C@_1M@POEEMAIO@?$AAa?$AAr?$AA?9?$AAE?$AAG?$AA?$AA@ 00000001800387d0     libcpmt:winapinls.obj
 0002:000047e0       ??_C@_1M@EFAKDEDL@?$AAz?$AAh?$AA?9?$AAH?$AAK?$AA?$AA@ 00000001800387e0     libcpmt:winapinls.obj
 0002:000047f0       ??_C@_1M@HKKIJHGI@?$AAd?$AAe?$AA?9?$AAA?$AAT?$AA?$AA@ 00000001800387f0     libcpmt:winapinls.obj
 0002:00004800       ??_C@_1M@KBFBEHJF@?$AAe?$AAn?$AA?9?$AAA?$AAU?$AA?$AA@ 0000000180038800     libcpmt:winapinls.obj
 0002:00004810       ??_C@_1M@MNPLFAAH@?$AAe?$AAs?$AA?9?$AAE?$AAS?$AA?$AA@ 0000000180038810     libcpmt:winapinls.obj
 0002:00004820       ??_C@_1M@HJOOJFMA@?$AAf?$AAr?$AA?9?$AAC?$AAA?$AA?$AA@ 0000000180038820     libcpmt:winapinls.obj
 0002:00004830       ??_C@_1BG@JPOFPNAB@?$AAs?$AAr?$AA?9?$AAS?$AAP?$AA?9?$AAC?$AAy?$AAr?$AAl?$AA?$AA@ 0000000180038830     libcpmt:winapinls.obj
 0002:00004848       ??_C@_1M@LNFOCMOB@?$AAs?$AAe?$AA?9?$AAF?$AAI?$AA?$AA@ 0000000180038848     libcpmt:winapinls.obj
 0002:00004858       ??_C@_1O@MGJBOAMB@?$AAq?$AAu?$AAz?$AA?9?$AAP?$AAE?$AA?$AA@ 0000000180038858     libcpmt:winapinls.obj
 0002:00004868       ??_C@_1M@GJINLBOK@?$AAa?$AAr?$AA?9?$AAL?$AAY?$AA?$AA@ 0000000180038868     libcpmt:winapinls.obj
 0002:00004878       ??_C@_1M@GGMNHJNL@?$AAz?$AAh?$AA?9?$AAS?$AAG?$AA?$AA@ 0000000180038878     libcpmt:winapinls.obj
 0002:00004888       ??_C@_1M@HOIKODND@?$AAd?$AAe?$AA?9?$AAL?$AAU?$AA?$AA@ 0000000180038888     libcpmt:winapinls.obj
 0002:00004898       ??_C@_1M@DDOCCGFG@?$AAe?$AAn?$AA?9?$AAC?$AAA?$AA?$AA@ 0000000180038898     libcpmt:winapinls.obj
 0002:000048a8       ??_C@_1M@BNOEMJLF@?$AAe?$AAs?$AA?9?$AAG?$AAT?$AA?$AA@ 00000001800388a8     libcpmt:winapinls.obj
 0002:000048b8       ??_C@_1M@EOGNKEK@?$AAf?$AAr?$AA?9?$AAC?$AAH?$AA?$AA@ 00000001800388b8     libcpmt:winapinls.obj
 0002:000048c8       ??_C@_1M@FLIDJFHL@?$AAh?$AAr?$AA?9?$AAB?$AAA?$AA?$AA@ 00000001800388c8     libcpmt:winapinls.obj
 0002:000048d8       ??_C@_1O@FMCELNAJ@?$AAs?$AAm?$AAj?$AA?9?$AAN?$AAO?$AA?$AA@ 00000001800388d8     libcpmt:winapinls.obj
 0002:000048e8       ??_C@_1M@JHGLJMGJ@?$AAa?$AAr?$AA?9?$AAD?$AAZ?$AA?$AA@ 00000001800388e8     libcpmt:winapinls.obj
 0002:000048f8       ??_C@_1M@JKKFDCNP@?$AAz?$AAh?$AA?9?$AAM?$AAO?$AA?$AA@ 00000001800388f8     libcpmt:winapinls.obj
 0002:00004908       ??_C@_1M@GEEFALPE@?$AAd?$AAe?$AA?9?$AAL?$AAI?$AA?$AA@ 0000000180038908     libcpmt:winapinls.obj
 0002:00004918       ??_C@_1M@IGEOFBG@?$AAe?$AAn?$AA?9?$AAN?$AAZ?$AA?$AA@ 0000000180038918     libcpmt:winapinls.obj
 0002:00004928       ??_C@_1M@KDBONEHP@?$AAe?$AAs?$AA?9?$AAC?$AAR?$AA?$AA@ 0000000180038928     libcpmt:winapinls.obj
 0002:00004938       ??_C@_1M@FHMDOHNN@?$AAf?$AAr?$AA?9?$AAL?$AAU?$AA?$AA@ 0000000180038938     libcpmt:winapinls.obj
 0002:00004948       ??_C@_1BG@NFKKMAFG@?$AAb?$AAs?$AA?9?$AAB?$AAA?$AA?9?$AAL?$AAa?$AAt?$AAn?$AA?$AA@ 0000000180038948     libcpmt:winapinls.obj
 0002:00004960       ??_C@_1O@IMNBEMCI@?$AAs?$AAm?$AAj?$AA?9?$AAS?$AAE?$AA?$AA@ 0000000180038960     libcpmt:winapinls.obj
 0002:00004970       ??_C@_1M@DHHMBNDP@?$AAa?$AAr?$AA?9?$AAM?$AAA?$AA?$AA@ 0000000180038970     libcpmt:winapinls.obj
 0002:00004980       ??_C@_1M@BNBLJCGH@?$AAe?$AAn?$AA?9?$AAI?$AAE?$AA?$AA@ 0000000180038980     libcpmt:winapinls.obj
 0002:00004990       ??_C@_1M@GEPAFMDL@?$AAe?$AAs?$AA?9?$AAP?$AAA?$AA?$AA@ 0000000180038990     libcpmt:winapinls.obj
 0002:000049a0       ??_C@_1M@OJONDMDL@?$AAf?$AAr?$AA?9?$AAM?$AAC?$AA?$AA@ 00000001800389a0     libcpmt:winapinls.obj
 0002:000049b0       ??_C@_1BG@OBCNFJB@?$AAs?$AAr?$AA?9?$AAB?$AAA?$AA?9?$AAL?$AAa?$AAt?$AAn?$AA?$AA@ 00000001800389b0     libcpmt:winapinls.obj
 0002:000049c8       ??_C@_1O@KEMEEGPO@?$AAs?$AAm?$AAa?$AA?9?$AAN?$AAO?$AA?$AA@ 00000001800389c8     libcpmt:winapinls.obj
 0002:000049d8       ??_C@_1M@ELMGFODK@?$AAa?$AAr?$AA?9?$AAT?$AAN?$AA?$AA@ 00000001800389d8     libcpmt:winapinls.obj
 0002:000049e8       ??_C@_1M@BHDLHFAF@?$AAe?$AAn?$AA?9?$AAZ?$AAA?$AA?$AA@ 00000001800389e8     libcpmt:winapinls.obj
 0002:000049f8       ??_C@_1M@BMGIGLIF@?$AAe?$AAs?$AA?9?$AAD?$AAO?$AA?$AA@ 00000001800389f8     libcpmt:winapinls.obj
 0002:00004a08       ??_C@_1BG@CMBHIPBE@?$AAs?$AAr?$AA?9?$AAB?$AAA?$AA?9?$AAC?$AAy?$AAr?$AAl?$AA?$AA@ 0000000180038a08     libcpmt:winapinls.obj
 0002:00004a20       ??_C@_1O@HEDBLHNP@?$AAs?$AAm?$AAa?$AA?9?$AAS?$AAE?$AA?$AA@ 0000000180038a20     libcpmt:winapinls.obj
 0002:00004a30       ??_C@_1M@DAGCADIM@?$AAa?$AAr?$AA?9?$AAO?$AAM?$AA?$AA@ 0000000180038a30     libcpmt:winapinls.obj
 0002:00004a40       ??_C@_1M@FODLMICG@?$AAe?$AAn?$AA?9?$AAJ?$AAM?$AA?$AA@ 0000000180038a40     libcpmt:winapinls.obj
 0002:00004a50       ??_C@_1M@DNMLCIHB@?$AAe?$AAs?$AA?9?$AAV?$AAE?$AA?$AA@ 0000000180038a50     libcpmt:winapinls.obj
 0002:00004a60       ??_C@_1O@EOKHMKJK@?$AAs?$AAm?$AAs?$AA?9?$AAF?$AAI?$AA?$AA@ 0000000180038a60     libcpmt:winapinls.obj
 0002:00004a70       ??_C@_1M@CAFJMKOF@?$AAa?$AAr?$AA?9?$AAY?$AAE?$AA?$AA@ 0000000180038a70     libcpmt:winapinls.obj
 0002:00004a80       ??_C@_1M@CBFHIJLI@?$AAe?$AAn?$AA?9?$AAC?$AAB?$AA?$AA@ 0000000180038a80     libcpmt:winapinls.obj
 0002:00004a90       ??_C@_1M@BGNFLDN@?$AAe?$AAs?$AA?9?$AAC?$AAO?$AA?$AA@ 0000000180038a90     libcpmt:winapinls.obj
 0002:00004aa0       ??_C@_1O@JMPHMAMC@?$AAs?$AAm?$AAn?$AA?9?$AAF?$AAI?$AA?$AA@ 0000000180038aa0     libcpmt:winapinls.obj
 0002:00004ab0       ??_C@_1M@JLANABKE@?$AAa?$AAr?$AA?9?$AAS?$AAY?$AA?$AA@ 0000000180038ab0     libcpmt:winapinls.obj
 0002:00004ac0       ??_C@_1M@HPKGCFGN@?$AAe?$AAn?$AA?9?$AAB?$AAZ?$AA?$AA@ 0000000180038ac0     libcpmt:winapinls.obj
 0002:00004ad0       ??_C@_1M@OLJCMLGM@?$AAe?$AAs?$AA?9?$AAP?$AAE?$AA?$AA@ 0000000180038ad0     libcpmt:winapinls.obj
 0002:00004ae0       ??_C@_1M@MKKGFKLE@?$AAa?$AAr?$AA?9?$AAJ?$AAO?$AA?$AA@ 0000000180038ae0     libcpmt:winapinls.obj
 0002:00004af0       ??_C@_1M@EKPGLDNI@?$AAe?$AAn?$AA?9?$AAT?$AAT?$AA?$AA@ 0000000180038af0     libcpmt:winapinls.obj
 0002:00004b00       ??_C@_1M@OONGHFHE@?$AAe?$AAs?$AA?9?$AAA?$AAR?$AA?$AA@ 0000000180038b00     libcpmt:winapinls.obj
 0002:00004b10       ??_C@_1M@OOJFGBHE@?$AAa?$AAr?$AA?9?$AAL?$AAB?$AA?$AA@ 0000000180038b10     libcpmt:winapinls.obj
 0002:00004b20       ??_C@_1M@GCEJHNEG@?$AAe?$AAn?$AA?9?$AAZ?$AAW?$AA?$AA@ 0000000180038b20     libcpmt:winapinls.obj
 0002:00004b30       ??_C@_1M@JNOCAHJI@?$AAe?$AAs?$AA?9?$AAE?$AAC?$AA?$AA@ 0000000180038b30     libcpmt:winapinls.obj
 0002:00004b40       ??_C@_1M@JEFHPGGB@?$AAa?$AAr?$AA?9?$AAK?$AAW?$AA?$AA@ 0000000180038b40     libcpmt:winapinls.obj
 0002:00004b50       ??_C@_1M@MLKIBJOJ@?$AAe?$AAn?$AA?9?$AAP?$AAH?$AA?$AA@ 0000000180038b50     libcpmt:winapinls.obj
 0002:00004b60       ??_C@_1M@BDNIPEND@?$AAe?$AAs?$AA?9?$AAC?$AAL?$AA?$AA@ 0000000180038b60     libcpmt:winapinls.obj
 0002:00004b70       ??_C@_1M@MPNMEKBD@?$AAa?$AAr?$AA?9?$AAA?$AAE?$AA?$AA@ 0000000180038b70     libcpmt:winapinls.obj
 0002:00004b80       ??_C@_1M@KBJALCPI@?$AAe?$AAs?$AA?9?$AAU?$AAY?$AA?$AA@ 0000000180038b80     libcpmt:winapinls.obj
 0002:00004b90       ??_C@_1M@LLCCOAGA@?$AAa?$AAr?$AA?9?$AAB?$AAH?$AA?$AA@ 0000000180038b90     libcpmt:winapinls.obj
 0002:00004ba0       ??_C@_1M@PBFNCDEL@?$AAe?$AAs?$AA?9?$AAP?$AAY?$AA?$AA@ 0000000180038ba0     libcpmt:winapinls.obj
 0002:00004bb0       ??_C@_1M@EDGINPNP@?$AAa?$AAr?$AA?9?$AAQ?$AAA?$AA?$AA@ 0000000180038bb0     libcpmt:winapinls.obj
 0002:00004bc0       ??_C@_1M@MKDBIIJI@?$AAe?$AAs?$AA?9?$AAB?$AAO?$AA?$AA@ 0000000180038bc0     libcpmt:winapinls.obj
 0002:00004bd0       ??_C@_1M@CPKKEBLD@?$AAe?$AAs?$AA?9?$AAS?$AAV?$AA?$AA@ 0000000180038bd0     libcpmt:winapinls.obj
 0002:00004be0       ??_C@_1M@NDBGMMJL@?$AAe?$AAs?$AA?9?$AAH?$AAN?$AA?$AA@ 0000000180038be0     libcpmt:winapinls.obj
 0002:00004bf0       ??_C@_1M@JIJIBHDP@?$AAe?$AAs?$AA?9?$AAN?$AAI?$AA?$AA@ 0000000180038bf0     libcpmt:winapinls.obj
 0002:00004c00       ??_C@_1M@CGFMKEEK@?$AAe?$AAs?$AA?9?$AAP?$AAR?$AA?$AA@ 0000000180038c00     libcpmt:winapinls.obj
 0002:00004c10       ??_C@_1O@ICJHKIIK@?$AAz?$AAh?$AA?9?$AAC?$AAH?$AAT?$AA?$AA@ 0000000180038c10     libcpmt:winapinls.obj
 0002:00004c20       ??_C@_15CLNEJCE@?$AAs?$AAr?$AA?$AA@ 0000000180038c20     libcpmt:winapinls.obj
 0002:00004c28       ??_C@_1M@KAHEKEIG@?$AAa?$AAf?$AA?9?$AAz?$AAa?$AA?$AA@ 0000000180038c28     libcpmt:winapinls.obj
 0002:00004c38       ??_C@_1M@GIECOABL@?$AAa?$AAr?$AA?9?$AAa?$AAe?$AA?$AA@ 0000000180038c38     libcpmt:winapinls.obj
 0002:00004c48       ??_C@_1M@BMLMEKGI@?$AAa?$AAr?$AA?9?$AAb?$AAh?$AA?$AA@ 0000000180038c48     libcpmt:winapinls.obj
 0002:00004c58       ??_C@_1M@DAPFDGGB@?$AAa?$AAr?$AA?9?$AAd?$AAz?$AA?$AA@ 0000000180038c58     libcpmt:winapinls.obj
 0002:00004c68       ??_C@_1M@FJNKGKIG@?$AAa?$AAr?$AA?9?$AAe?$AAg?$AA?$AA@ 0000000180038c68     libcpmt:winapinls.obj
 0002:00004c78       ??_C@_1M@FLGKKCLO@?$AAa?$AAr?$AA?9?$AAi?$AAq?$AA?$AA@ 0000000180038c78     libcpmt:winapinls.obj
 0002:00004c88       ??_C@_1M@GNDIPALM@?$AAa?$AAr?$AA?9?$AAj?$AAo?$AA?$AA@ 0000000180038c88     libcpmt:winapinls.obj
 0002:00004c98       ??_C@_1M@DDMJFMGJ@?$AAa?$AAr?$AA?9?$AAk?$AAw?$AA?$AA@ 0000000180038c98     libcpmt:winapinls.obj
 0002:00004ca8       ??_C@_1M@EJALMLHM@?$AAa?$AAr?$AA?9?$AAl?$AAb?$AA?$AA@ 0000000180038ca8     libcpmt:winapinls.obj
 0002:00004cb8       ??_C@_1M@MOBDBLOC@?$AAa?$AAr?$AA?9?$AAl?$AAy?$AA?$AA@ 0000000180038cb8     libcpmt:winapinls.obj
 0002:00004cc8       ??_C@_1M@JAOCLHDH@?$AAa?$AAr?$AA?9?$AAm?$AAa?$AA?$AA@ 0000000180038cc8     libcpmt:winapinls.obj
 0002:00004cd8       ??_C@_1M@JHPMKJIE@?$AAa?$AAr?$AA?9?$AAo?$AAm?$AA?$AA@ 0000000180038cd8     libcpmt:winapinls.obj
 0002:00004ce8       ??_C@_1M@OEPGHFNH@?$AAa?$AAr?$AA?9?$AAq?$AAa?$AA?$AA@ 0000000180038ce8     libcpmt:winapinls.obj
 0002:00004cf8       ??_C@_1M@KJDONENM@?$AAa?$AAr?$AA?9?$AAs?$AAa?$AA?$AA@ 0000000180038cf8     libcpmt:winapinls.obj
 0002:00004d08       ??_C@_1M@DMJDKLKM@?$AAa?$AAr?$AA?9?$AAs?$AAy?$AA?$AA@ 0000000180038d08     libcpmt:winapinls.obj
 0002:00004d18       ??_C@_1M@OMFIPEDC@?$AAa?$AAr?$AA?9?$AAt?$AAn?$AA?$AA@ 0000000180038d18     libcpmt:winapinls.obj
 0002:00004d28       ??_C@_1M@IHMHGAON@?$AAa?$AAr?$AA?9?$AAy?$AAe?$AA?$AA@ 0000000180038d28     libcpmt:winapinls.obj
 0002:00004d38       ??_C@_1BG@KDCPGJGB@?$AAa?$AAz?$AA?9?$AAa?$AAz?$AA?9?$AAc?$AAy?$AAr?$AAl?$AA?$AA@ 0000000180038d38     libcpmt:winapinls.obj
 0002:00004d50       ??_C@_1BG@IBCKDDOE@?$AAa?$AAz?$AA?9?$AAa?$AAz?$AA?9?$AAl?$AAa?$AAt?$AAn?$AA?$AA@ 0000000180038d50     libcpmt:winapinls.obj
 0002:00004d68       ??_C@_1M@EGPFDCPD@?$AAb?$AAe?$AA?9?$AAb?$AAy?$AA?$AA@ 0000000180038d68     libcpmt:winapinls.obj
 0002:00004d78       ??_C@_1M@PCMGMCGC@?$AAb?$AAg?$AA?9?$AAb?$AAg?$AA?$AA@ 0000000180038d78     libcpmt:winapinls.obj
 0002:00004d88       ??_C@_1M@BJBMFGOB@?$AAb?$AAn?$AA?9?$AAi?$AAn?$AA?$AA@ 0000000180038d88     libcpmt:winapinls.obj
 0002:00004d98       ??_C@_1BG@EAKMMACD@?$AAb?$AAs?$AA?9?$AAb?$AAa?$AA?9?$AAl?$AAa?$AAt?$AAn?$AA?$AA@ 0000000180038d98     libcpmt:winapinls.obj
 0002:00004db0       ??_C@_1M@KGADAODK@?$AAc?$AAa?$AA?9?$AAe?$AAs?$AA?$AA@ 0000000180038db0     libcpmt:winapinls.obj
 0002:00004dc0       ??_C@_1M@COAJPDHI@?$AAc?$AAs?$AA?9?$AAc?$AAz?$AA?$AA@ 0000000180038dc0     libcpmt:winapinls.obj
 0002:00004dd0       ??_C@_1M@DHBHFONH@?$AAc?$AAy?$AA?9?$AAg?$AAb?$AA?$AA@ 0000000180038dd0     libcpmt:winapinls.obj
 0002:00004de0       ??_C@_1M@IMGKELGA@?$AAd?$AAa?$AA?9?$AAd?$AAk?$AA?$AA@ 0000000180038de0     libcpmt:winapinls.obj
 0002:00004df0       ??_C@_1M@NNDGDNGA@?$AAd?$AAe?$AA?9?$AAa?$AAt?$AA?$AA@ 0000000180038df0     libcpmt:winapinls.obj
 0002:00004e00       ??_C@_1M@IKDBHEEM@?$AAd?$AAe?$AA?9?$AAc?$AAh?$AA?$AA@ 0000000180038e00     libcpmt:winapinls.obj
 0002:00004e10       ??_C@_1M@GFFOJMCJ@?$AAd?$AAe?$AA?9?$AAd?$AAe?$AA?$AA@ 0000000180038e10     libcpmt:winapinls.obj
 0002:00004e20       ??_C@_1M@MDNLKBPM@?$AAd?$AAe?$AA?9?$AAl?$AAi?$AA?$AA@ 0000000180038e20     libcpmt:winapinls.obj
 0002:00004e30       ??_C@_1M@NJBEEJNL@?$AAd?$AAe?$AA?9?$AAl?$AAu?$AA?$AA@ 0000000180038e30     libcpmt:winapinls.obj
 0002:00004e40       ??_C@_1O@GNNELBAP@?$AAd?$AAi?$AAv?$AA?9?$AAm?$AAv?$AA?$AA@ 0000000180038e40     libcpmt:winapinls.obj
 0002:00004e50       ??_C@_1M@EJLEOGAE@?$AAe?$AAl?$AA?9?$AAg?$AAr?$AA?$AA@ 0000000180038e50     libcpmt:winapinls.obj
 0002:00004e60       ??_C@_1M@GMPONJN@?$AAe?$AAn?$AA?9?$AAa?$AAu?$AA?$AA@ 0000000180038e60     libcpmt:winapinls.obj
 0002:00004e70       ??_C@_1M@NIDIIPGF@?$AAe?$AAn?$AA?9?$AAb?$AAz?$AA?$AA@ 0000000180038e70     libcpmt:winapinls.obj
 0002:00004e80       ??_C@_1M@JEHMIMFO@?$AAe?$AAn?$AA?9?$AAc?$AAa?$AA?$AA@ 0000000180038e80     libcpmt:winapinls.obj
 0002:00004e90       ??_C@_1M@IGMJCDLA@?$AAe?$AAn?$AA?9?$AAc?$AAb?$AA?$AA@ 0000000180038e90     libcpmt:winapinls.obj
 0002:00004ea0       ??_C@_1M@BNFIGBKG@?$AAe?$AAn?$AA?9?$AAg?$AAb?$AA?$AA@ 0000000180038ea0     libcpmt:winapinls.obj
 0002:00004eb0       ??_C@_1M@LKIFDIGP@?$AAe?$AAn?$AA?9?$AAi?$AAe?$AA?$AA@ 0000000180038eb0     libcpmt:winapinls.obj
 0002:00004ec0       ??_C@_1M@PJKFGCCO@?$AAe?$AAn?$AA?9?$AAj?$AAm?$AA?$AA@ 0000000180038ec0     libcpmt:winapinls.obj
 0002:00004ed0       ??_C@_1M@KPPKEPBO@?$AAe?$AAn?$AA?9?$AAn?$AAz?$AA?$AA@ 0000000180038ed0     libcpmt:winapinls.obj
 0002:00004ee0       ??_C@_1M@GMDGLDOB@?$AAe?$AAn?$AA?9?$AAp?$AAh?$AA?$AA@ 0000000180038ee0     libcpmt:winapinls.obj
 0002:00004ef0       ??_C@_1M@ONGIBJNA@?$AAe?$AAn?$AA?9?$AAt?$AAt?$AA?$AA@ 0000000180038ef0     libcpmt:winapinls.obj
 0002:00004f00       ??_C@_1M@LLODPCMM@?$AAe?$AAn?$AA?9?$AAu?$AAs?$AA?$AA@ 0000000180038f00     libcpmt:winapinls.obj
 0002:00004f10       ??_C@_1M@LAKFNPAN@?$AAe?$AAn?$AA?9?$AAz?$AAa?$AA?$AA@ 0000000180038f10     libcpmt:winapinls.obj
 0002:00004f20       ??_C@_1M@MFNHNHEO@?$AAe?$AAn?$AA?9?$AAz?$AAw?$AA?$AA@ 0000000180038f20     libcpmt:winapinls.obj
 0002:00004f30       ??_C@_1M@EJEINPHM@?$AAe?$AAs?$AA?9?$AAa?$AAr?$AA?$AA@ 0000000180038f30     libcpmt:winapinls.obj
 0002:00004f40       ??_C@_1M@GNKPCCJA@?$AAe?$AAs?$AA?9?$AAb?$AAo?$AA?$AA@ 0000000180038f40     libcpmt:winapinls.obj
 0002:00004f50       ??_C@_1M@LEEGFONL@?$AAe?$AAs?$AA?9?$AAc?$AAl?$AA?$AA@ 0000000180038f50     libcpmt:winapinls.obj
 0002:00004f60       ??_C@_1M@KGPDPBDF@?$AAe?$AAs?$AA?9?$AAc?$AAo?$AA?$AA@ 0000000180038f60     libcpmt:winapinls.obj
 0002:00004f70       ??_C@_1M@EIAHOHH@?$AAe?$AAs?$AA?9?$AAc?$AAr?$AA?$AA@ 0000000180038f70     libcpmt:winapinls.obj
 0002:00004f80       ??_C@_1M@LLPGMBIN@?$AAe?$AAs?$AA?9?$AAd?$AAo?$AA?$AA@ 0000000180038f80     libcpmt:winapinls.obj
 0002:00004f90       ??_C@_1M@DKHMKNJA@?$AAe?$AAs?$AA?9?$AAe?$AAc?$AA?$AA@ 0000000180038f90     libcpmt:winapinls.obj
 0002:00004fa0       ??_C@_1M@GKGFPKAP@?$AAe?$AAs?$AA?9?$AAe?$AAs?$AA?$AA@ 0000000180038fa0     libcpmt:winapinls.obj
 0002:00004fb0       ??_C@_1M@LKHKGDLN@?$AAe?$AAs?$AA?9?$AAg?$AAt?$AA?$AA@ 0000000180038fb0     libcpmt:winapinls.obj
 0002:00004fc0       ??_C@_1M@HEIIGGJD@?$AAe?$AAs?$AA?9?$AAh?$AAn?$AA?$AA@ 0000000180038fc0     libcpmt:winapinls.obj
 0002:00004fd0       ??_C@_1M@FBDHPPGD@?$AAe?$AAs?$AA?9?$AAm?$AAx?$AA?$AA@ 0000000180038fd0     libcpmt:winapinls.obj
 0002:00004fe0       ??_C@_1M@DPAGLNDH@?$AAe?$AAs?$AA?9?$AAn?$AAi?$AA?$AA@ 0000000180038fe0     libcpmt:winapinls.obj
 0002:00004ff0       ??_C@_1M@MDGOPGDD@?$AAe?$AAs?$AA?9?$AAp?$AAa?$AA?$AA@ 0000000180038ff0     libcpmt:winapinls.obj
 0002:00005000       ??_C@_1M@EMAMGBGE@?$AAe?$AAs?$AA?9?$AAp?$AAe?$AA?$AA@ 0000000180039000     libcpmt:winapinls.obj
 0002:00005010       ??_C@_1M@IBMCAOEC@?$AAe?$AAs?$AA?9?$AAp?$AAr?$AA?$AA@ 0000000180039010     libcpmt:winapinls.obj
 0002:00005020       ??_C@_1M@FGMDIJED@?$AAe?$AAs?$AA?9?$AAp?$AAy?$AA?$AA@ 0000000180039020     libcpmt:winapinls.obj
 0002:00005030       ??_C@_1M@IIDEOLLL@?$AAe?$AAs?$AA?9?$AAs?$AAv?$AA?$AA@ 0000000180039030     libcpmt:winapinls.obj
 0002:00005040       ??_C@_1M@GAOBIPA@?$AAe?$AAs?$AA?9?$AAu?$AAy?$AA?$AA@ 0000000180039040     libcpmt:winapinls.obj
 0002:00005050       _pRawDllMain               0000000180039050     LIBCMT:dll_dllmain.obj
 0002:00005050       _pDefaultRawDllMain        0000000180039050     LIBCMT:dll_dllmain.obj
 0002:00005060       ??_7type_info@@6B@         0000000180039060     LIBCMT:std_type_info_static.obj
 0002:00005080       ??_7bad_array_new_length@std@@6B@ 0000000180039080     LIBCMT:throw_bad_alloc.obj
 0002:00005090       ??_C@_0BF@KINCDENJ@bad?5array?5new?5length?$AA@ 0000000180039090     LIBCMT:throw_bad_alloc.obj
 0002:000050a8       _pDestructExceptionObject  00000001800390a8     libvcruntime:frame.obj
 0002:000050b8       ??_7bad_exception@std@@6B@ 00000001800390b8     libvcruntime:frame.obj
 0002:000050c8       ??_C@_0O@DPKOEFFH@bad?5exception?$AA@ 00000001800390c8     libvcruntime:frame.obj
 0002:000051e0       ??_C@_1BC@DNHGCMLG@?$AAa?$AAd?$AAv?$AAa?$AAp?$AAi?$AA3?$AA2?$AA?$AA@ 00000001800391e0     libvcruntime:winapi_downlevel.obj
 0002:000051f8       ??_C@_1DM@KHCHBNEB@?$AAa?$AAp?$AAi?$AA?9?$AAm?$AAs?$AA?9?$AAw?$AAi?$AAn?$AA?9?$AAc?$AAo?$AAr?$AAe?$AA?9?$AAf?$AAi?$AAb?$AAe?$AAr?$AAs?$AA?9?$AAl?$AA1?$AA?9?$AA1?$AA?9?$AA1?$AA?$AA@ 00000001800391f8     libvcruntime:winapi_downlevel.obj
 0002:00005238       ??_C@_1DK@LPPGFMPP@?$AAa?$AAp?$AAi?$AA?9?$AAm?$AAs?$AA?9?$AAw?$AAi?$AAn?$AA?9?$AAc?$AAo?$AAr?$AAe?$AA?9?$AAs?$AAy?$AAn?$AAc?$AAh?$AA?9?$AAl?$AA1?$AA?9?$AA2?$AA?9?$AA0?$AA?$AA@ 0000000180039238     libvcruntime:winapi_downlevel.obj
 0002:00005278       ??_C@_1BC@GDMECMAK@?$AAk?$AAe?$AAr?$AAn?$AAe?$AAl?$AA3?$AA2?$AA?$AA@ 0000000180039278     libvcruntime:winapi_downlevel.obj
 0002:000055e0       ??_C@_08EHJDFFNH@__based?$CI?$AA@ 00000001800395e0     libvcruntime:undname.obj
 0002:000055f0       ??_C@_07KOLFKCDI@__cdecl?$AA@ 00000001800395f0     libvcruntime:undname.obj
 0002:000055f8       ??_C@_08GHMPAG@__pascal?$AA@ 00000001800395f8     libvcruntime:undname.obj
 0002:00005608       ??_C@_09IFJBGAPI@__stdcall?$AA@ 0000000180039608     libvcruntime:undname.obj
 0002:00005618       ??_C@_0L@NPHFGOKO@__thiscall?$AA@ 0000000180039618     libvcruntime:undname.obj
 0002:00005628       ??_C@_0L@JMKHOMEK@__fastcall?$AA@ 0000000180039628     libvcruntime:undname.obj
 0002:00005638       ??_C@_0N@BCKKPABJ@__vectorcall?$AA@ 0000000180039638     libvcruntime:undname.obj
 0002:00005648       ??_C@_09HIJEGCPM@__clrcall?$AA@ 0000000180039648     libvcruntime:undname.obj
 0002:00005654       ??_C@_06GHPCKEAG@__eabi?$AA@ 0000000180039654     libvcruntime:undname.obj
 0002:00005660       ??_C@_07JOMMBBKO@__ptr64?$AA@ 0000000180039660     libvcruntime:undname.obj
 0002:00005668       ??_C@_0L@PILCLIHE@__restrict?$AA@ 0000000180039668     libvcruntime:undname.obj
 0002:00005678       ??_C@_0M@GFIIJFMG@__unaligned?$AA@ 0000000180039678     libvcruntime:undname.obj
 0002:00005688       ??_C@_09DHDLOLLB@restrict?$CI?$AA@ 0000000180039688     libvcruntime:undname.obj
 0002:00005694       ??_C@_04NIHEBCM@?5new?$AA@ 0000000180039694     libvcruntime:undname.obj
 0002:000056a0       ??_C@_07FPCDHGMM@?5delete?$AA@ 00000001800396a0     libvcruntime:undname.obj
 0002:000056a8       ??_C@_01NEMOKFLO@?$DN?$AA@ 00000001800396a8     libvcruntime:undname.obj
 0002:000056ac       ??_C@_02GPIOPFAK@?$DO?$DO?$AA@ 00000001800396ac     libvcruntime:undname.obj
 0002:000056b0       ??_C@_02FODMEDOG@?$DM?$DM?$AA@ 00000001800396b0     libvcruntime:undname.obj
 0002:000056b4       ??_C@_01DCLJPIOD@?$CB?$AA@ 00000001800396b4     libvcruntime:undname.obj
 0002:000056b8       ??_C@_02EGOFBIJA@?$DN?$DN?$AA@ 00000001800396b8     libvcruntime:undname.obj
 0002:000056bc       ??_C@_02FDNJECIE@?$CB?$DN?$AA@ 00000001800396bc     libvcruntime:undname.obj
 0002:000056c0       ??_C@_02GPECMEKF@?$FL?$FN?$AA@ 00000001800396c0     libvcruntime:undname.obj
 0002:000056c8       ??_C@_08LHJFAFGD@operator?$AA@ 00000001800396c8     libvcruntime:undname.obj
 0002:000056d4       ??_C@_02HBOOOICD@?9?$DO?$AA@ 00000001800396d4     libvcruntime:undname.obj
 0002:000056d8       ??_C@_02ECNGHCIF@?$CL?$CL?$AA@ 00000001800396d8     libvcruntime:undname.obj
 0002:000056dc       ??_C@_02BAABKJLB@?9?9?$AA@ 00000001800396dc     libvcruntime:undname.obj
 0002:000056e0       ??_C@_01MIFGBAGJ@?$CL?$AA@ 00000001800396e0     libvcruntime:undname.obj
 0002:000056e4       ??_C@_01HNPIGOCE@?$CG?$AA@ 00000001800396e4     libvcruntime:undname.obj
 0002:000056e8       ??_C@_03MNHNFDLC@?9?$DO?$CK?$AA@ 00000001800396e8     libvcruntime:undname.obj
 0002:000056ec       ??_C@_01KMDKNFGN@?1?$AA@   00000001800396ec     libvcruntime:undname.obj
 0002:000056f0       ??_C@_01FGNFDNOH@?$CF?$AA@ 00000001800396f0     libvcruntime:undname.obj
 0002:000056f4       ??_C@_01MNNFJEPP@?$DM?$AA@ 00000001800396f4     libvcruntime:undname.obj
 0002:000056f8       ??_C@_02EHCHHCKH@?$DM?$DN?$AA@ 00000001800396f8     libvcruntime:undname.obj
 0002:000056fc       ??_C@_01PPODPGHN@?$DO?$AA@ 00000001800396fc     libvcruntime:undname.obj
 0002:00005700       ??_C@_02EEKDKGMJ@?$DO?$DN?$AA@ 0000000180039700     libvcruntime:undname.obj
 0002:00005704       ??_C@_02HCKGKOFO@?$CI?$CJ?$AA@ 0000000180039704     libvcruntime:undname.obj
 0002:00005708       ??_C@_01PJKLJHI@?$HO?$AA@  0000000180039708     libvcruntime:undname.obj
 0002:0000570c       ??_C@_01JKBOJNNK@?$FO?$AA@ 000000018003970c     libvcruntime:undname.obj
 0002:00005710       ??_C@_01DNKMNLPK@?$HM?$AA@ 0000000180039710     libvcruntime:undname.obj
 0002:00005714       ??_C@_02PPKAJPJL@?$CG?$CG?$AA@ 0000000180039714     libvcruntime:undname.obj
 0002:00005718       ??_C@_02NONPIBCD@?$HM?$HM?$AA@ 0000000180039718     libvcruntime:undname.obj
 0002:0000571c       ??_C@_02FPIMKNGF@?$CK?$DN?$AA@ 000000018003971c     libvcruntime:undname.obj
 0002:00005720       ??_C@_02FOEOMHFC@?$CL?$DN?$AA@ 0000000180039720     libvcruntime:undname.obj
 0002:00005724       ??_C@_02FKMDLLOA@?9?$DN?$AA@ 0000000180039724     libvcruntime:undname.obj
 0002:00005728       ??_C@_02FJEHGPIO@?1?$DN?$AA@ 0000000180039728     libvcruntime:undname.obj
 0002:0000572c       ??_C@_02FENAOKFI@?$CF?$DN?$AA@ 000000018003972c     libvcruntime:undname.obj
 0002:00005730       ??_C@_03IKFCCPFF@?$DO?$DO?$DN?$AA@ 0000000180039730     libvcruntime:undname.obj
 0002:00005734       ??_C@_03CDNPDDLA@?$DM?$DM?$DN?$AA@ 0000000180039734     libvcruntime:undname.obj
 0002:00005738       ??_C@_02FGJGFEAB@?$CG?$DN?$AA@ 0000000180039738     libvcruntime:undname.obj
 0002:0000573c       ??_C@_02DHLNPPGH@?$HM?$DN?$AA@ 000000018003973c     libvcruntime:undname.obj
 0002:00005740       ??_C@_02MHEGNOJ@?$FO?$DN?$AA@ 0000000180039740     libvcruntime:undname.obj
 0002:00005748       ??_C@_09IFPLHPGF@?$GAvftable?8?$AA@ 0000000180039748     libvcruntime:undname.obj
 0002:00005758       ??_C@_09BLBHBJP@?$GAvbtable?8?$AA@ 0000000180039758     libvcruntime:undname.obj
 0002:00005768       ??_C@_07FEEIOKP@?$GAvcall?8?$AA@ 0000000180039768     libvcruntime:undname.obj
 0002:00005770       ??_C@_08LLFFHHDJ@?$GAtypeof?8?$AA@ 0000000180039770     libvcruntime:undname.obj
 0002:00005780       ??_C@_0BF@KDPPACIK@?$GAlocal?5static?5guard?8?$AA@ 0000000180039780     libvcruntime:undname.obj
 0002:00005798       ??_C@_08OBABFOLI@?$GAstring?8?$AA@ 0000000180039798     libvcruntime:undname.obj
 0002:000057a8       ??_C@_0BD@JDLKDPAB@?$GAvbase?5destructor?8?$AA@ 00000001800397a8     libvcruntime:undname.obj
 0002:000057c0       ??_C@_0BN@DEGPLNFK@?$GAvector?5deleting?5destructor?8?$AA@ 00000001800397c0     libvcruntime:undname.obj
 0002:000057e0       ??_C@_0BO@OBMKPJIG@?$GAdefault?5constructor?5closure?8?$AA@ 00000001800397e0     libvcruntime:undname.obj
 0002:00005800       ??_C@_0BN@IMDCHIKM@?$GAscalar?5deleting?5destructor?8?$AA@ 0000000180039800     libvcruntime:undname.obj
 0002:00005820       ??_C@_0BO@PFGOCPJJ@?$GAvector?5constructor?5iterator?8?$AA@ 0000000180039820     libvcruntime:undname.obj
 0002:00005840       ??_C@_0BN@LFPFMEDL@?$GAvector?5destructor?5iterator?8?$AA@ 0000000180039840     libvcruntime:undname.obj
 0002:00005860       ??_C@_0CE@IKBNEHA@?$GAvector?5vbase?5constructor?5iterat@ 0000000180039860     libvcruntime:undname.obj
 0002:00005888       ??_C@_0BL@NILFHHPC@?$GAvirtual?5displacement?5map?8?$AA@ 0000000180039888     libvcruntime:undname.obj
 0002:000058a8       ??_C@_0CB@JONCMFFK@?$GAeh?5vector?5constructor?5iterator?8@ 00000001800398a8     libvcruntime:undname.obj
 0002:000058d0       ??_C@_0CA@GCEOPDGL@?$GAeh?5vector?5destructor?5iterator?8?$AA@ 00000001800398d0     libvcruntime:undname.obj
 0002:000058f0       ??_C@_0CH@OOJPLCPH@?$GAeh?5vector?5vbase?5constructor?5ite@ 00000001800398f0     libvcruntime:undname.obj
 0002:00005918       ??_C@_0BL@LLKPOHJI@?$GAcopy?5constructor?5closure?8?$AA@ 0000000180039918     libvcruntime:undname.obj
 0002:00005938       ??_C@_0BA@KBCDOMBN@?$GAudt?5returning?8?$AA@ 0000000180039938     libvcruntime:undname.obj
 0002:00005948       ??_C@_03KLGMFNMG@?$GAEH?$AA@ 0000000180039948     libvcruntime:undname.obj
 0002:0000594c       ??_C@_05KHLCHHI@?$GARTTI?$AA@ 000000018003994c     libvcruntime:undname.obj
 0002:00005958       ??_C@_0BA@KKLDJDLB@?$GAlocal?5vftable?8?$AA@ 0000000180039958     libvcruntime:undname.obj
 0002:00005968       ??_C@_0CE@IIHCMGGL@?$GAlocal?5vftable?5constructor?5closu@ 0000000180039968     libvcruntime:undname.obj
 0002:0000598c       ??_C@_06FHBGPFGH@?5new?$FL?$FN?$AA@ 000000018003998c     libvcruntime:undname.obj
 0002:00005998       ??_C@_09LBNFPBCA@?5delete?$FL?$FN?$AA@ 0000000180039998     libvcruntime:undname.obj
 0002:000059a8       ??_C@_0P@HJKNJFNN@?$GAomni?5callsig?8?$AA@ 00000001800399a8     libvcruntime:undname.obj
 0002:000059b8       ??_C@_0BL@CNOONJFP@?$GAplacement?5delete?5closure?8?$AA@ 00000001800399b8     libvcruntime:undname.obj
 0002:000059d8       ??_C@_0BN@CKNJLHMB@?$GAplacement?5delete?$FL?$FN?5closure?8?$AA@ 00000001800399d8     libvcruntime:undname.obj
 0002:000059f8       ??_C@_0CG@CFDHKGGD@?$GAmanaged?5vector?5constructor?5iter@ 00000001800399f8     libvcruntime:undname.obj
 0002:00005a20       ??_C@_0CF@IMGKMJNO@?$GAmanaged?5vector?5destructor?5itera@ 0000000180039a20     libvcruntime:undname.obj
 0002:00005a48       ??_C@_0CG@HLDDJMAG@?$GAeh?5vector?5copy?5constructor?5iter@ 0000000180039a48     libvcruntime:undname.obj
 0002:00005a70       ??_C@_0CM@FCBBDIGB@?$GAeh?5vector?5vbase?5copy?5constructo@ 0000000180039a70     libvcruntime:undname.obj
 0002:00005aa0       ??_C@_0BL@CLIPGLGB@?$GAdynamic?5initializer?5for?5?8?$AA@ 0000000180039aa0     libvcruntime:undname.obj
 0002:00005ac0       ??_C@_0CB@PDBIFEP@?$GAdynamic?5atexit?5destructor?5for?5?8@ 0000000180039ac0     libvcruntime:undname.obj
 0002:00005ae8       ??_C@_0CD@CGAJBKEJ@?$GAvector?5copy?5constructor?5iterato@ 0000000180039ae8     libvcruntime:undname.obj
 0002:00005b10       ??_C@_0CJ@GJELGAMM@?$GAvector?5vbase?5copy?5constructor?5i@ 0000000180039b10     libvcruntime:undname.obj
 0002:00005b40       ??_C@_0CL@FGIJHLCE@?$GAmanaged?5vector?5copy?5constructor@ 0000000180039b40     libvcruntime:undname.obj
 0002:00005b70       ??_C@_0BM@PMGGMLDN@?$GAlocal?5static?5thread?5guard?8?$AA@ 0000000180039b70     libvcruntime:undname.obj
 0002:00005b90       ??_C@_0N@BDNMDMOL@operator?5?$CC?$CC?5?$AA@ 0000000180039b90     libvcruntime:undname.obj
 0002:00005ba0       ??_C@_0BC@DAFEJGAK@?5Type?5Descriptor?8?$AA@ 0000000180039ba0     libvcruntime:undname.obj
 0002:00005bb8       ??_C@_0BM@LDKODKLH@?5Base?5Class?5Descriptor?5at?5?$CI?$AA@ 0000000180039bb8     libvcruntime:undname.obj
 0002:00005bd8       ??_C@_0BD@LGICGFMM@?5Base?5Class?5Array?8?$AA@ 0000000180039bd8     libvcruntime:undname.obj
 0002:00005bf0       ??_C@_0BN@MECKDCOJ@?5Class?5Hierarchy?5Descriptor?8?$AA@ 0000000180039bf0     libvcruntime:undname.obj
 0002:00005c10       ??_C@_0BK@CFCOFLF@?5Complete?5Object?5Locator?8?$AA@ 0000000180039c10     libvcruntime:undname.obj
 0002:00005c30       ??_C@_1EK@MBDPDCGA@?$AAM?$AAi?$AAc?$AAr?$AAo?$AAs?$AAo?$AAf?$AAt?$AA?5?$AAV?$AAi?$AAs?$AAu?$AAa?$AAl?$AA?5?$AAC?$AA?$CL?$AA?$CL?$AA?5?$AAR?$AAu?$AAn?$AAt?$AAi?$AAm?$AAe?$AA?5?$AAL?$AAi?$AAb@ 0000000180039c30     libucrt:assert.obj
 0002:00005c80       ??_C@_1FE@LHBLIKM@?$AAA?$AAs?$AAs?$AAe?$AAr?$AAt?$AAi?$AAo?$AAn?$AA?5?$AAf?$AAa?$AAi?$AAl?$AAe?$AAd?$AA?3?$AA?5?$AA?$CF?$AAT?$AAs?$AA?0?$AA?5?$AAf?$AAi?$AAl?$AAe?$AA?5?$AA?$CF?$AAT?$AAs?$AA?0@ 0000000180039c80     libucrt:assert.obj
 0002:00005cd8       ??_C@_1CE@OJBNHDMO@?$AAA?$AAs?$AAs?$AAe?$AAr?$AAt?$AAi?$AAo?$AAn?$AA?5?$AAf?$AAa?$AAi?$AAl?$AAe?$AAd?$AA?$CB?$AA?$AA@ 0000000180039cd8     libucrt:assert.obj
 0002:00005d00       ??_C@_1BE@PHKBBGE@?$AAP?$AAr?$AAo?$AAg?$AAr?$AAa?$AAm?$AA?3?$AA?5?$AA?$AA@ 0000000180039d00     libucrt:assert.obj
 0002:00005d18       ??_C@_1O@HEMHKNDC@?$AAF?$AAi?$AAl?$AAe?$AA?3?$AA?5?$AA?$AA@ 0000000180039d18     libucrt:assert.obj
 0002:00005d28       ??_C@_1O@KCAFKHJE@?$AAL?$AAi?$AAn?$AAe?$AA?3?$AA?5?$AA?$AA@ 0000000180039d28     libucrt:assert.obj
 0002:00005d38       ??_C@_1BK@PEDCIPMA@?$AAE?$AAx?$AAp?$AAr?$AAe?$AAs?$AAs?$AAi?$AAo?$AAn?$AA?3?$AA?5?$AA?$AA@ 0000000180039d38     libucrt:assert.obj
 0002:00005d60       ??_C@_1OA@EGMLFBHJ@?$AAF?$AAo?$AAr?$AA?5?$AAi?$AAn?$AAf?$AAo?$AAr?$AAm?$AAa?$AAt?$AAi?$AAo?$AAn?$AA?5?$AAo?$AAn?$AA?5?$AAh?$AAo?$AAw?$AA?5?$AAy?$AAo?$AAu?$AAr?$AA?5?$AAp?$AAr?$AAo?$AAg@ 0000000180039d60     libucrt:assert.obj
 0002:00005e40       ??_C@_1HK@POCJMFGK@?$AA?$CI?$AAP?$AAr?$AAe?$AAs?$AAs?$AA?5?$AAR?$AAe?$AAt?$AAr?$AAy?$AA?5?$AAt?$AAo?$AA?5?$AAd?$AAe?$AAb?$AAu?$AAg?$AA?5?$AAt?$AAh?$AAe?$AA?5?$AAa?$AAp?$AAp?$AAl?$AAi?$AAc@ 0000000180039e40     libucrt:assert.obj
 0002:00005ec0       ??_C@_17LGKOMLJ@?$AA?4?$AA?4?$AA?4?$AA?$AA@ 0000000180039ec0     libucrt:assert.obj
 0002:00005ec8       ??_C@_13LBAGMAIH@?$AA?6?$AA?$AA@ 0000000180039ec8     libucrt:assert.obj
 0002:00005ecc       ??_C@_15IABLJNFO@?$AA?6?$AA?6?$AA?$AA@ 0000000180039ecc     libucrt:assert.obj
 0002:00005ed8       ??_C@_1CO@EAEJAADC@?$AA?$DM?$AAp?$AAr?$AAo?$AAg?$AAr?$AAa?$AAm?$AA?5?$AAn?$AAa?$AAm?$AAe?$AA?5?$AAu?$AAn?$AAk?$AAn?$AAo?$AAw?$AAn?$AA?$DO?$AA?$AA@ 0000000180039ed8     libucrt:assert.obj
 0002:00005f10       standard_lookup_table      0000000180039f10     libucrt:output.obj
 0002:00005f6c       ??_C@_06OJHGLDPL@?$CInull?$CJ?$AA@ 0000000180039f6c     libucrt:output.obj
 0002:00005f78       ??_C@_1O@CEDCILHN@?$AA?$CI?$AAn?$AAu?$AAl?$AAl?$AA?$CJ?$AA?$AA@ 0000000180039f78     libucrt:output.obj
 0002:00005f90       __newctype                 0000000180039f90     libucrt:ctype.obj
 0002:00006290       __newclmap                 000000018003a290     libucrt:ctype.obj
 0002:00006410       __newcumap                 000000018003a410     libucrt:ctype.obj
 0002:00006590       _wctype                    000000018003a590     libucrt:ctype.obj
 0002:00006910       ?large_power_data@?1??multiply_by_power_of_ten@__crt_strtox@@YA_NAEAUbig_integer@2@I@Z@4QBIB 000000018003a910     libucrt:strtod.obj
 0002:00007220       ?large_power_indices@?1??multiply_by_power_of_ten@__crt_strtox@@YA_NAEAUbig_integer@2@I@Z@4QBUunpack_index@?1??12@YA_N0I@Z@B 000000018003b220     libucrt:strtod.obj
 0002:000072b8       ?small_powers_of_ten@?6??multiply_by_power_of_ten@__crt_strtox@@YA_NAEAUbig_integer@2@I@Z@4QBIB 000000018003b2b8     libucrt:strtod.obj
 0002:00008f90       __acrt_exception_action_table 000000018003cf90     libucrt:exception_filter.obj
 0002:00009050       __acrt_signal_action_table_count 000000018003d050     libucrt:exception_filter.obj
 0002:00009058       __acrt_signal_action_first_fpe_index 000000018003d058     libucrt:exception_filter.obj
 0002:00009060       __acrt_signal_action_fpe_count 000000018003d060     libucrt:exception_filter.obj
 0002:00009068       ??_C@_1BI@BGOHAHKC@?$AAm?$AAs?$AAc?$AAo?$AAr?$AAe?$AAe?$AA?4?$AAd?$AAl?$AAl?$AA?$AA@ 000000018003d068     libucrt:exit.obj
 0002:00009080       ??_C@_0P@MIGLKIOC@CorExitProcess?$AA@ 000000018003d080     libucrt:exit.obj
 0002:00009220       ??_C@_1EG@CNNIPFIM@?$AAa?$AAp?$AAi?$AA?9?$AAm?$AAs?$AA?9?$AAw?$AAi?$AAn?$AA?9?$AAa?$AAp?$AAp?$AAm?$AAo?$AAd?$AAe?$AAl?$AA?9?$AAr?$AAu?$AAn?$AAt?$AAi?$AAm?$AAe?$AA?9?$AAl?$AA1?$AA?9?$AA1@ 000000018003d220     libucrt:winapi_thunks.obj
 0002:00009270       ??_C@_1EA@JGEFHKEI@?$AAa?$AAp?$AAi?$AA?9?$AAm?$AAs?$AA?9?$AAw?$AAi?$AAn?$AA?9?$AAc?$AAo?$AAr?$AAe?$AA?9?$AAd?$AAa?$AAt?$AAe?$AAt?$AAi?$AAm?$AAe?$AA?9?$AAl?$AA1?$AA?9?$AA1?$AA?9?$AA1?$AA?$AA@ 000000018003d270     libucrt:winapi_thunks.obj
 0002:000092b0       ??_C@_1DI@GCIAAENM@?$AAa?$AAp?$AAi?$AA?9?$AAm?$AAs?$AA?9?$AAw?$AAi?$AAn?$AA?9?$AAc?$AAo?$AAr?$AAe?$AA?9?$AAf?$AAi?$AAl?$AAe?$AA?9?$AAl?$AA2?$AA?9?$AA1?$AA?9?$AA1?$AA?$AA@ 000000018003d2b0     libucrt:winapi_thunks.obj
 0002:000092f0       ??_C@_1EI@MPIAOHOC@?$AAa?$AAp?$AAi?$AA?9?$AAm?$AAs?$AA?9?$AAw?$AAi?$AAn?$AA?9?$AAc?$AAo?$AAr?$AAe?$AA?9?$AAl?$AAo?$AAc?$AAa?$AAl?$AAi?$AAz?$AAa?$AAt?$AAi?$AAo?$AAn?$AA?9?$AAl?$AA1?$AA?9@ 000000018003d2f0     libucrt:winapi_thunks.obj
 0002:00009340       ??_C@_1FK@FPHCKFIE@?$AAa?$AAp?$AAi?$AA?9?$AAm?$AAs?$AA?9?$AAw?$AAi?$AAn?$AA?9?$AAc?$AAo?$AAr?$AAe?$AA?9?$AAl?$AAo?$AAc?$AAa?$AAl?$AAi?$AAz?$AAa?$AAt?$AAi?$AAo?$AAn?$AA?9?$AAo?$AAb?$AAs@ 000000018003d340     libucrt:winapi_thunks.obj
 0002:000093a0       ??_C@_1EM@DILCGIIO@?$AAa?$AAp?$AAi?$AA?9?$AAm?$AAs?$AA?9?$AAw?$AAi?$AAn?$AA?9?$AAc?$AAo?$AAr?$AAe?$AA?9?$AAp?$AAr?$AAo?$AAc?$AAe?$AAs?$AAs?$AAt?$AAh?$AAr?$AAe?$AAa?$AAd?$AAs?$AA?9?$AAl@ 000000018003d3a0     libucrt:winapi_thunks.obj
 0002:000093f0       ??_C@_1DM@LNCGDDPN@?$AAa?$AAp?$AAi?$AA?9?$AAm?$AAs?$AA?9?$AAw?$AAi?$AAn?$AA?9?$AAc?$AAo?$AAr?$AAe?$AA?9?$AAs?$AAt?$AAr?$AAi?$AAn?$AAg?$AA?9?$AAl?$AA1?$AA?9?$AA1?$AA?9?$AA0?$AA?$AA@ 000000018003d3f0     libucrt:winapi_thunks.obj
 0002:00009430       ??_C@_1DO@FPAPJEMD@?$AAa?$AAp?$AAi?$AA?9?$AAm?$AAs?$AA?9?$AAw?$AAi?$AAn?$AA?9?$AAc?$AAo?$AAr?$AAe?$AA?9?$AAs?$AAy?$AAs?$AAi?$AAn?$AAf?$AAo?$AA?9?$AAl?$AA1?$AA?9?$AA2?$AA?9?$AA1?$AA?$AA@ 000000018003d430     libucrt:winapi_thunks.obj
 0002:00009470       ??_C@_1DK@NDHNAHIO@?$AAa?$AAp?$AAi?$AA?9?$AAm?$AAs?$AA?9?$AAw?$AAi?$AAn?$AA?9?$AAc?$AAo?$AAr?$AAe?$AA?9?$AAw?$AAi?$AAn?$AAr?$AAt?$AA?9?$AAl?$AA1?$AA?9?$AA1?$AA?9?$AA0?$AA?$AA@ 000000018003d470     libucrt:winapi_thunks.obj
 0002:000094b0       ??_C@_1DM@KGHDGBCM@?$AAa?$AAp?$AAi?$AA?9?$AAm?$AAs?$AA?9?$AAw?$AAi?$AAn?$AA?9?$AAc?$AAo?$AAr?$AAe?$AA?9?$AAx?$AAs?$AAt?$AAa?$AAt?$AAe?$AA?9?$AAl?$AA2?$AA?9?$AA1?$AA?9?$AA0?$AA?$AA@ 000000018003d4b0     libucrt:winapi_thunks.obj
 0002:000094f0       ??_C@_1EO@IJIOEFOH@?$AAa?$AAp?$AAi?$AA?9?$AAm?$AAs?$AA?9?$AAw?$AAi?$AAn?$AA?9?$AAr?$AAt?$AAc?$AAo?$AAr?$AAe?$AA?9?$AAn?$AAt?$AAu?$AAs?$AAe?$AAr?$AA?9?$AAw?$AAi?$AAn?$AAd?$AAo?$AAw?$AA?9@ 000000018003d4f0     libucrt:winapi_thunks.obj
 0002:00009540       ??_C@_1FG@HHGEKANL@?$AAa?$AAp?$AAi?$AA?9?$AAm?$AAs?$AA?9?$AAw?$AAi?$AAn?$AA?9?$AAs?$AAe?$AAc?$AAu?$AAr?$AAi?$AAt?$AAy?$AA?9?$AAs?$AAy?$AAs?$AAt?$AAe?$AAm?$AAf?$AAu?$AAn?$AAc?$AAt?$AAi@ 000000018003d540     libucrt:winapi_thunks.obj
 0002:000095a0       ??_C@_1FG@NCKKOLKO@?$AAe?$AAx?$AAt?$AA?9?$AAm?$AAs?$AA?9?$AAw?$AAi?$AAn?$AA?9?$AAk?$AAe?$AAr?$AAn?$AAe?$AAl?$AA3?$AA2?$AA?9?$AAp?$AAa?$AAc?$AAk?$AAa?$AAg?$AAe?$AA?9?$AAc?$AAu?$AAr?$AAr@ 000000018003d5a0     libucrt:winapi_thunks.obj
 0002:00009600       ??_C@_1EG@DBIOJECG@?$AAe?$AAx?$AAt?$AA?9?$AAm?$AAs?$AA?9?$AAw?$AAi?$AAn?$AA?9?$AAn?$AAt?$AAu?$AAs?$AAe?$AAr?$AA?9?$AAd?$AAi?$AAa?$AAl?$AAo?$AAg?$AAb?$AAo?$AAx?$AA?9?$AAl?$AA1?$AA?9?$AA1@ 000000018003d600     libucrt:winapi_thunks.obj
 0002:00009650       ??_C@_1EO@FIHMJCLF@?$AAe?$AAx?$AAt?$AA?9?$AAm?$AAs?$AA?9?$AAw?$AAi?$AAn?$AA?9?$AAn?$AAt?$AAu?$AAs?$AAe?$AAr?$AA?9?$AAw?$AAi?$AAn?$AAd?$AAo?$AAw?$AAs?$AAt?$AAa?$AAt?$AAi?$AAo?$AAn?$AA?9@ 000000018003d650     libucrt:winapi_thunks.obj
 0002:000096a0       ??_C@_1O@BCCLBEOE@?$AAu?$AAs?$AAe?$AAr?$AA3?$AA2?$AA?$AA@ 000000018003d6a0     libucrt:winapi_thunks.obj
 0002:000096b8       ??_C@_0BA@FHFNEAED@AreFileApisANSI?$AA@ 000000018003d6b8     libucrt:winapi_thunks.obj
 0002:000096f0       ??_C@_0BA@HNOPNCHB@GetActiveWindow?$AA@ 000000018003d6f0     libucrt:winapi_thunks.obj
 0002:00009710       ??_C@_0BD@HHGDFDBJ@GetLastActivePopup?$AA@ 000000018003d710     libucrt:winapi_thunks.obj
 0002:00009730       ??_C@_0BI@DFKBFLJE@GetProcessWindowStation?$AA@ 000000018003d730     libucrt:winapi_thunks.obj
 0002:00009750       ??_C@_0BK@DEKFELLI@GetUserObjectInformationW?$AA@ 000000018003d750     libucrt:winapi_thunks.obj
 0002:00009788       ??_C@_0BB@HBDEELFH@LocaleNameToLCID?$AA@ 000000018003d788     libucrt:winapi_thunks.obj
 0002:000097a8       ??_C@_0M@CHKKJDAI@MessageBoxA?$AA@ 000000018003d7a8     libucrt:winapi_thunks.obj
 0002:000097c0       ??_C@_0M@DLDCCGNP@MessageBoxW?$AA@ 000000018003d7c0     libucrt:winapi_thunks.obj
 0002:000097cc       ??_C@_03OEIAHPBN@INF?$AA@  000000018003d7cc     libucrt:cvt.obj
 0002:000097d0       ??_C@_03OJHLLCGB@inf?$AA@  000000018003d7d0     libucrt:cvt.obj
 0002:000097d4       ??_C@_03LKNCIKJB@NAN?$AA@  000000018003d7d4     libucrt:cvt.obj
 0002:000097d8       ??_C@_03LHCJEHON@nan?$AA@  000000018003d7d8     libucrt:cvt.obj
 0002:000097e0       ??_C@_09OFJJIMPC@NAN?$CISNAN?$CJ?$AA@ 000000018003d7e0     libucrt:cvt.obj
 0002:000097f0       ??_C@_09IPFBKMDL@nan?$CIsnan?$CJ?$AA@ 000000018003d7f0     libucrt:cvt.obj
 0002:00009800       ??_C@_08IKHNHAJ@NAN?$CIIND?$CJ?$AA@ 000000018003d800     libucrt:cvt.obj
 0002:00009810       ??_C@_08OFCDMILK@nan?$CIind?$CJ?$AA@ 000000018003d810     libucrt:cvt.obj
 0002:0000981c       ??_C@_05KLBDPFGC@e?$CL000?$AA@ 000000018003d81c     libucrt:cvt.obj
 0002:00009830       __lc_time_c                000000018003d830     libucrt:nlsdata.obj
 0002:00009af0       ??_C@_03KOEHGMDN@Sun?$AA@  000000018003daf0     libucrt:nlsdata.obj
 0002:00009af4       ??_C@_03PDAGKDH@Mon?$AA@   000000018003daf4     libucrt:nlsdata.obj
 0002:00009af8       ??_C@_03NAGEINEP@Tue?$AA@  000000018003daf8     libucrt:nlsdata.obj
 0002:00009afc       ??_C@_03MHOMLAJA@Wed?$AA@  000000018003dafc     libucrt:nlsdata.obj
 0002:00009b00       ??_C@_03IOFIKPDN@Thu?$AA@  000000018003db00     libucrt:nlsdata.obj
 0002:00009b04       ??_C@_03IDIOELNC@Fri?$AA@  000000018003db04     libucrt:nlsdata.obj
 0002:00009b08       ??_C@_03FEFJNEK@Sat?$AA@   000000018003db08     libucrt:nlsdata.obj
 0002:00009b0c       ??_C@_06OOPIFAJ@Sunday?$AA@ 000000018003db0c     libucrt:nlsdata.obj
 0002:00009b14       ??_C@_06JLEDEDGH@Monday?$AA@ 000000018003db14     libucrt:nlsdata.obj
 0002:00009b20       ??_C@_07BAAGCFCM@Tuesday?$AA@ 000000018003db20     libucrt:nlsdata.obj
 0002:00009b28       ??_C@_09DLIGFAKA@Wednesday?$AA@ 000000018003db28     libucrt:nlsdata.obj
 0002:00009b38       ??_C@_08HACCIKIA@Thursday?$AA@ 000000018003db38     libucrt:nlsdata.obj
 0002:00009b44       ??_C@_06JECMNKMI@Friday?$AA@ 000000018003db44     libucrt:nlsdata.obj
 0002:00009b50       ??_C@_08INBOOONO@Saturday?$AA@ 000000018003db50     libucrt:nlsdata.obj
 0002:00009b5c       ??_C@_03JIHJHPIE@Jan?$AA@  000000018003db5c     libucrt:nlsdata.obj
 0002:00009b60       ??_C@_03HJBDCHOM@Feb?$AA@  000000018003db60     libucrt:nlsdata.obj
 0002:00009b64       ??_C@_03ODNJBKGA@Mar?$AA@  000000018003db64     libucrt:nlsdata.obj
 0002:00009b68       ??_C@_03LEOLGMJP@Apr?$AA@  000000018003db68     libucrt:nlsdata.obj
 0002:00009b6c       ??_C@_03CNMDKL@May?$AA@    000000018003db6c     libucrt:nlsdata.obj
 0002:00009b70       ??_C@_03IDFGHECI@Jun?$AA@  000000018003db70     libucrt:nlsdata.obj
 0002:00009b74       ??_C@_03LBGABGKK@Jul?$AA@  000000018003db74     libucrt:nlsdata.obj
 0002:00009b78       ??_C@_03IFJFEIGA@Aug?$AA@  000000018003db78     libucrt:nlsdata.obj
 0002:00009b7c       ??_C@_03GGCAPAJC@Sep?$AA@  000000018003db7c     libucrt:nlsdata.obj
 0002:00009b80       ??_C@_03BMAOKBAD@Oct?$AA@  000000018003db80     libucrt:nlsdata.obj
 0002:00009b84       ??_C@_03JPJOFNIA@Nov?$AA@  000000018003db84     libucrt:nlsdata.obj
 0002:00009b88       ??_C@_03MKABNOCG@Dec?$AA@  000000018003db88     libucrt:nlsdata.obj
 0002:00009b90       ??_C@_07CGJPFGJA@January?$AA@ 000000018003db90     libucrt:nlsdata.obj
 0002:00009b98       ??_C@_08GNJGEPFN@February?$AA@ 000000018003db98     libucrt:nlsdata.obj
 0002:00009ba4       ??_C@_05HPCKOFNC@March?$AA@ 000000018003dba4     libucrt:nlsdata.obj
 0002:00009bac       ??_C@_05DMJDNLEJ@April?$AA@ 000000018003dbac     libucrt:nlsdata.obj
 0002:00009bb4       ??_C@_04CNLMGBGM@June?$AA@ 000000018003dbb4     libucrt:nlsdata.obj
 0002:00009bbc       ??_C@_04MIEPOIFP@July?$AA@ 000000018003dbbc     libucrt:nlsdata.obj
 0002:00009bc4       ??_C@_06LBBHFDDG@August?$AA@ 000000018003dbc4     libucrt:nlsdata.obj
 0002:00009bd0       ??_C@_09BHHEALKD@September?$AA@ 000000018003dbd0     libucrt:nlsdata.obj
 0002:00009be0       ??_C@_07JJNFCEND@October?$AA@ 000000018003dbe0     libucrt:nlsdata.obj
 0002:00009be8       ??_C@_08HCHEGEOA@November?$AA@ 000000018003dbe8     libucrt:nlsdata.obj
 0002:00009bf8       ??_C@_08EDHMEBNP@December?$AA@ 000000018003dbf8     libucrt:nlsdata.obj
 0002:00009c04       ??_C@_02DEDBPAFC@AM?$AA@   000000018003dc04     libucrt:nlsdata.obj
 0002:00009c08       ??_C@_02CJNFDJBF@PM?$AA@   000000018003dc08     libucrt:nlsdata.obj
 0002:00009c10       ??_C@_08BPBNCDIB@MM?1dd?1yy?$AA@ 000000018003dc10     libucrt:nlsdata.obj
 0002:00009c20       ??_C@_0BE@CKGJFCPC@dddd?0?5MMMM?5dd?0?5yyyy?$AA@ 000000018003dc20     libucrt:nlsdata.obj
 0002:00009c38       ??_C@_08JCCMCCIL@HH?3mm?3ss?$AA@ 000000018003dc38     libucrt:nlsdata.obj
 0002:00009c48       ??_C@_17MBGCMIPB@?$AAS?$AAu?$AAn?$AA?$AA@ 000000018003dc48     libucrt:nlsdata.obj
 0002:00009c50       ??_C@_17KBOMKBF@?$AAM?$AAo?$AAn?$AA?$AA@ 000000018003dc50     libucrt:nlsdata.obj
 0002:00009c58       ??_C@_17BMKGEGOJ@?$AAT?$AAu?$AAe?$AA?$AA@ 000000018003dc58     libucrt:nlsdata.obj
 0002:00009c60       ??_C@_17CJEDCEPE@?$AAW?$AAe?$AAd?$AA?$AA@ 000000018003dc60     libucrt:nlsdata.obj
 0002:00009c68       ??_C@_17PDPHAADD@?$AAT?$AAh?$AAu?$AA?$AA@ 000000018003dc68     libucrt:nlsdata.obj
 0002:00009c70       ??_C@_17HFOLPPLP@?$AAF?$AAr?$AAi?$AA?$AA@ 000000018003dc70     libucrt:nlsdata.obj
 0002:00009c78       ??_C@_17GGIBDPIH@?$AAS?$AAa?$AAt?$AA?$AA@ 000000018003dc78     libucrt:nlsdata.obj
 0002:00009c80       ??_C@_1O@IHNHDHPB@?$AAS?$AAu?$AAn?$AAd?$AAa?$AAy?$AA?$AA@ 000000018003dc80     libucrt:nlsdata.obj
 0002:00009c90       ??_C@_1O@MMNBFLIA@?$AAM?$AAo?$AAn?$AAd?$AAa?$AAy?$AA?$AA@ 000000018003dc90     libucrt:nlsdata.obj
 0002:00009ca0       ??_C@_1BA@ENFBFFEK@?$AAT?$AAu?$AAe?$AAs?$AAd?$AAa?$AAy?$AA?$AA@ 000000018003dca0     libucrt:nlsdata.obj
 0002:00009cb0       ??_C@_1BE@EBOGMDOH@?$AAW?$AAe?$AAd?$AAn?$AAe?$AAs?$AAd?$AAa?$AAy?$AA?$AA@ 000000018003dcb0     libucrt:nlsdata.obj
 0002:00009cc8       ??_C@_1BC@HHMNLIHE@?$AAT?$AAh?$AAu?$AAr?$AAs?$AAd?$AAa?$AAy?$AA?$AA@ 000000018003dcc8     libucrt:nlsdata.obj
 0002:00009ce0       ??_C@_1O@PDICJHAG@?$AAF?$AAr?$AAi?$AAd?$AAa?$AAy?$AA?$AA@ 000000018003dce0     libucrt:nlsdata.obj
 0002:00009cf0       ??_C@_1BC@ENMNNPAJ@?$AAS?$AAa?$AAt?$AAu?$AAr?$AAd?$AAa?$AAy?$AA?$AA@ 000000018003dcf0     libucrt:nlsdata.obj
 0002:00009d08       ??_C@_17DKNBKCHM@?$AAJ?$AAa?$AAn?$AA?$AA@ 000000018003dd08     libucrt:nlsdata.obj
 0002:00009d10       ??_C@_17LMDJEKJN@?$AAF?$AAe?$AAb?$AA?$AA@ 000000018003dd10     libucrt:nlsdata.obj
 0002:00009d18       ??_C@_17CKNLEDEC@?$AAM?$AAa?$AAr?$AA?$AA@ 000000018003dd18     libucrt:nlsdata.obj
 0002:00009d20       ??_C@_17LFPOIHDD@?$AAA?$AAp?$AAr?$AA?$AA@ 000000018003dd20     libucrt:nlsdata.obj
 0002:00009d28       ??_C@_17PNNKMEED@?$AAM?$AAa?$AAy?$AA?$AA@ 000000018003dd28     libucrt:nlsdata.obj
 0002:00009d30       ??_C@_17KCJGOCPB@?$AAJ?$AAu?$AAn?$AA?$AA@ 000000018003dd30     libucrt:nlsdata.obj
 0002:00009d38       ??_C@_17IJPCKHK@?$AAJ?$AAu?$AAl?$AA?$AA@ 000000018003dd38     libucrt:nlsdata.obj
 0002:00009d40       ??_C@_17ICPELBCN@?$AAA?$AAu?$AAg?$AA?$AA@ 000000018003dd40     libucrt:nlsdata.obj
 0002:00009d48       ??_C@_17HCHCOKMG@?$AAS?$AAe?$AAp?$AA?$AA@ 000000018003dd48     libucrt:nlsdata.obj
 0002:00009d50       ??_C@_17FNLKOI@?$AAO?$AAc?$AAt?$AA?$AA@ 000000018003dd50     libucrt:nlsdata.obj
 0002:00009d58       ??_C@_17BBDMLCIG@?$AAN?$AAo?$AAv?$AA?$AA@ 000000018003dd58     libucrt:nlsdata.obj
 0002:00009d60       ??_C@_17EGKACKIF@?$AAD?$AAe?$AAc?$AA?$AA@ 000000018003dd60     libucrt:nlsdata.obj
 0002:00009d68       ??_C@_1BA@EFMEIEBA@?$AAJ?$AAa?$AAn?$AAu?$AAa?$AAr?$AAy?$AA?$AA@ 000000018003dd68     libucrt:nlsdata.obj
 0002:00009d78       ??_C@_1BC@JGDDFFAM@?$AAF?$AAe?$AAb?$AAr?$AAu?$AAa?$AAr?$AAy?$AA?$AA@ 000000018003dd78     libucrt:nlsdata.obj
 0002:00009d90       ??_C@_1M@IKEENEDF@?$AAM?$AAa?$AAr?$AAc?$AAh?$AA?$AA@ 000000018003dd90     libucrt:nlsdata.obj
 0002:00009da0       ??_C@_1M@GJNLMHFD@?$AAA?$AAp?$AAr?$AAi?$AAl?$AA?$AA@ 000000018003dda0     libucrt:nlsdata.obj
 0002:00009db0       ??_C@_19EPFLPGAP@?$AAJ?$AAu?$AAn?$AAe?$AA?$AA@ 000000018003ddb0     libucrt:nlsdata.obj
 0002:00009dc0       ??_C@_19BIFMLPCD@?$AAJ?$AAu?$AAl?$AAy?$AA?$AA@ 000000018003ddc0     libucrt:nlsdata.obj
 0002:00009dd0       ??_C@_1O@PAHLKOAC@?$AAA?$AAu?$AAg?$AAu?$AAs?$AAt?$AA?$AA@ 000000018003ddd0     libucrt:nlsdata.obj
 0002:00009de0       ??_C@_1BE@DKAAMBJL@?$AAS?$AAe?$AAp?$AAt?$AAe?$AAm?$AAb?$AAe?$AAr?$AA?$AA@ 000000018003dde0     libucrt:nlsdata.obj
 0002:00009df8       ??_C@_1BA@EPANDLNG@?$AAO?$AAc?$AAt?$AAo?$AAb?$AAe?$AAr?$AA?$AA@ 000000018003ddf8     libucrt:nlsdata.obj
 0002:00009e08       ??_C@_1BC@BGLIFPF@?$AAN?$AAo?$AAv?$AAe?$AAm?$AAb?$AAe?$AAr?$AA?$AA@ 000000018003de08     libucrt:nlsdata.obj
 0002:00009e20       ??_C@_1BC@FEMKIFH@?$AAD?$AAe?$AAc?$AAe?$AAm?$AAb?$AAe?$AAr?$AA?$AA@ 000000018003de20     libucrt:nlsdata.obj
 0002:00009e34       ??_C@_15ODEHAHHF@?$AAA?$AAM?$AA?$AA@ 000000018003de34     libucrt:nlsdata.obj
 0002:00009e3c       ??_C@_15CLMNNGEL@?$AAP?$AAM?$AA?$AA@ 000000018003de3c     libucrt:nlsdata.obj
 0002:00009e48       ??_C@_1BC@IEBCMHCM@?$AAM?$AAM?$AA?1?$AAd?$AAd?$AA?1?$AAy?$AAy?$AA?$AA@ 000000018003de48     libucrt:nlsdata.obj
 0002:00009e60       ??_C@_1CI@KNAKOEBC@?$AAd?$AAd?$AAd?$AAd?$AA?0?$AA?5?$AAM?$AAM?$AAM?$AAM?$AA?5?$AAd?$AAd?$AA?0?$AA?5?$AAy?$AAy?$AAy?$AAy?$AA?$AA@ 000000018003de60     libucrt:nlsdata.obj
 0002:00009e88       ??_C@_1BC@GDGBMEMK@?$AAH?$AAH?$AA?3?$AAm?$AAm?$AA?3?$AAs?$AAs?$AA?$AA@ 000000018003de88     libucrt:nlsdata.obj
 0002:00009e9c       ?ccs@?BL@???$__acrt_stdio_parse_mode@D@@YA?AU__acrt_stdio_stream_mode@@QEBD@Z@4QBDB 000000018003de9c     libucrt:openfile.obj
 0002:00009ea0       ?utf8_encoding@?BL@???$__acrt_stdio_parse_mode@D@@YA?AU__acrt_stdio_stream_mode@@QEBD@Z@4QBDB 000000018003dea0     libucrt:openfile.obj
 0002:00009ea8       ?utf16_encoding@?BL@???$__acrt_stdio_parse_mode@D@@YA?AU__acrt_stdio_stream_mode@@QEBD@Z@4QBDB 000000018003dea8     libucrt:openfile.obj
 0002:00009eb0       ?unicode_encoding@?BL@???$__acrt_stdio_parse_mode@D@@YA?AU__acrt_stdio_stream_mode@@QEBD@Z@4QBDB 000000018003deb0     libucrt:openfile.obj
 0002:00009eb8       ??_C@_03JGHBODFD@pow?$AA@  000000018003deb8     libucrt:fpexcept.obj
 0002:00009ebc       ??_C@_05HGHHAHAP@log10?$AA@ 000000018003debc     libucrt:fpexcept.obj
 0002:00009ec4       ??_C@_04PDIFKINK@acos?$AA@ 000000018003dec4     libucrt:fpexcept.obj
 0002:00009ed0       __log_256_lead             000000018003ded0     libucrt:log_256_lead_tail_table.obj
 0002:0000a6e0       __log_256_tail             000000018003e6e0     libucrt:log_256_lead_tail_table.obj
 0002:0000aef0       __two_to_jby64_head_table  000000018003eef0     libucrt:two_to_jby64_head_tail_table.obj
 0002:0000b0f0       __two_to_jby64_tail_table  000000018003f0f0     libucrt:two_to_jby64_head_tail_table.obj
 0002:0000b2f0       ??_C@_04MBFDLNIM@powf?$AA@ 000000018003f2f0     libucrt:pow_special.obj
 0002:0000b300       __two_to_jby64_table       000000018003f300     libucrt:two_to_jby64_table.obj
 0002:0000b500       __log_F_inv_qword          000000018003f500     libucrt:log_f_inv_qword_table.obj
 0002:0000d9b0       ??_C@_05DNEBIAHO@1?$CDINF?$AA@ 00000001800419b0     libucrt:cfout.obj
 0002:0000d9b8       ??_C@_06IMKFLFPG@1?$CDQNAN?$AA@ 00000001800419b8     libucrt:cfout.obj
 0002:0000d9c0       ??_C@_06PGGFOGJG@1?$CDSNAN?$AA@ 00000001800419c0     libucrt:cfout.obj
 0002:0000d9c8       ??_C@_05PHHOCPM@1?$CDIND?$AA@ 00000001800419c8     libucrt:cfout.obj
 0002:0000dc30       ??_C@_1BA@BALFACEM@?$AAC?$AAO?$AAN?$AAO?$AAU?$AAT?$AA$?$AA?$AA@ 0000000180041c30     libucrt:initcon.obj
 0002:0000dc40       __log10_256_lead           0000000180041c40     libucrt:log10_256_lead_tail_table.obj
 0002:0000e450       __log10_256_tail           0000000180042450     libucrt:log10_256_lead_tail_table.obj
 0002:0000ec58       ??_C@_1BK@DBDEIDLH@?$AAK?$AAE?$AAR?$AAN?$AAE?$AAL?$AA3?$AA2?$AA?4?$AAD?$AAL?$AAL?$AA?$AA@ 0000000180042c58     DelayImp:delayhlp.obj
 0002:0000ec78       __pfnDliFailureHook2       0000000180042c78     DelayImp:delayhk1.obj
 0002:0000ec80       _load_config_used          0000000180042c80     LIBCMT:loadcfg.obj
 0002:0000ed14       ??_C@_00CNPNBAHC@?$AA@     0000000180042d14     Backend.obj
 0002:0000ed18       ??_C@_07CIFAGBMG@unknown?$AA@ 0000000180042d18     Backend.obj
 0002:0000ed20       ??_C@_1DG@OKCGPKIB@?$AAp?$AAe?$AAr?$AAs?$AAi?$AAs?$AAt?$AAe?$AAn?$AAt?$AA?$CI?$AA?$CJ?$AA?4?$AAI?$AAs?$AAN?$AAe?$AAa?$AAr?$AAD?$AAe?$AAa?$AAt?$AAh?$AA?$CI?$AA?$CJ?$AA?$AA@ 0000000180042d20     Backend.obj
 0002:0000ed58       ??_C@_1DA@FBGAEOIO@?$AA?$CB?$AAp?$AAe?$AAr?$AAs?$AAi?$AAs?$AAt?$AAe?$AAn?$AAt?$AA?$CI?$AA?$CJ?$AA?4?$AAI?$AAs?$AAE?$AAm?$AAp?$AAt?$AAy?$AA?$CI?$AA?$CJ?$AA?$AA@ 0000000180042d58     Backend.obj
 0002:0000ed88       ??_C@_1CO@JCKLEFMA@?$AA?$CB?$AAp?$AAe?$AAr?$AAs?$AAi?$AAs?$AAt?$AAe?$AAn?$AAt?$AA?$CI?$AA?$CJ?$AA?4?$AAI?$AAs?$AAW?$AAe?$AAa?$AAk?$AA?$CI?$AA?$CJ?$AA?$AA@ 0000000180042d88     Backend.obj
 0002:0000edb8       ??_C@_1BE@GMLLOIPJ@?$AAr?$AAe?$AAf?$AAs?$AA_?$AA?5?$AA?$DO?$AA?5?$AA0?$AA?$AA@ 0000000180042db8     Backend.obj
 0002:0000edd0       ??_C@_1CC@GBFLAAPF@?$AAw?$AAr?$AAa?$AAp?$AA?9?$AA?$DO?$AAr?$AAe?$AAf?$AAs?$AA_?$AA?5?$AA?$DN?$AA?$DN?$AA?5?$AA0?$AA?$AA@ 0000000180042dd0     Backend.obj
 0002:0000edf8       ??_C@_0BA@JFNIOLAK@string?5too?5long?$AA@ 0000000180042df8     Backend.obj
 0002:0000ee10       ??_C@_1GK@GJOIAAAH@?$AAe?$AA?3?$AA?2?$AAr?$AAe?$AAp?$AAo?$AA?2?$AAh?$AAa?$AAs?$AAh?$AA2?$AAf?$AAa?$AAc?$AAe?$AA?2?$AAn?$AAo?$AAd?$AAe?$AA_?$AAm?$AAo?$AAd?$AAu?$AAl?$AAe?$AAs?$AA?2?$AAn@ 0000000180042e10     Backend.obj
 0002:0000ee80       ??_C@_1DI@ELDBKNAK@?$AAw?$AAr?$AAa?$AAp?$AA?9?$AA?$DO?$AAh?$AAa?$AAn?$AAd?$AAl?$AAe?$AA_?$AA?4?$AAI?$AAs?$AAN?$AAe?$AAa?$AAr?$AAD?$AAe?$AAa?$AAt?$AAh?$AA?$CI?$AA?$CJ?$AA?$AA@ 0000000180042e80     Backend.obj
 0002:0000eeb8       ??_C@_0BI@CFPLBAOH@invalid?5string?5position?$AA@ 0000000180042eb8     Backend.obj
 0002:0000eed0       ??_7Backend@@6B@           0000000180042ed0     Backend.obj
 0002:0000ef10       ??_7ObjectWrap@Nan@@6B@    0000000180042f10     Backend.obj
 0002:0000ef28       ??_C@_1CO@EGNPJLKI@?$AAp?$AAe?$AAr?$AAs?$AAi?$AAs?$AAt?$AAe?$AAn?$AAt?$AA?$CI?$AA?$CJ?$AA?4?$AAI?$AAs?$AAE?$AAm?$AAp?$AAt?$AAy?$AA?$CI?$AA?$CJ?$AA?$AA@ 0000000180042f28     ImageBackend.obj
 0002:0000ef60       ??_C@_1EC@MGGLMBLC@?$AAo?$AAb?$AAj?$AAe?$AAc?$AAt?$AA?9?$AA?$DO?$AAI?$AAn?$AAt?$AAe?$AAr?$AAn?$AAa?$AAl?$AAF?$AAi?$AAe?$AAl?$AAd?$AAC?$AAo?$AAu?$AAn?$AAt?$AA?$CI?$AA?$CJ?$AA?5?$AA?$DO?$AA?5?$AA0@ 0000000180042f60     ImageBackend.obj
 0002:0000efa4       ??_C@_05NGOMGBBD@image?$AA@ 0000000180042fa4     ImageBackend.obj
 0002:0000efb0       ??_C@_1DO@DJNALJEP@?$AA?4?$AA?4?$AA?2?$AAs?$AAr?$AAc?$AA?2?$AAb?$AAa?$AAc?$AAk?$AAe?$AAn?$AAd?$AA?2?$AAI?$AAm?$AAa?$AAg?$AAe?$AAB?$AAa?$AAc?$AAk?$AAe?$AAn?$AAd?$AA?4?$AAc?$AAc?$AA?$AA@ 0000000180042fb0     ImageBackend.obj
 0002:0000eff0       ??_C@_1BO@PHAHKBAH@?$AA?$CB?$AAt?$AAh?$AAi?$AAs?$AA?9?$AA?$DO?$AAs?$AAu?$AAr?$AAf?$AAa?$AAc?$AAe?$AA?$AA@ 0000000180042ff0     ImageBackend.obj
 0002:0000f010       ??_C@_1BM@KKMLHDFH@?$AAt?$AAh?$AAi?$AAs?$AA?9?$AA?$DO?$AAs?$AAu?$AAr?$AAf?$AAa?$AAc?$AAe?$AA?$AA@ 0000000180043010     ImageBackend.obj
 0002:0000f030       ??_C@_0N@KBCACLBD@ImageBackend?$AA@ 0000000180043030     ImageBackend.obj
 0002:0000f040       ??_7ImageBackend@@6B@      0000000180043040     ImageBackend.obj
 0002:0000f080       ??_C@_03MJPNCPKC@pdf?$AA@  0000000180043080     PdfBackend.obj
 0002:0000f088       ??_C@_1DK@NMBDDNFN@?$AA?4?$AA?4?$AA?2?$AAs?$AAr?$AAc?$AA?2?$AAb?$AAa?$AAc?$AAk?$AAe?$AAn?$AAd?$AA?2?$AAP?$AAd?$AAf?$AAB?$AAa?$AAc?$AAk?$AAe?$AAn?$AAd?$AA?4?$AAc?$AAc?$AA?$AA@ 0000000180043088     PdfBackend.obj
 0002:0000f0c8       ??_C@_1BC@KFAOGGDO@?$AA_?$AAc?$AAl?$AAo?$AAs?$AAu?$AAr?$AAe?$AA?$AA@ 00000001800430c8     PdfBackend.obj
 0002:0000f0e0       ??_C@_1DO@PEKPJEKO@?$AAs?$AAt?$AAa?$AAt?$AAu?$AAs?$AA?5?$AA?$DN?$AA?$DN?$AA?5?$AAC?$AAA?$AAI?$AAR?$AAO?$AA_?$AAS?$AAT?$AAA?$AAT?$AAU?$AAS?$AA_?$AAS?$AAU?$AAC?$AAC?$AAE?$AAS?$AAS?$AA?$AA@ 00000001800430e0     PdfBackend.obj
 0002:0000f120       ??_C@_0L@HCGIDJMC@PdfBackend?$AA@ 0000000180043120     PdfBackend.obj
 0002:0000f130       ??_7PdfBackend@@6B@        0000000180043130     PdfBackend.obj
 0002:0000f170       ??_C@_03NNPBMGBD@svg?$AA@  0000000180043170     SvgBackend.obj
 0002:0000f178       ??_C@_1DK@OAPAEPEK@?$AA?4?$AA?4?$AA?2?$AAs?$AAr?$AAc?$AA?2?$AAb?$AAa?$AAc?$AAk?$AAe?$AAn?$AAd?$AA?2?$AAS?$AAv?$AAg?$AAB?$AAa?$AAc?$AAk?$AAe?$AAn?$AAd?$AA?4?$AAc?$AAc?$AA?$AA@ 0000000180043178     SvgBackend.obj
 0002:0000f1b8       ??_C@_0L@NPKKBKFF@SvgBackend?$AA@ 00000001800431b8     SvgBackend.obj
 0002:0000f1c8       ??_7SvgBackend@@6B@        00000001800431c8     SvgBackend.obj
 0002:0000f208       ??_C@_08OMFJPINA@Backends?$AA@ 0000000180043208     Backends.obj
 0002:0000f220       ??_C@_1HO@MPKKLBNM@?$AAe?$AA?3?$AA?2?$AAr?$AAe?$AAp?$AAo?$AA?2?$AAh?$AAa?$AAs?$AAh?$AA2?$AAf?$AAa?$AAc?$AAe?$AA?2?$AAn?$AAo?$AAd?$AAe?$AA_?$AAm?$AAo?$AAd?$AAu?$AAl?$AAe?$AAs?$AA?2?$AAn@ 0000000180043220     Canvas.obj
 0002:0000f2a0       ??_C@_1FK@CBGIJHDF@?$AAv?$AAa?$AAl?$AAu?$AAe?$AA?4?$AAs?$AAi?$AAz?$AAe?$AA?$CI?$AA?$CJ?$AA?5?$AA?$DM?$AA?$DN?$AA?5?$AAI?$AAN?$AAT?$AA_?$AAM?$AAA?$AAX?$AA?5?$AA?$CG?$AA?$CG?$AA?5?$AA?$CC?$AAs?$AAt?$AAr?$AAi@ 00000001800432a0     Canvas.obj
 0002:0000f300       ??_C@_1FC@LGAFBHEB@?$AAE?$AA?3?$AA?2?$AAr?$AAe?$AAp?$AAo?$AA?2?$AAh?$AAa?$AAs?$AAh?$AA2?$AAf?$AAa?$AAc?$AAe?$AA?2?$AAn?$AAo?$AAd?$AAe?$AA_?$AAm?$AAo?$AAd?$AAu?$AAl?$AAe?$AAs?$AA?2?$AAn@ 0000000180043300     Canvas.obj
 0002:0000f360       ??_C@_1GA@PFOOBIAG@?$AAl?$AAe?$AAn?$AAg?$AAt?$AAh?$AA?5?$AA?$DM?$AA?$DN?$AA?5?$AAi?$AAm?$AAp?$AA?3?$AA?3?$AAk?$AAM?$AAa?$AAx?$AAL?$AAe?$AAn?$AAg?$AAt?$AAh?$AA?5?$AA?$CG?$AA?$CG?$AA?5?$AA?$CC?$AAt?$AAo@ 0000000180043360     Canvas.obj
 0002:0000f3c0       ??_C@_1FM@LOELJOFK@?$AAs?$AAi?$AAz?$AAe?$AA?5?$AA?$DM?$AA?$DN?$AA?5?$AAi?$AAm?$AAp?$AA?3?$AA?3?$AAk?$AAM?$AAa?$AAx?$AAL?$AAe?$AAn?$AAg?$AAt?$AAh?$AA?5?$AA?$CG?$AA?$CG?$AA?5?$AA?$CC?$AAt?$AAo?$AAo?$AA?5@ 00000001800433c0     Canvas.obj
 0002:0000f41c       ??_C@_05EGBLHKBN@1?44?43?$AA@ 000000018004341c     Canvas.obj
 0002:0000f424       ??_C@_06PBIJCONE@Canvas?$AA@ 0000000180043424     Canvas.obj
 0002:0000f430       ??_C@_08GOCDALDA@toBuffer?$AA@ 0000000180043430     Canvas.obj
 0002:0000f440       ??_C@_0O@IOKOGJGN@streamPNGSync?$AA@ 0000000180043440     Canvas.obj
 0002:0000f450       ??_C@_0O@OBICOFIG@streamPDFSync?$AA@ 0000000180043450     Canvas.obj
 0002:0000f460       ??_C@_04GPMDFGEJ@type?$AA@ 0000000180043460     Canvas.obj
 0002:0000f468       ??_C@_06LNMIFCNI@stride?$AA@ 0000000180043468     Canvas.obj
 0002:0000f470       ??_C@_05IGKADHGO@width?$AA@ 0000000180043470     Canvas.obj
 0002:0000f478       ??_C@_06LNLHEAAG@height?$AA@ 0000000180043478     Canvas.obj
 0002:0000f480       ??_C@_0P@DNOOAMCM@PNG_NO_FILTERS?$AA@ 0000000180043480     Canvas.obj
 0002:0000f490       ??_C@_0BA@NECJFJGB@PNG_FILTER_NONE?$AA@ 0000000180043490     Canvas.obj
 0002:0000f4a0       ??_C@_0P@ILKINAJE@PNG_FILTER_SUB?$AA@ 00000001800434a0     Canvas.obj
 0002:0000f4b0       ??_C@_0O@PHEANGBB@PNG_FILTER_UP?$AA@ 00000001800434b0     Canvas.obj
 0002:0000f4c0       ??_C@_0P@OIJAFJM@PNG_FILTER_AVG?$AA@ 00000001800434c0     Canvas.obj
 0002:0000f4d0       ??_C@_0BB@EOMICOFG@PNG_FILTER_PAETH?$AA@ 00000001800434d0     Canvas.obj
 0002:0000f4e8       ??_C@_0BA@HBOOLNBH@PNG_ALL_FILTERS?$AA@ 00000001800434e8     Canvas.obj
 0002:0000f4f8       ??_C@_0O@KCCDDIBD@_registerFont?$AA@ 00000001800434f8     Canvas.obj
 0002:0000f508       ??_C@_0DD@NOKGMICM@Class?5constructors?5cannot?5be?5inv@ 0000000180043508     Canvas.obj
 0002:0000f53c       ??_C@_03DGOGAGNC@raw?$AA@  000000018004353c     Canvas.obj
 0002:0000f540       ??_C@_01GBGANLPD@0?$AA@    0000000180043540     Canvas.obj
 0002:0000f548       ??_C@_0DE@NKCMEFAA@Allowed?5compression?5levels?5lie?5i@ 0000000180043548     Canvas.obj
 0002:0000f580       ??_C@_0CE@KMCMNKHK@Compression?5level?5must?5be?5a?5numb@ 0000000180043580     Canvas.obj
 0002:0000f5a8       ??_C@_0BG@HPFBKLBE@Invalid?5filter?5value?4?$AA@ 00000001800435a8     Canvas.obj
 0002:0000f5c0       ??_C@_0BL@NEPODJIN@callback?5function?5required?$AA@ 00000001800435c0     Canvas.obj
 0002:0000f5e0       ??_C@_07JKIHKJOO@palette?$AA@ 00000001800435e0     Canvas.obj
 0002:0000f5e8       ??_C@_0CI@BHLKFIE@Palette?5length?5must?5be?5a?5multipl@ 00000001800435e8     Canvas.obj
 0002:0000f610       ??_C@_0BA@IGMJCIAO@backgroundIndex?$AA@ 0000000180043610     Canvas.obj
 0002:0000f620       ??_C@_0BC@FANAGBIP@wrong?5canvas?5type?$AA@ 0000000180043620     Canvas.obj
 0002:0000f638       ??_C@_0BE@BPOGMHI@Wrong?5argument?5type?$AA@ 0000000180043638     Canvas.obj
 0002:0000f650       ??_C@_0KD@OFKOCKPC@The?5second?5argument?5to?5registerF@ 0000000180043650     Canvas.obj
 0002:0000f6f8       ??_C@_0BK@COFJPHCD@Could?5not?5parse?5font?5file?$AA@ 00000001800436f8     Canvas.obj
 0002:0000f714       ??_C@_06NBOBHOCP@family?$AA@ 0000000180043714     Canvas.obj
 0002:0000f71c       ??_C@_06CMCBKMCB@weight?$AA@ 000000018004371c     Canvas.obj
 0002:0000f724       ??_C@_05IAKJCFIM@style?$AA@ 0000000180043724     Canvas.obj
 0002:0000f72c       ??_C@_06IKLLLDHL@normal?$AA@ 000000018004372c     Canvas.obj
 0002:0000f738       ??_C@_0CO@PJJOAFFD@Could?5not?5load?5font?5to?5the?5syste@ 0000000180043738     Canvas.obj
 0002:0000f768       ??_C@_06DAHKLION@italic?$AA@ 0000000180043768     Canvas.obj
 0002:0000f770       ??_C@_07PNBIOHPA@oblique?$AA@ 0000000180043770     Canvas.obj
 0002:0000f778       ??_C@_04PJDGFHHN@bold?$AA@ 0000000180043778     Canvas.obj
 0002:0000f780       ??_C@_03GNABGMEE@100?$AA@  0000000180043780     Canvas.obj
 0002:0000f784       ??_C@_03HPLEMDKK@200?$AA@  0000000180043784     Canvas.obj
 0002:0000f788       ??_C@_03MHAIKEMP@300?$AA@  0000000180043788     Canvas.obj
 0002:0000f78c       ??_C@_03FKNPJMHG@400?$AA@  000000018004378c     Canvas.obj
 0002:0000f790       ??_C@_03OCGDPLBD@500?$AA@  0000000180043790     Canvas.obj
 0002:0000f794       ??_C@_03PANGFEPN@600?$AA@  0000000180043794     Canvas.obj
 0002:0000f798       ??_C@_03EIGKDDJI@700?$AA@  0000000180043798     Canvas.obj
 0002:0000f79c       ??_C@_03BAAJCDMO@800?$AA@  000000018004379c     Canvas.obj
 0002:0000f7a0       ??_C@_03KILFEEKL@900?$AA@  00000001800437a0     Canvas.obj
 0002:0000f7a4       ??_C@_01IHBHIGKO@?0?$AA@   00000001800437a4     Canvas.obj
 0002:0000f7a8       ??_C@_07JKKCBBMM@context?$AA@ 00000001800437a8     Canvas.obj
 0002:0000f7b0       ??_C@_1HK@BEOOFHO@?$AAe?$AA?3?$AA?2?$AAr?$AAe?$AAp?$AAo?$AA?2?$AAh?$AAa?$AAs?$AAh?$AA2?$AAf?$AAa?$AAc?$AAe?$AA?2?$AAn?$AAo?$AAd?$AAe?$AA_?$AAm?$AAo?$AAd?$AAu?$AAl?$AAe?$AAs?$AA?2?$AAn@ 00000001800437b0     Canvas.obj
 0002:0000f830       ??_C@_1GK@KNJIIFLH@?$AAr?$AAe?$AAi?$AAn?$AAt?$AAe?$AAr?$AAp?$AAr?$AAe?$AAt?$AA_?$AAc?$AAa?$AAs?$AAt?$AA?$DM?$AAu?$AAi?$AAn?$AAt?$AAp?$AAt?$AAr?$AA_?$AAt?$AA?$DO?$AA?$CI?$AAd?$AAa?$AAt?$AAa@ 0000000180043830     Canvas.obj
 0002:0000f8a0       ??_C@_0BD@OLBABOEK@vector?$DMT?$DO?5too?5long?$AA@ 00000001800438a0     Canvas.obj
 0002:0000f8b8       ??_C@_1CE@LNAGEONJ@?$AA?$CB?$AAo?$AAb?$AAj?$AAe?$AAc?$AAt?$AA?4?$AAI?$AAs?$AAE?$AAm?$AAp?$AAt?$AAy?$AA?$CI?$AA?$CJ?$AA?$AA@ 00000001800438b8     Canvas.obj
 0002:0000f8e0       ??_7Canvas@@6B@            00000001800438e0     Canvas.obj
 0002:0000f8f8       ??_C@_0P@CKNMLMDB@CanvasGradient?$AA@ 00000001800438f8     CanvasGradient.obj
 0002:0000f908       ??_C@_0N@FFOKKILE@addColorStop?$AA@ 0000000180043908     CanvasGradient.obj
 0002:0000f918       ??_C@_0BC@KNPMEBHA@invalid?5arguments?$AA@ 0000000180043918     CanvasGradient.obj
 0002:0000f930       ??_C@_0BA@ELGKPKEI@offset?5required?$AA@ 0000000180043930     CanvasGradient.obj
 0002:0000f940       ??_C@_0BG@HHHCEBEM@color?5string?5required?$AA@ 0000000180043940     CanvasGradient.obj
 0002:0000f958       ??_C@_0BD@JKDEPLNJ@parse?5color?5failed?$AA@ 0000000180043958     CanvasGradient.obj
 0002:0000f970       ??_7Pattern@@6B@           0000000180043970     CanvasPattern.obj
 0002:0000f970       ??_7Gradient@@6B@          0000000180043970     CanvasGradient.obj
 0002:0000f988       ??_C@_0O@KEPDKAFI@CanvasPattern?$AA@ 0000000180043988     CanvasPattern.obj
 0002:0000f998       ??_C@_0CG@CKGIHBBA@Image?5given?5has?5not?5completed?5lo@ 0000000180043998     CanvasPattern.obj
 0002:0000f9c0       ??_C@_0BJ@NBALILEB@Image?5or?5Canvas?5expected?$AA@ 00000001800439c0     CanvasPattern.obj
 0002:0000f9e0       ??_C@_0BJ@HOMNLOJF@CanvasRenderingContext2D?$AA@ 00000001800439e0     CanvasRenderingContext2d.obj
 0002:0000fa00       ??_C@_09LANPKMCJ@drawImage?$AA@ 0000000180043a00     CanvasRenderingContext2d.obj
 0002:0000fa10       ??_C@_0N@HMHAOANH@putImageData?$AA@ 0000000180043a10     CanvasRenderingContext2d.obj
 0002:0000fa20       ??_C@_0N@LJBMKNKJ@getImageData?$AA@ 0000000180043a20     CanvasRenderingContext2d.obj
 0002:0000fa30       ??_C@_07IEJLLIOD@addPage?$AA@ 0000000180043a30     CanvasRenderingContext2d.obj
 0002:0000fa38       ??_C@_04EMMDIJJL@save?$AA@ 0000000180043a38     CanvasRenderingContext2d.obj
 0002:0000fa40       ??_C@_07HICINA@restore?$AA@ 0000000180043a40     CanvasRenderingContext2d.obj
 0002:0000fa48       ??_C@_06CEHMNFAL@rotate?$AA@ 0000000180043a48     CanvasRenderingContext2d.obj
 0002:0000fa50       ??_C@_09ODNGOEIO@translate?$AA@ 0000000180043a50     CanvasRenderingContext2d.obj
 0002:0000fa60       ??_C@_09IFONHNKG@transform?$AA@ 0000000180043a60     CanvasRenderingContext2d.obj
 0002:0000fa70       ??_C@_0P@KBHJLFLN@resetTransform?$AA@ 0000000180043a70     CanvasRenderingContext2d.obj
 0002:0000fa80       ??_C@_0O@MDNHBEAB@isPointInPath?$AA@ 0000000180043a80     CanvasRenderingContext2d.obj
 0002:0000fa90       ??_C@_05MHMEBBGO@scale?$AA@ 0000000180043a90     CanvasRenderingContext2d.obj
 0002:0000fa98       ??_C@_04POIGMEJN@clip?$AA@ 0000000180043a98     CanvasRenderingContext2d.obj
 0002:0000faa0       ??_C@_04OBAECEGJ@fill?$AA@ 0000000180043aa0     CanvasRenderingContext2d.obj
 0002:0000faa8       ??_C@_06JDPPEKDJ@stroke?$AA@ 0000000180043aa8     CanvasRenderingContext2d.obj
 0002:0000fab0       ??_C@_08BKNBKKHP@fillText?$AA@ 0000000180043ab0     CanvasRenderingContext2d.obj
 0002:0000fac0       ??_C@_0L@NKNGGLJB@strokeText?$AA@ 0000000180043ac0     CanvasRenderingContext2d.obj
 0002:0000fad0       ??_C@_08IFOCBDEO@fillRect?$AA@ 0000000180043ad0     CanvasRenderingContext2d.obj
 0002:0000fae0       ??_C@_0L@EFOFNCKA@strokeRect?$AA@ 0000000180043ae0     CanvasRenderingContext2d.obj
 0002:0000faf0       ??_C@_09CADLENBP@clearRect?$AA@ 0000000180043af0     CanvasRenderingContext2d.obj
 0002:0000fafc       ??_C@_04LHPFHFPH@rect?$AA@ 0000000180043afc     CanvasRenderingContext2d.obj
 0002:0000fb08       ??_C@_0M@PDPLNFGN@measureText?$AA@ 0000000180043b08     CanvasRenderingContext2d.obj
 0002:0000fb14       ??_C@_06ICOKFDHB@moveTo?$AA@ 0000000180043b14     CanvasRenderingContext2d.obj
 0002:0000fb1c       ??_C@_06KCFEGHJL@lineTo?$AA@ 0000000180043b1c     CanvasRenderingContext2d.obj
 0002:0000fb28       ??_C@_0O@PAEGDEKM@bezierCurveTo?$AA@ 0000000180043b28     CanvasRenderingContext2d.obj
 0002:0000fb38       ??_C@_0BB@NNCDNEFE@quadraticCurveTo?$AA@ 0000000180043b38     CanvasRenderingContext2d.obj
 0002:0000fb50       ??_C@_09GMDIDHBP@beginPath?$AA@ 0000000180043b50     CanvasRenderingContext2d.obj
 0002:0000fb60       ??_C@_09FFNFMCIM@closePath?$AA@ 0000000180043b60     CanvasRenderingContext2d.obj
 0002:0000fb6c       ??_C@_03EEIEDENP@arc?$AA@  0000000180043b6c     CanvasRenderingContext2d.obj
 0002:0000fb70       ??_C@_05KOMEJIOF@arcTo?$AA@ 0000000180043b70     CanvasRenderingContext2d.obj
 0002:0000fb78       ??_C@_07IANGJLLC@ellipse?$AA@ 0000000180043b78     CanvasRenderingContext2d.obj
 0002:0000fb80       ??_C@_0M@KIBHMOJH@setLineDash?$AA@ 0000000180043b80     CanvasRenderingContext2d.obj
 0002:0000fb90       ??_C@_0M@KHAJBIBE@getLineDash?$AA@ 0000000180043b90     CanvasRenderingContext2d.obj
 0002:0000fba0       ??_C@_08GCBDMPHE@_setFont?$AA@ 0000000180043ba0     CanvasRenderingContext2d.obj
 0002:0000fbb0       ??_C@_0O@LDAFEHIB@_setFillColor?$AA@ 0000000180043bb0     CanvasRenderingContext2d.obj
 0002:0000fbc0       ??_C@_0BA@KNEOHGAJ@_setStrokeColor?$AA@ 0000000180043bc0     CanvasRenderingContext2d.obj
 0002:0000fbd0       ??_C@_0BA@PBFLDAPN@_setFillPattern?$AA@ 0000000180043bd0     CanvasRenderingContext2d.obj
 0002:0000fbe0       ??_C@_0BC@FDNPDMMP@_setStrokePattern?$AA@ 0000000180043be0     CanvasRenderingContext2d.obj
 0002:0000fbf8       ??_C@_0BB@CFGDFFJO@_setTextBaseline?$AA@ 0000000180043bf8     CanvasRenderingContext2d.obj
 0002:0000fc10       ??_C@_0BC@FPEBGOFB@_setTextAlignment?$AA@ 0000000180043c10     CanvasRenderingContext2d.obj
 0002:0000fc28       ??_C@_0L@PJBLMGHG@_getMatrix?$AA@ 0000000180043c28     CanvasRenderingContext2d.obj
 0002:0000fc38       ??_C@_0M@GJLGNIPC@pixelFormat?$AA@ 0000000180043c38     CanvasRenderingContext2d.obj
 0002:0000fc48       ??_C@_0P@HGKACBEG@patternQuality?$AA@ 0000000180043c48     CanvasRenderingContext2d.obj
 0002:0000fc58       ??_C@_0BJ@KOAEPHEF@globalCompositeOperation?$AA@ 0000000180043c58     CanvasRenderingContext2d.obj
 0002:0000fc78       ??_C@_0M@EJNLOLOE@globalAlpha?$AA@ 0000000180043c78     CanvasRenderingContext2d.obj
 0002:0000fc88       ??_C@_0M@JPJLLJDB@shadowColor?$AA@ 0000000180043c88     CanvasRenderingContext2d.obj
 0002:0000fc98       ??_C@_09EGMCAAKI@fillColor?$AA@ 0000000180043c98     CanvasRenderingContext2d.obj
 0002:0000fca8       ??_C@_0M@BLAMIBG@strokeColor?$AA@ 0000000180043ca8     CanvasRenderingContext2d.obj
 0002:0000fcb8       ??_C@_0L@EFNIPLDK@miterLimit?$AA@ 0000000180043cb8     CanvasRenderingContext2d.obj
 0002:0000fcc8       ??_C@_09PELAPJEH@lineWidth?$AA@ 0000000180043cc8     CanvasRenderingContext2d.obj
 0002:0000fcd8       ??_C@_07IPBACFHB@lineCap?$AA@ 0000000180043cd8     CanvasRenderingContext2d.obj
 0002:0000fce0       ??_C@_08CCMLJKBL@lineJoin?$AA@ 0000000180043ce0     CanvasRenderingContext2d.obj
 0002:0000fcf0       ??_C@_0P@NNEFDNMM@lineDashOffset?$AA@ 0000000180043cf0     CanvasRenderingContext2d.obj
 0002:0000fd00       ??_C@_0O@FOAIOCIO@shadowOffsetX?$AA@ 0000000180043d00     CanvasRenderingContext2d.obj
 0002:0000fd10       ??_C@_0O@EHBDNDMP@shadowOffsetY?$AA@ 0000000180043d10     CanvasRenderingContext2d.obj
 0002:0000fd20       ??_C@_0L@FJBIPGOL@shadowBlur?$AA@ 0000000180043d20     CanvasRenderingContext2d.obj
 0002:0000fd30       ??_C@_09BEIGEBLF@antialias?$AA@ 0000000180043d30     CanvasRenderingContext2d.obj
 0002:0000fd40       ??_C@_0BA@GALDJJKL@textDrawingMode?$AA@ 0000000180043d40     CanvasRenderingContext2d.obj
 0002:0000fd50       ??_C@_06EOIELIPE@filter?$AA@ 0000000180043d50     CanvasRenderingContext2d.obj
 0002:0000fd58       ??_C@_0BJ@OLEJJKDH@CanvasRenderingContext2d?$AA@ 0000000180043d58     CanvasRenderingContext2d.obj
 0002:0000fd78       ??_C@_0L@NNKNDDLN@sans?5serif?$AA@ 0000000180043d78     CanvasRenderingContext2d.obj
 0002:0000fd88       ??_C@_07NOFPBGJH@evenodd?$AA@ 0000000180043d88     CanvasRenderingContext2d.obj
 0002:0000fd90       ??_C@_0BA@IBFIJLCO@Canvas?5expected?$AA@ 0000000180043d90     CanvasRenderingContext2d.obj
 0002:0000fda0       ??_C@_06OECNJAC@RGBA32?$AA@ 0000000180043da0     CanvasRenderingContext2d.obj
 0002:0000fda8       ??_C@_05EIHACBEG@RGB24?$AA@ 0000000180043da8     CanvasRenderingContext2d.obj
 0002:0000fdb0       ??_C@_02GGHJHNOB@A8?$AA@   0000000180043db0     CanvasRenderingContext2d.obj
 0002:0000fdb8       ??_C@_09FDIJCLOJ@RGB16_565?$AA@ 0000000180043db8     CanvasRenderingContext2d.obj
 0002:0000fdc4       ??_C@_02LHLLMGKI@A1?$AA@   0000000180043dc4     CanvasRenderingContext2d.obj
 0002:0000fdc8       ??_C@_05IAEKHIAN@alpha?$AA@ 0000000180043dc8     CanvasRenderingContext2d.obj
 0002:0000fdd0       ??_C@_0CG@EHLCPGGB@only?5PDF?5canvases?5support?5?4nextP@ 0000000180043dd0     CanvasRenderingContext2d.obj
 0002:0000fdf8       ??_C@_0BD@DJPHEEKJ@ImageData?5expected?$AA@ 0000000180043df8     CanvasRenderingContext2d.obj
 0002:0000fe10       ??_C@_0DJ@CKCCPANE@putImageData?5for?5CANVAS_FORMAT_A@ 0000000180043e10     CanvasRenderingContext2d.obj
 0002:0000fe50       ??_C@_0BF@EKHJHFGA@Invalid?5pixel?5format?$AA@ 0000000180043e50     CanvasRenderingContext2d.obj
 0002:0000fe68       ??_C@_0CH@NDMGIAMG@IndexSizeError?3?5The?5source?5width@ 0000000180043e68     CanvasRenderingContext2d.obj
 0002:0000fe90       ??_C@_0CI@HDADGBDO@IndexSizeError?3?5The?5source?5heigh@ 0000000180043e90     CanvasRenderingContext2d.obj
 0002:0000feb8       ??_C@_0DJ@DCIKNENI@getImageData?5for?5CANVAS_FORMAT_A@ 0000000180043eb8     CanvasRenderingContext2d.obj
 0002:0000fef8       ??_C@_0M@OABMHCHE@source?9over?$AA@ 0000000180043ef8     CanvasRenderingContext2d.obj
 0002:0000ff08       ??_C@_0M@MKIEODMK@source?9atop?$AA@ 0000000180043f08     CanvasRenderingContext2d.obj
 0002:0000ff18       ??_C@_09CMAEPNDN@source?9in?$AA@ 0000000180043f18     CanvasRenderingContext2d.obj
 0002:0000ff28       ??_C@_0L@CGAPOHFD@source?9out?$AA@ 0000000180043f28     CanvasRenderingContext2d.obj
 0002:0000ff34       ??_C@_03COLCDPPJ@xor?$AA@  0000000180043f34     CanvasRenderingContext2d.obj
 0002:0000ff38       ??_C@_0BB@CPBJJEG@destination?9atop?$AA@ 0000000180043f38     CanvasRenderingContext2d.obj
 0002:0000ff50       ??_C@_0P@GAHJLNBO@destination?9in?$AA@ 0000000180043f50     CanvasRenderingContext2d.obj
 0002:0000ff60       ??_C@_0BA@IECEOLGB@destination?9out?$AA@ 0000000180043f60     CanvasRenderingContext2d.obj
 0002:0000ff70       ??_C@_0BB@CIGJAIPI@destination?9over?$AA@ 0000000180043f70     CanvasRenderingContext2d.obj
 0002:0000ff84       ??_C@_05MEHLAELG@clear?$AA@ 0000000180043f84     CanvasRenderingContext2d.obj
 0002:0000ff8c       ??_C@_06OEKOLKIL@source?$AA@ 0000000180043f8c     CanvasRenderingContext2d.obj
 0002:0000ff94       ??_C@_04EEHDLEKF@dest?$AA@ 0000000180043f94     CanvasRenderingContext2d.obj
 0002:0000ff9c       ??_C@_04DPPOAFIB@over?$AA@ 0000000180043f9c     CanvasRenderingContext2d.obj
 0002:0000ffa8       ??_C@_08MEKLKAIJ@saturate?$AA@ 0000000180043fa8     CanvasRenderingContext2d.obj
 0002:0000ffb8       ??_C@_07OODLOHBD@lighten?$AA@ 0000000180043fb8     CanvasRenderingContext2d.obj
 0002:0000ffc0       ??_C@_03BDGOHNNK@add?$AA@  0000000180043fc0     CanvasRenderingContext2d.obj
 0002:0000ffc4       ??_C@_06OCOCEFJK@darker?$AA@ 0000000180043fc4     CanvasRenderingContext2d.obj
 0002:0000ffd0       ??_C@_08MMOCDOEL@multiply?$AA@ 0000000180043fd0     CanvasRenderingContext2d.obj
 0002:0000ffdc       ??_C@_06LPLGMLP@screen?$AA@ 0000000180043fdc     CanvasRenderingContext2d.obj
 0002:0000ffe8       ??_C@_07BJNHBMF@overlay?$AA@ 0000000180043fe8     CanvasRenderingContext2d.obj
 0002:0000fff0       ??_C@_0L@CEKGHIKD@hard?9light?$AA@ 0000000180043ff0     CanvasRenderingContext2d.obj
 0002:00010000       ??_C@_0L@DKCPCJMJ@soft?9light?$AA@ 0000000180044000     CanvasRenderingContext2d.obj
 0002:00010010       ??_C@_07LGBGJPAP@hsl?9hue?$AA@ 0000000180044010     CanvasRenderingContext2d.obj
 0002:00010018       ??_C@_0P@HLIOCFIP@hsl?9saturation?$AA@ 0000000180044018     CanvasRenderingContext2d.obj
 0002:00010028       ??_C@_09IEDFIDAP@hsl?9color?$AA@ 0000000180044028     CanvasRenderingContext2d.obj
 0002:00010038       ??_C@_0P@HOBGGHID@hsl?9luminosity?$AA@ 0000000180044038     CanvasRenderingContext2d.obj
 0002:00010048       ??_C@_0M@HJIFAOGP@color?9dodge?$AA@ 0000000180044048     CanvasRenderingContext2d.obj
 0002:00010058       ??_C@_0L@BNODHIAO@color?9burn?$AA@ 0000000180044058     CanvasRenderingContext2d.obj
 0002:00010068       ??_C@_0L@CHCOIIBP@difference?$AA@ 0000000180044068     CanvasRenderingContext2d.obj
 0002:00010078       ??_C@_09GJPEMMGJ@exclusion?$AA@ 0000000180044078     CanvasRenderingContext2d.obj
 0002:00010084       ??_C@_04LBNBHAJC@fast?$AA@ 0000000180044084     CanvasRenderingContext2d.obj
 0002:0001008c       ??_C@_04DDJAGGFE@good?$AA@ 000000018004408c     CanvasRenderingContext2d.obj
 0002:00010094       ??_C@_04MLDDEBAF@best?$AA@ 0000000180044094     CanvasRenderingContext2d.obj
 0002:000100a0       ??_C@_07NHJEPDMH@nearest?$AA@ 00000001800440a0     CanvasRenderingContext2d.obj
 0002:000100a8       ??_C@_08LJMMPFJO@bilinear?$AA@ 00000001800440a8     CanvasRenderingContext2d.obj
 0002:000100b8       ??_C@_07IEMLKEO@lighter?$AA@ 00000001800440b8     CanvasRenderingContext2d.obj
 0002:000100c0       ??_C@_04CGFJFPFD@none?$AA@ 00000001800440c0     CanvasRenderingContext2d.obj
 0002:000100c8       ??_C@_04GEBBKIAA@gray?$AA@ 00000001800440c8     CanvasRenderingContext2d.obj
 0002:000100d0       ??_C@_08JOJOGLJH@subpixel?$AA@ 00000001800440d0     CanvasRenderingContext2d.obj
 0002:000100e0       ??_C@_07DLHCIBDH@default?$AA@ 00000001800440e0     CanvasRenderingContext2d.obj
 0002:000100e8       ??_C@_04LNEJFJGI@path?$AA@ 00000001800440e8     CanvasRenderingContext2d.obj
 0002:000100f0       ??_C@_05OIOMJNBL@glyph?$AA@ 00000001800440f0     CanvasRenderingContext2d.obj
 0002:000100f8       ??_C@_05JDNDNKBA@bevel?$AA@ 00000001800440f8     CanvasRenderingContext2d.obj
 0002:00010100       ??_C@_05MIMAKCN@round?$AA@ 0000000180044100     CanvasRenderingContext2d.obj
 0002:00010108       ??_C@_05NJDNHCJA@miter?$AA@ 0000000180044108     CanvasRenderingContext2d.obj
 0002:00010110       ??_C@_06ICDKOIFG@square?$AA@ 0000000180044110     CanvasRenderingContext2d.obj
 0002:00010118       ??_C@_04JOGFAABP@butt?$AA@ 0000000180044118     CanvasRenderingContext2d.obj
 0002:00010120       ??_C@_0BN@MEBGIMHG@Gradient?5or?5Pattern?5expected?$AA@ 0000000180044120     CanvasRenderingContext2d.obj
 0002:00010140       ??_C@_0BM@CKBGKGDN@lineTo?$CI?$CJ?5x?5must?5be?5a?5number?$AA@ 0000000180044140     CanvasRenderingContext2d.obj
 0002:00010160       ??_C@_0BM@PNPECGGF@lineTo?$CI?$CJ?5y?5must?5be?5a?5number?$AA@ 0000000180044160     CanvasRenderingContext2d.obj
 0002:00010180       ??_C@_0BM@GIIBHACD@moveTo?$CI?$CJ?5x?5must?5be?5a?5number?$AA@ 0000000180044180     CanvasRenderingContext2d.obj
 0002:000101a0       ??_C@_0BM@LPGDPAHL@moveTo?$CI?$CJ?5y?5must?5be?5a?5number?$AA@ 00000001800441a0     CanvasRenderingContext2d.obj
 0002:000101c0       ??_C@_0BG@IGICBKHO@actualBoundingBoxLeft?$AA@ 00000001800441c0     CanvasRenderingContext2d.obj
 0002:000101d8       ??_C@_0BH@KNMENBEI@actualBoundingBoxRight?$AA@ 00000001800441d8     CanvasRenderingContext2d.obj
 0002:000101f0       ??_C@_0BI@NBNJEOJE@actualBoundingBoxAscent?$AA@ 00000001800441f0     CanvasRenderingContext2d.obj
 0002:00010208       ??_C@_0BJ@LKCIMDON@actualBoundingBoxDescent?$AA@ 0000000180044208     CanvasRenderingContext2d.obj
 0002:00010228       ??_C@_0P@FGHEPLGI@emHeightAscent?$AA@ 0000000180044228     CanvasRenderingContext2d.obj
 0002:00010238       ??_C@_0BA@OKENAGP@emHeightDescent?$AA@ 0000000180044238     CanvasRenderingContext2d.obj
 0002:00010248       ??_C@_0BD@NGFBNEGE@alphabeticBaseline?$AA@ 0000000180044248     CanvasRenderingContext2d.obj
 0002:00010260       ??_7Context2d@@6B@         0000000180044260     CanvasRenderingContext2d.obj
 0002:00010278       ??_C@_0M@CEEDCJLA@transparent?$AA@ 0000000180044278     color.obj
 0002:00010288       ??_C@_09GNHGKALJ@aliceblue?$AA@ 0000000180044288     color.obj
 0002:00010298       ??_C@_0N@OJFLMGEJ@antiquewhite?$AA@ 0000000180044298     color.obj
 0002:000102a8       ??_C@_04GANAGBLL@aqua?$AA@ 00000001800442a8     color.obj
 0002:000102b0       ??_C@_0L@MOKEMMG@aquamarine?$AA@ 00000001800442b0     color.obj
 0002:000102bc       ??_C@_05CNOJAJLP@azure?$AA@ 00000001800442bc     color.obj
 0002:000102c4       ??_C@_05EJOPPCPO@beige?$AA@ 00000001800442c4     color.obj
 0002:000102cc       ??_C@_06HGAAELGA@bisque?$AA@ 00000001800442cc     color.obj
 0002:000102d4       ??_C@_05BIMBDNDC@black?$AA@ 00000001800442d4     color.obj
 0002:000102e0       ??_C@_0P@CMCBOAOE@blanchedalmond?$AA@ 00000001800442e0     color.obj
 0002:000102f0       ??_C@_04OBGPFBCN@blue?$AA@ 00000001800442f0     color.obj
 0002:000102f8       ??_C@_0L@LKLKALMM@blueviolet?$AA@ 00000001800442f8     color.obj
 0002:00010304       ??_C@_05EBJGJMAL@brown?$AA@ 0000000180044304     color.obj
 0002:00010310       ??_C@_09JHLANABP@burlywood?$AA@ 0000000180044310     color.obj
 0002:00010320       ??_C@_09KIJDGGAG@cadetblue?$AA@ 0000000180044320     color.obj
 0002:00010330       ??_C@_0L@CHNAEACO@chartreuse?$AA@ 0000000180044330     color.obj
 0002:00010340       ??_C@_09BPADAHOC@chocolate?$AA@ 0000000180044340     color.obj
 0002:0001034c       ??_C@_05JKFECOJP@coral?$AA@ 000000018004434c     color.obj
 0002:00010358       ??_C@_0P@KLMOGGLK@cornflowerblue?$AA@ 0000000180044358     color.obj
 0002:00010368       ??_C@_08DECOJLB@cornsilk?$AA@ 0000000180044368     color.obj
 0002:00010378       ??_C@_07DAGIGOOE@crimson?$AA@ 0000000180044378     color.obj
 0002:00010380       ??_C@_04EDBDANFH@cyan?$AA@ 0000000180044380     color.obj
 0002:00010388       ??_C@_08MFEOPMII@darkblue?$AA@ 0000000180044388     color.obj
 0002:00010398       ??_C@_08GHDCKAPC@darkcyan?$AA@ 0000000180044398     color.obj
 0002:000103a8       ??_C@_0O@GGJPBKNE@darkgoldenrod?$AA@ 00000001800443a8     color.obj
 0002:000103b8       ??_C@_08EADAAFKF@darkgray?$AA@ 00000001800443b8     color.obj
 0002:000103c8       ??_C@_09MHNMOMAI@darkgreen?$AA@ 00000001800443c8     color.obj
 0002:000103d8       ??_C@_08EHDJKNHJ@darkgrey?$AA@ 00000001800443d8     color.obj
 0002:000103e8       ??_C@_09FAPDIPMK@darkkhaki?$AA@ 00000001800443e8     color.obj
 0002:000103f8       ??_C@_0M@MEEFECHN@darkmagenta?$AA@ 00000001800443f8     color.obj
 0002:00010408       ??_C@_0P@BGCLDNDK@darkolivegreen?$AA@ 0000000180044408     color.obj
 0002:00010418       ??_C@_0L@ICJJPBF@darkorange?$AA@ 0000000180044418     color.obj
 0002:00010428       ??_C@_0L@EEAHIPOC@darkorchid?$AA@ 0000000180044428     color.obj
 0002:00010438       ??_C@_07MFAOOMGP@darkred?$AA@ 0000000180044438     color.obj
 0002:00010440       ??_C@_0L@CKNHPKLG@darksalmon?$AA@ 0000000180044440     color.obj
 0002:00010450       ??_C@_0N@FBOCOPGH@darkseagreen?$AA@ 0000000180044450     color.obj
 0002:00010460       ??_C@_0O@PABAFENG@darkslateblue?$AA@ 0000000180044460     color.obj
 0002:00010470       ??_C@_0O@HFGOKNPL@darkslategray?$AA@ 0000000180044470     color.obj
 0002:00010480       ??_C@_0O@HCGHAFCH@darkslategrey?$AA@ 0000000180044480     color.obj
 0002:00010490       ??_C@_0O@HKLGOIEA@darkturquoise?$AA@ 0000000180044490     color.obj
 0002:000104a0       ??_C@_0L@NGBKDFME@darkviolet?$AA@ 00000001800444a0     color.obj
 0002:000104b0       ??_C@_08CJGCPHKF@deeppink?$AA@ 00000001800444b0     color.obj
 0002:000104c0       ??_C@_0M@BGGBNDNG@deepskyblue?$AA@ 00000001800444c0     color.obj
 0002:000104d0       ??_C@_07DJPEDLIH@dimgray?$AA@ 00000001800444d0     color.obj
 0002:000104d8       ??_C@_07DOPNJDFL@dimgrey?$AA@ 00000001800444d8     color.obj
 0002:000104e0       ??_C@_0L@MIOOBLBJ@dodgerblue?$AA@ 00000001800444e0     color.obj
 0002:000104f0       ??_C@_09ELCPEDIM@firebrick?$AA@ 00000001800444f0     color.obj
 0002:00010500       ??_C@_0M@FFMCAIP@floralwhite?$AA@ 0000000180044500     color.obj
 0002:00010510       ??_C@_0M@HBKAKFBN@forestgreen?$AA@ 0000000180044510     color.obj
 0002:00010520       ??_C@_07FHEBJCGF@fuchsia?$AA@ 0000000180044520     color.obj
 0002:00010528       ??_C@_09MIGKOGAO@gainsboro?$AA@ 0000000180044528     color.obj
 0002:00010538       ??_C@_0L@CELMEDAA@ghostwhite?$AA@ 0000000180044538     color.obj
 0002:00010544       ??_C@_04DBNGNIAN@gold?$AA@ 0000000180044544     color.obj
 0002:00010550       ??_C@_09KJDOAGJL@goldenrod?$AA@ 0000000180044550     color.obj
 0002:0001055c       ??_C@_05GBEEJKMC@green?$AA@ 000000018004455c     color.obj
 0002:00010568       ??_C@_0M@LFPLFELJ@greenyellow?$AA@ 0000000180044568     color.obj
 0002:00010574       ??_C@_04GDBIAANM@grey?$AA@ 0000000180044574     color.obj
 0002:00010580       ??_C@_08BKNCNHLL@honeydew?$AA@ 0000000180044580     color.obj
 0002:00010590       ??_C@_07PCCOEED@hotpink?$AA@ 0000000180044590     color.obj
 0002:00010598       ??_C@_09IELIJPNO@indianred?$AA@ 0000000180044598     color.obj
 0002:000105a4       ??_C@_06MLCCIEFE@indigo?$AA@ 00000001800445a4     color.obj
 0002:000105ac       ??_C@_05NNJJIMHF@ivory?$AA@ 00000001800445ac     color.obj
 0002:000105b4       ??_C@_05PGGLPJAA@khaki?$AA@ 00000001800445b4     color.obj
 0002:000105c0       ??_C@_08KJDCPJPL@lavender?$AA@ 00000001800445c0     color.obj
 0002:000105d0       ??_C@_0O@CCCMFNCK@lavenderblush?$AA@ 00000001800445d0     color.obj
 0002:000105e0       ??_C@_09MONDINDP@lawngreen?$AA@ 00000001800445e0     color.obj
 0002:000105f0       ??_C@_0N@ICDCAEHK@lemonchiffon?$AA@ 00000001800445f0     color.obj
 0002:00010600       ??_C@_09NBIPJLA@lightblue?$AA@ 0000000180044600     color.obj
 0002:00010610       ??_C@_0L@BEAGLGMO@lightcoral?$AA@ 0000000180044610     color.obj
 0002:00010620       ??_C@_09KPGEKFMK@lightcyan?$AA@ 0000000180044620     color.obj
 0002:00010630       ??_C@_0BF@PJADCIND@lightgoldenrodyellow?$AA@ 0000000180044630     color.obj
 0002:00010648       ??_C@_09IIGGAAJN@lightgray?$AA@ 0000000180044648     color.obj
 0002:00010658       ??_C@_0L@OPBGACJD@lightgreen?$AA@ 0000000180044658     color.obj
 0002:00010668       ??_C@_09IPGPKIEB@lightgrey?$AA@ 0000000180044668     color.obj
 0002:00010678       ??_C@_09KOBGKMHP@lightpink?$AA@ 0000000180044678     color.obj
 0002:00010688       ??_C@_0M@ENCCHKJE@lightsalmon?$AA@ 0000000180044688     color.obj
 0002:00010698       ??_C@_0O@BLOIENJC@lightseagreen?$AA@ 0000000180044698     color.obj
 0002:000106a8       ??_C@_0N@JIFIFCAN@lightskyblue?$AA@ 00000001800446a8     color.obj
 0002:000106b8       ??_C@_0P@LIPDKBMK@lightslategray?$AA@ 00000001800446b8     color.obj
 0002:000106c8       ??_C@_0P@LPPKAJBG@lightslategrey?$AA@ 00000001800446c8     color.obj
 0002:000106d8       ??_C@_0P@EIHJHAMG@lightsteelblue?$AA@ 00000001800446d8     color.obj
 0002:000106e8       ??_C@_0M@FBHPKJLB@lightyellow?$AA@ 00000001800446e8     color.obj
 0002:000106f4       ??_C@_04HLLEONLG@lime?$AA@ 00000001800446f4     color.obj
 0002:00010700       ??_C@_09JKHHFGDO@limegreen?$AA@ 0000000180044700     color.obj
 0002:0001070c       ??_C@_05MLLCELJD@linen?$AA@ 000000018004470c     color.obj
 0002:00010718       ??_C@_07EMDGAPCI@magenta?$AA@ 0000000180044718     color.obj
 0002:00010720       ??_C@_06BDPIEPJF@maroon?$AA@ 0000000180044720     color.obj
 0002:00010728       ??_C@_0BB@HHCOFKIC@mediumaquamarine?$AA@ 0000000180044728     color.obj
 0002:00010740       ??_C@_0L@CEFFILOH@mediumblue?$AA@ 0000000180044740     color.obj
 0002:00010750       ??_C@_0N@GIADPNAO@mediumorchid?$AA@ 0000000180044750     color.obj
 0002:00010760       ??_C@_0N@DDGNBDHJ@mediumpurple?$AA@ 0000000180044760     color.obj
 0002:00010770       ??_C@_0P@BNCCGPJD@mediumseagreen?$AA@ 0000000180044770     color.obj
 0002:00010780       ??_C@_0BA@EKIMKCFD@mediumslateblue?$AA@ 0000000180044780     color.obj
 0002:00010790       ??_C@_0BC@POGDBPNO@mediumspringgreen?$AA@ 0000000180044790     color.obj
 0002:000107a8       ??_C@_0BA@MACKBOMF@mediumturquoise?$AA@ 00000001800447a8     color.obj
 0002:000107b8       ??_C@_0BA@PNNCDMHM@mediumvioletred?$AA@ 00000001800447b8     color.obj
 0002:000107c8       ??_C@_0N@PJDKAOHK@midnightblue?$AA@ 00000001800447c8     color.obj
 0002:000107d8       ??_C@_09INCGBEJA@mintcream?$AA@ 00000001800447d8     color.obj
 0002:000107e8       ??_C@_09HABDAMOF@mistyrose?$AA@ 00000001800447e8     color.obj
 0002:000107f8       ??_C@_08OIIPPDDA@moccasin?$AA@ 00000001800447f8     color.obj
 0002:00010808       ??_C@_0M@OKLAMJCL@navajowhite?$AA@ 0000000180044808     color.obj
 0002:00010814       ??_C@_04DCMEIHPF@navy?$AA@ 0000000180044814     color.obj
 0002:00010820       ??_C@_07MBCGBJON@oldlace?$AA@ 0000000180044820     color.obj
 0002:00010828       ??_C@_05OFIFEKBG@olive?$AA@ 0000000180044828     color.obj
 0002:00010830       ??_C@_09CNLBGLAE@olivedrab?$AA@ 0000000180044830     color.obj
 0002:0001083c       ??_C@_06HDDOCMMN@orange?$AA@ 000000018004483c     color.obj
 0002:00010848       ??_C@_09OPJMLMBK@orangered?$AA@ 0000000180044848     color.obj
 0002:00010854       ??_C@_06DPBADMDK@orchid?$AA@ 0000000180044854     color.obj
 0002:00010860       ??_C@_0O@KONOLMEH@palegoldenrod?$AA@ 0000000180044860     color.obj
 0002:00010870       ??_C@_09NAJHJFNO@palegreen?$AA@ 0000000180044870     color.obj
 0002:00010880       ??_C@_0O@LCPHEOND@paleturquoise?$AA@ 0000000180044880     color.obj
 0002:00010890       ??_C@_0O@IPAPGMGK@palevioletred?$AA@ 0000000180044890     color.obj
 0002:000108a0       ??_C@_0L@NPJMDDDD@papayawhip?$AA@ 00000001800448a0     color.obj
 0002:000108b0       ??_C@_09GELOGGEC@peachpuff?$AA@ 00000001800448b0     color.obj
 0002:000108bc       ??_C@_04MJMKNOJB@peru?$AA@ 00000001800448bc     color.obj
 0002:000108c4       ??_C@_04ECGBAEOC@pink?$AA@ 00000001800448c4     color.obj
 0002:000108cc       ??_C@_04DDJGBPMH@plum?$AA@ 00000001800448cc     color.obj
 0002:000108d8       ??_C@_0L@MNADNFAH@powderblue?$AA@ 00000001800448d8     color.obj
 0002:000108e4       ??_C@_06GEHONCEN@purple?$AA@ 00000001800448e4     color.obj
 0002:000108f0       ??_C@_0O@JGOBAAIL@rebeccapurple?$AA@ 00000001800448f0     color.obj
 0002:00010900       ??_C@_03FAAAOPJM@red?$AA@  0000000180044900     color.obj
 0002:00010908       ??_C@_09DJJHENIF@rosybrown?$AA@ 0000000180044908     color.obj
 0002:00010918       ??_C@_09FEEJNHFN@royalblue?$AA@ 0000000180044918     color.obj
 0002:00010928       ??_C@_0M@MOEGEDCP@saddlebrown?$AA@ 0000000180044928     color.obj
 0002:00010934       ??_C@_06FBMAEJGO@salmon?$AA@ 0000000180044934     color.obj
 0002:00010940       ??_C@_0L@HLMGLGHH@sandybrown?$AA@ 0000000180044940     color.obj
 0002:00010950       ??_C@_08EKGLDJFB@seagreen?$AA@ 0000000180044950     color.obj
 0002:00010960       ??_C@_08MFJLKPPC@seashell?$AA@ 0000000180044960     color.obj
 0002:0001096c       ??_C@_06CEGMHAGE@sienna?$AA@ 000000018004496c     color.obj
 0002:00010974       ??_C@_06NBGLMDBG@silver?$AA@ 0000000180044974     color.obj
 0002:00010980       ??_C@_07MFCMKLDM@skyblue?$AA@ 0000000180044980     color.obj
 0002:00010988       ??_C@_09DPLBEIJJ@slateblue?$AA@ 0000000180044988     color.obj
 0002:00010998       ??_C@_09LKMPLBLE@slategray?$AA@ 0000000180044998     color.obj
 0002:000109a8       ??_C@_09LNMGBJGI@slategrey?$AA@ 00000001800449a8     color.obj
 0002:000109b4       ??_C@_04HPKDHBOB@snow?$AA@ 00000001800449b4     color.obj
 0002:000109c0       ??_C@_0M@IPKJFOEB@springgreen?$AA@ 00000001800449c0     color.obj
 0002:000109d0       ??_C@_09EKEFGALI@steelblue?$AA@ 00000001800449d0     color.obj
 0002:000109dc       ??_C@_03IIINPABG@tan?$AA@  00000001800449dc     color.obj
 0002:000109e0       ??_C@_04LJCKMMGA@teal?$AA@ 00000001800449e0     color.obj
 0002:000109e8       ??_C@_07CGANODJO@thistle?$AA@ 00000001800449e8     color.obj
 0002:000109f0       ??_C@_06NALDPNEI@tomato?$AA@ 00000001800449f0     color.obj
 0002:000109f8       ??_C@_09LFBHPEAP@turquoise?$AA@ 00000001800449f8     color.obj
 0002:00010a04       ??_C@_06KNANIGBM@violet?$AA@ 0000000180044a04     color.obj
 0002:00010a0c       ??_C@_05PPOGEFHN@wheat?$AA@ 0000000180044a0c     color.obj
 0002:00010a14       ??_C@_05PMAELIEO@white?$AA@ 0000000180044a14     color.obj
 0002:00010a20       ??_C@_0L@FDFMBGNF@whitesmoke?$AA@ 0000000180044a20     color.obj
 0002:00010a2c       ??_C@_06ENJNJKEL@yellow?$AA@ 0000000180044a2c     color.obj
 0002:00010a38       ??_C@_0M@GCLLLGON@yellowgreen?$AA@ 0000000180044a38     color.obj
 0002:00010a48       ??_C@_0O@CAFKCKKM@?$CD?$CF?42x?$CF?42x?$CF?42x?$AA@ 0000000180044a48     color.obj
 0002:00010a58       ??_C@_0BH@IMKFBGII@rgba?$CI?$CFd?0?5?$CFd?0?5?$CFd?0?5?$CF?42f?$CJ?$AA@ 0000000180044a58     color.obj
 0002:00010a70       ??_C@_04KDAMFBD@rgb?$CI?$AA@ 0000000180044a70     color.obj
 0002:00010a78       ??_C@_05KGKCGJPO@rgba?$CI?$AA@ 0000000180044a78     color.obj
 0002:00010a80       ??_C@_05HBFAAOHC@hsla?$CI?$AA@ 0000000180044a80     color.obj
 0002:00010a88       ??_C@_04PFIFKHPC@hsl?$CI?$AA@ 0000000180044a88     color.obj
 0002:00010a90       ??_C@_04CLILDBFP@rgba?$AA@ 0000000180044a90     color.obj
 0002:00010a98       ??_C@_03FNOJMHE@rgb?$AA@   0000000180044a98     color.obj
 0002:00010a9c       ??_C@_04NEDOFDLO@hsla?$AA@ 0000000180044a9c     color.obj
 0002:00010aa4       ??_C@_03LPNGANKN@hsl?$AA@  0000000180044aa4     color.obj
 0002:00011410       __pfnDliNotifyHook2        0000000180045410     win_delay_load_hook.obj
 0002:00011418       ??_C@_05NBEAGECF@Image?$AA@ 0000000180045418     Image.obj
 0002:00011420       ??_C@_08IPNIAGNA@complete?$AA@ 0000000180045420     Image.obj
 0002:00011430       ??_C@_0N@KIMBCBLK@naturalWidth?$AA@ 0000000180045430     Image.obj
 0002:00011440       ??_C@_0O@DMCHDHNN@naturalHeight?$AA@ 0000000180045440     Image.obj
 0002:00011450       ??_C@_08ELMFDEKI@dataMode?$AA@ 0000000180045450     Image.obj
 0002:00011460       ??_C@_0L@ICMMJJAL@MODE_IMAGE?$AA@ 0000000180045460     Image.obj
 0002:00011470       ??_C@_09IDBFNFDI@MODE_MIME?$AA@ 0000000180045470     Image.obj
 0002:0001147c       ??_C@_06FKJAAAAK@onload?$AA@ 000000018004547c     Image.obj
 0002:00011488       ??_C@_07MAAHHAB@onerror?$AA@ 0000000180045488     Image.obj
 0002:00011490       ??_C@_02JDPG@rb?$AA@       0000000180045490     Image.obj
 0002:00011498       ??_7Image@@6B@             0000000180045498     Image.obj
 0002:000114b0       ??_C@_09NIGIGFDC@ImageData?$AA@ 00000001800454b0     ImageData.obj
 0002:000114c0       ??_C@_0BK@BFELGOEH@The?5source?5width?5is?5zero?4?$AA@ 00000001800454c0     ImageData.obj
 0002:000114e0       ??_C@_0BL@EMOEEHOI@The?5source?5height?5is?5zero?4?$AA@ 00000001800454e0     ImageData.obj
 0002:00011500       ??_C@_0CH@IEOMAMPI@The?5input?5data?5has?5a?5zero?5byte?5l@ 0000000180045500     ImageData.obj
 0002:00011530       ??_C@_0GB@KDECOCKL@Expected?5?$CIUint8ClampedArray?0?5wid@ 0000000180045530     ImageData.obj
 0002:00011594       ??_C@_04PJOLNDGD@data?$AA@ 0000000180045594     ImageData.obj
 0002:000115a0       ??_7ImageData@@6B@         00000001800455a0     ImageData.obj
 0002:000115b8       ??_C@_0N@OGDOEBIM@cairoVersion?$AA@ 00000001800455b8     init.obj
 0002:000115c8       ??_C@_08FOJKHHJA@?$CFd?4?$CFd?4?$CFd?$AA@ 00000001800455c8     init.obj
 0002:000115d8       ??_C@_0BA@MCPGPJBI@freetypeVersion?$AA@ 00000001800455d8     init.obj
 0002:000115e8       ??_C@_0P@PAFBMNKD@?4?4?2src?2init?4cc?$AA@ 00000001800455e8     init.obj
 0002:000115f8       ??_C@_06DODEBHEI@canvas?$AA@ 00000001800455f8     init.obj
 0002:00011600       ??_C@_03BNMJFLDC@MAC?$AA@  0000000180045600     register_font.obj
 0002:00011608       ??_C@_08NLKHJAFK@UTF?916BE?$AA@ 0000000180045608     register_font.obj
 0002:00011614       ??_C@_05EGJIMALK@UTF?98?$AA@ 0000000180045614     register_font.obj
 0002:00011620       ??_C@_08HCOMDCCD@iojs?4exe?$AA@ 0000000180045620     win_delay_load_hook.obj
 0002:00011630       ??_C@_08JDDNMFDB@node?4exe?$AA@ 0000000180045630     win_delay_load_hook.obj
 0002:00011690       __real@3a800000            0000000180045690     CanvasRenderingContext2d.obj
 0002:00011694       __real@3dcccccd            0000000180045694     color.obj
 0002:00011698       __real@3f000000            0000000180045698     color.obj
 0002:0001169c       __real@3f13cd36            000000018004569c     CanvasRenderingContext2d.obj
 0002:000116a0       __real@3f50000000000000    00000001800456a0     CanvasRenderingContext2d.obj
 0002:000116a8       __real@3f800000            00000001800456a8     color.obj
 0002:000116b0       __real@3fe0000000000000    00000001800456b0     CanvasRenderingContext2d.obj
 0002:000116b8       __real@3fe5555555555555    00000001800456b8     CanvasRenderingContext2d.obj
 0002:000116c0       __real@3ff0000000000000    00000001800456c0     CanvasRenderingContext2d.obj
 0002:000116c8       __real@3ff6666666666666    00000001800456c8     CanvasRenderingContext2d.obj
 0002:000116d0       __real@40000000            00000001800456d0     color.obj
 0002:000116d8       __real@4000000000000000    00000001800456d8     Image.obj
 0002:000116e0       __real@400921fb54442d18    00000001800456e0     CanvasRenderingContext2d.obj
 0002:000116e8       __real@401921fb54442d18    00000001800456e8     CanvasRenderingContext2d.obj
 0002:000116f0       __real@40400000            00000001800456f0     color.obj
 0002:000116f8       __real@406fe00000000000    00000001800456f8     color.obj
 0002:00011700       __real@40800000            0000000180045700     color.obj
 0002:00011708       __real@4090000000000000    0000000180045708     CanvasRenderingContext2d.obj
 0002:00011710       __real@40c00000            0000000180045710     color.obj
 0002:00011718       __real@40c4000000000000    0000000180045718     CanvasRenderingContext2d.obj
 0002:00011720       __real@41200000            0000000180045720     color.obj
 0002:00011724       __real@42c80000            0000000180045724     color.obj
 0002:00011728       __real@437f0000            0000000180045728     color.obj
 0002:0001172c       __real@43b40000            000000018004572c     color.obj
 0002:00011730       __real@477fff00            0000000180045730     CanvasRenderingContext2d.obj
 0002:00011738       __real@7ff0000000000000    0000000180045738     CanvasRenderingContext2d.obj
 0002:00011740       __real@bff0000000000000    0000000180045740     CanvasRenderingContext2d.obj
 0002:00011748       __real@c0c00000            0000000180045748     color.obj
 0002:00011750       __xmm@3ff00000000000000000000000000000 0000000180045750     CanvasRenderingContext2d.obj
 0002:00011760       __xmm@80000000000000008000000000000000 0000000180045760     CanvasRenderingContext2d.obj
 0002:00011770       __xmm@80000000800000008000000080000000 0000000180045770     CanvasRenderingContext2d.obj
 0002:000122c0       __real@3c91a62633145c07    00000001800462c0     libucrt:acos.obj
 0002:000122c8       __real@3f0951665d321061    00000001800462c8     libucrt:acos.obj
 0002:000122d0       __real@3f51e5f887a62135    00000001800462d0     libucrt:acos.obj
 0002:000122d8       __real@3fac28d390c29690    00000001800462d8     libucrt:acos.obj
 0002:000122e0       __real@3fbb1a422982ce76    00000001800462e0     libucrt:acos.obj
 0002:000122e8       __real@3fcd1e4180029834    00000001800462e8     libucrt:acos.obj
 0002:000122f0       __real@3fd1a2bec1b7ef59    00000001800462f0     libucrt:acos.obj
 0002:000122f8       __real@3fdc7b297e269eac    00000001800462f8     libucrt:acos.obj
 0002:00012300       __real@3fee324ab418f78d    0000000180046300     libucrt:acos.obj
 0002:00012308       __real@3ff5d6b12001f228    0000000180046308     libucrt:acos.obj
 0002:00012310       __real@3ff921fb54442d18    0000000180046310     libucrt:acos.obj
 0002:00012318       __real@40062021571dccfc    0000000180046318     libucrt:acos.obj
 0002:00012320       __real@400a4646f903cdea    0000000180046320     libucrt:acos.obj
 0002:00012328       ??_C@_05FFFCHCED@acosf?$AA@ 0000000180046328     libucrt:acosf.obj
 0002:00012330       __real@3b81ce6b            0000000180046330     libucrt:acosf.obj
 0002:00012334       __real@3d678bdd            0000000180046334     libucrt:acosf.obj
 0002:00012338       __real@3e3c94dc            0000000180046338     libucrt:acosf.obj
 0002:0001233c       __real@3f561f0d            000000018004633c     libucrt:acosf.obj
 0002:00012340       __real@3f8d6fa5            0000000180046340     libucrt:acosf.obj
 0002:00012344       __real@3fc90fdb            0000000180046344     libucrt:acosf.obj
 0002:00012348       __real@40490fdb            0000000180046348     libucrt:acosf.obj
 0002:0001234c       __real@bc5b3fe1            000000018004634c     libucrt:acosf.obj
 0002:00012350       __real@bf800000            0000000180046350     libucrt:acosf.obj
 0002:00012354       ??_C@_05OOAOEJGP@fmodf?$AA@ 0000000180046354     libucrt:fmodf.obj
 0002:0001235c       ??_C@_05KGFAIMPG@sqrtf?$AA@ 000000018004635c     libucrt:sqrtf.obj
 0002:00012820       __L_2_by_pi_bits           0000000180046820     libucrt:l2_by_pi_bits.obj
 0002:00012918       _tls_used                  0000000180046918     LIBCMT:tlssup.obj
 0002:00012940       ??_R4exception@std@@6B@    0000000180046940     libcpmt:xthrow.obj
 0002:00012968       ??_R3exception@std@@8      0000000180046968     libcpmt:xthrow.obj
 0002:00012980       ??_R2exception@std@@8      0000000180046980     libcpmt:xthrow.obj
 0002:00012990       ??_R1A@?0A@EA@exception@std@@8 0000000180046990     libcpmt:xthrow.obj
 0002:000129b8       ??_R4bad_alloc@std@@6B@    00000001800469b8     libcpmt:xthrow.obj
 0002:000129e0       ??_R3bad_alloc@std@@8      00000001800469e0     libcpmt:xthrow.obj
 0002:000129f8       ??_R2bad_alloc@std@@8      00000001800469f8     libcpmt:xthrow.obj
 0002:00012a10       ??_R1A@?0A@EA@bad_alloc@std@@8 0000000180046a10     libcpmt:xthrow.obj
 0002:00012a38       ??_R4logic_error@std@@6B@  0000000180046a38     libcpmt:xthrow.obj
 0002:00012a60       ??_R3logic_error@std@@8    0000000180046a60     libcpmt:xthrow.obj
 0002:00012a78       ??_R2logic_error@std@@8    0000000180046a78     libcpmt:xthrow.obj
 0002:00012a90       ??_R1A@?0A@EA@logic_error@std@@8 0000000180046a90     libcpmt:xthrow.obj
 0002:00012ab8       ??_R4length_error@std@@6B@ 0000000180046ab8     libcpmt:xthrow.obj
 0002:00012ae0       ??_R3length_error@std@@8   0000000180046ae0     libcpmt:xthrow.obj
 0002:00012af8       ??_R2length_error@std@@8   0000000180046af8     libcpmt:xthrow.obj
 0002:00012b18       ??_R1A@?0A@EA@length_error@std@@8 0000000180046b18     libcpmt:xthrow.obj
 0002:00012b40       ??_R4out_of_range@std@@6B@ 0000000180046b40     libcpmt:xthrow.obj
 0002:00012b68       ??_R3out_of_range@std@@8   0000000180046b68     libcpmt:xthrow.obj
 0002:00012b80       ??_R2out_of_range@std@@8   0000000180046b80     libcpmt:xthrow.obj
 0002:00012ba0       ??_R1A@?0A@EA@out_of_range@std@@8 0000000180046ba0     libcpmt:xthrow.obj
 0002:00012bc8       ??_R4type_info@@6B@        0000000180046bc8     LIBCMT:std_type_info_static.obj
 0002:00012bf0       ??_R3type_info@@8          0000000180046bf0     LIBCMT:std_type_info_static.obj
 0002:00012c08       ??_R2type_info@@8          0000000180046c08     LIBCMT:std_type_info_static.obj
 0002:00012c18       ??_R1A@?0A@EA@type_info@@8 0000000180046c18     LIBCMT:std_type_info_static.obj
 0002:00012c40       ??_R4bad_array_new_length@std@@6B@ 0000000180046c40     LIBCMT:throw_bad_alloc.obj
 0002:00012c68       ??_R3bad_array_new_length@std@@8 0000000180046c68     LIBCMT:throw_bad_alloc.obj
 0002:00012c80       ??_R2bad_array_new_length@std@@8 0000000180046c80     LIBCMT:throw_bad_alloc.obj
 0002:00012ca0       ??_R1A@?0A@EA@bad_array_new_length@std@@8 0000000180046ca0     LIBCMT:throw_bad_alloc.obj
 0002:00012cc8       ??_R4bad_exception@std@@6B@ 0000000180046cc8     libvcruntime:frame.obj
 0002:00012cf0       ??_R3bad_exception@std@@8  0000000180046cf0     libvcruntime:frame.obj
 0002:00012d08       ??_R2bad_exception@std@@8  0000000180046d08     libvcruntime:frame.obj
 0002:00012d20       ??_R1A@?0A@EA@bad_exception@std@@8 0000000180046d20     libvcruntime:frame.obj
 0002:000131f0       __rtc_iaa                  00000001800471f0     LIBCMT:_initsect_.obj
 0002:000131f8       __rtc_izz                  00000001800471f8     LIBCMT:_initsect_.obj
 0002:00013200       __rtc_taa                  0000000180047200     LIBCMT:_initsect_.obj
 0002:00013208       __rtc_tzz                  0000000180047208     LIBCMT:_initsect_.obj
 0002:00016360       _TI2?AVbad_alloc@std@@     000000018004a360     libcpmt:xthrow.obj
 0002:00016380       _CTA2?AVbad_alloc@std@@    000000018004a380     libcpmt:xthrow.obj
 0002:00016398       _CT??_R0?AVbad_alloc@std@@@8??0bad_alloc@std@@QEAA@AEBV01@@Z24 000000018004a398     libcpmt:xthrow.obj
 0002:000163c0       _CT??_R0?AVexception@std@@@8??0exception@std@@QEAA@AEBV01@@Z24 000000018004a3c0     libcpmt:xthrow.obj
 0002:000163e8       _CT??_R0?AVlogic_error@std@@@8??0logic_error@std@@QEAA@AEBV01@@Z24 000000018004a3e8     libcpmt:xthrow.obj
 0002:00016410       _TI3?AVlength_error@std@@  000000018004a410     libcpmt:xthrow.obj
 0002:00016430       _CTA3?AVlength_error@std@@ 000000018004a430     libcpmt:xthrow.obj
 0002:00016450       _CT??_R0?AVlength_error@std@@@8??0length_error@std@@QEAA@AEBV01@@Z24 000000018004a450     libcpmt:xthrow.obj
 0002:00016478       _TI3?AVout_of_range@std@@  000000018004a478     libcpmt:xthrow.obj
 0002:00016498       _CTA3?AVout_of_range@std@@ 000000018004a498     libcpmt:xthrow.obj
 0002:000164b8       _CT??_R0?AVout_of_range@std@@@8??0out_of_range@std@@QEAA@AEBV01@@Z24 000000018004a4b8     libcpmt:xthrow.obj
 0002:000164e0       _TI3?AVbad_array_new_length@std@@ 000000018004a4e0     LIBCMT:throw_bad_alloc.obj
 0002:00016500       _CTA3?AVbad_array_new_length@std@@ 000000018004a500     LIBCMT:throw_bad_alloc.obj
 0002:00016520       _CT??_R0?AVbad_array_new_length@std@@@8??0bad_array_new_length@std@@QEAA@AEBV01@@Z24 000000018004a520     LIBCMT:throw_bad_alloc.obj
 0002:00016548       _TI2?AVbad_exception@std@@ 000000018004a548     libvcruntime:frame.obj
 0002:00016568       _CTA2?AVbad_exception@std@@ 000000018004a568     libvcruntime:frame.obj
 0002:00016580       _CT??_R0?AVbad_exception@std@@@8??0bad_exception@std@@QEAA@AEBV01@@Z24 000000018004a580     libvcruntime:frame.obj
 0002:000165a4       __DELAY_IMPORT_DESCRIPTOR_node_exe 000000018004a5a4     node:node.exe
 0002:000165c4       __NULL_DELAY_IMPORT_DESCRIPTOR 000000018004a5c4     node:node.exe
 0002:000168f0       \177node_NULL_THUNK_DATA_DLN 000000018004a8f0     node:node.exe
 0002:000181b0       \177node_NULL_THUNK_DATA_DLB 000000018004c1b0     node:node.exe
 0002:00018510       __IMPORT_DESCRIPTOR_KERNEL32 000000018004c510     kernel32:KERNEL32.dll
 0002:00018524       __IMPORT_DESCRIPTOR_GDI32  000000018004c524     gdi32:GDI32.dll
 0002:00018538       __IMPORT_DESCRIPTOR_libcairo-2 000000018004c538     cairo:libcairo-2.dll
 0002:0001854c       __IMPORT_DESCRIPTOR_libpng14-14 000000018004c54c     libpng:libpng14-14.dll
 0002:00018560       __IMPORT_DESCRIPTOR_libpangocairo-1.0-0 000000018004c560     pangocairo-1.0:libpangocairo-1.0-0.dll
 0002:00018574       __IMPORT_DESCRIPTOR_libpango-1.0-0 000000018004c574     pango-1.0:libpango-1.0-0.dll
 0002:00018588       __IMPORT_DESCRIPTOR_libfreetype-6 000000018004c588     freetype:libfreetype-6.dll
 0002:0001859c       __IMPORT_DESCRIPTOR_libglib-2.0-0 000000018004c59c     glib-2.0:libglib-2.0-0.dll
 0002:000185b0       __IMPORT_DESCRIPTOR_libgobject-2.0-0 000000018004c5b0     gobject-2.0:libgobject-2.0-0.dll
 0002:000185c4       __NULL_IMPORT_DESCRIPTOR   000000018004c5c4     kernel32:KERNEL32.dll
 0003:00000004       ?_Sync@ios_base@std@@0_NA  000000018004f004     libcpmt:ios.obj
 0003:00000020       ?_PJP_CPP_Copyright@@3PADA 000000018004f020     libcpmt:iosptrs.obj
 0003:00000080       _Init_global_epoch         000000018004f080     LIBCMT:thread_safe_statics.obj
 0003:00000084       __scrt_native_dllmain_reason 000000018004f084     LIBCMT:utility.obj
 0003:00000088       __security_cookie          000000018004f088     LIBCMT:gs_cookie.obj
 0003:00000090       __security_cookie_complement 000000018004f090     LIBCMT:gs_cookie.obj
 0003:00000098       _fltused                   000000018004f098     LIBCMT:fltused.obj
 0003:000000a0       __isa_available            000000018004f0a0     LIBCMT:_cpu_disp_.obj
 0003:000000a4       __isa_enabled              000000018004f0a4     LIBCMT:_cpu_disp_.obj
 0003:000000a8       __memcpy_nt_iters          000000018004f0a8     LIBCMT:_cpu_disp_.obj
 0003:000000c0       __abort_behavior           000000018004f0c0     libucrt:abort.obj
 0003:000000d0       _iob                       000000018004f0d0     libucrt:_file.obj
 0003:000001d8       _pwctype                   000000018004f1d8     libucrt:ctype.obj
 0003:000001f0       __acrt_lconv_c             000000018004f1f0     libucrt:localeconv.obj
 0003:00000288       __acrt_lconv_static_decimal 000000018004f288     libucrt:localeconv.obj
 0003:0000028c       __acrt_lconv_static_W_decimal 000000018004f28c     libucrt:localeconv.obj
 0003:000002a0       __badioinfo                000000018004f2a0     libucrt:ioinit.obj
 0003:000002e0       __acrt_initial_locale_data 000000018004f2e0     libucrt:nlsdata.obj
 0003:00000438       __acrt_initial_locale_pointers 000000018004f438     libucrt:nlsdata.obj
 0003:00000448       __acrt_wide_c_locale_string 000000018004f448     libucrt:nlsdata.obj
 0003:00000450       _lookuptrailbytes          000000018004f450     libucrt:read.obj
 0003:00000550       __globallocalestatus       000000018004f550     libucrt:glstatus.obj
 0003:000005f0       __acrt_initial_multibyte_data 000000018004f5f0     libucrt:mbctype.obj
 0003:00000818       __acrt_current_multibyte_data 000000018004f818     libucrt:mbctype.obj
 0003:00000920       _mbctype                   000000018004f920     libucrt:mbctype.obj
 0003:00000a30       _mbcasemap                 000000018004fa30     libucrt:mbctype.obj
 0003:00000b38       __dcrt_lowio_console_output_handle 000000018004fb38     libucrt:initcon.obj
 0003:00000b80       ??_R0?AVbad_alloc@std@@@8  000000018004fb80     libcpmt:xthrow.obj
 0003:00000ba8       ??_R0?AVexception@std@@@8  000000018004fba8     libcpmt:xthrow.obj
 0003:00000bd0       ??_R0?AVlogic_error@std@@@8 000000018004fbd0     libcpmt:xthrow.obj
 0003:00000bf8       ??_R0?AVlength_error@std@@@8 000000018004fbf8     libcpmt:xthrow.obj
 0003:00000c20       ??_R0?AVout_of_range@std@@@8 000000018004fc20     libcpmt:xthrow.obj
 0003:00000c48       ??_R0?AVtype_info@@@8      000000018004fc48     LIBCMT:std_type_info_static.obj
 0003:00000c68       ??_R0?AVbad_array_new_length@std@@@8 000000018004fc68     LIBCMT:throw_bad_alloc.obj
 0003:00000c98       ??_R0?AVbad_exception@std@@@8 000000018004fc98     libvcruntime:frame.obj
 0003:00000cc0       __imp_?ClearWeak@V8@v8@@CAPEAXPEAPEAVObject@internal@2@@Z 000000018004fcc0     node:node.exe
 0003:00000cc8       __imp_?MakeWeak@V8@v8@@CAXPEAPEAVObject@internal@2@PEAXP6AXAEBV?$WeakCallbackInfo@X@2@@ZW4WeakCallbackType@2@@Z 000000018004fcc8     node:node.exe
 0003:00000cd0       __imp_?DisposeGlobal@V8@v8@@CAXPEAPEAVObject@internal@2@@Z 000000018004fcd0     node:node.exe
 0003:00000cd8       __imp_?Value@External@v8@@QEBAPEAXXZ 000000018004fcd8     node:node.exe
 0003:00000ce0       __imp_?New@External@v8@@SA?AV?$Local@VExternal@v8@@@2@PEAVIsolate@2@PEAX@Z 000000018004fce0     node:node.exe
 0003:00000ce8       __imp_?ReportExternalAllocationLimitReached@Isolate@v8@@AEAAXXZ 000000018004fce8     node:node.exe
 0003:00000cf0       __imp_?GetCurrentContext@Isolate@v8@@QEAA?AV?$Local@VContext@v8@@@2@XZ 000000018004fcf0     node:node.exe
 0003:00000cf8       __imp_?GetCurrent@Isolate@v8@@SAPEAV12@XZ 000000018004fcf8     node:node.exe
 0003:00000d00       __imp_?CreateHandle@HandleScope@v8@@KAPEAPEAVObject@internal@2@PEAVIsolate@42@PEAV342@@Z 000000018004fd00     node:node.exe
 0003:00000d08       __imp_?CreateHandle@HandleScope@v8@@CAPEAPEAVObject@internal@2@PEAVHeapObject@42@PEAV342@@Z 000000018004fd08     node:node.exe
 0003:00000d10       __imp_??1HandleScope@v8@@QEAA@XZ 000000018004fd10     node:node.exe
 0003:00000d18       __imp_??0HandleScope@v8@@QEAA@PEAVIsolate@1@@Z 000000018004fd18     node:node.exe
 0003:00000d20       __imp_?SetClassName@FunctionTemplate@v8@@QEAAXV?$Local@VString@v8@@@2@@Z 000000018004fd20     node:node.exe
 0003:00000d28       __imp_?InstanceTemplate@FunctionTemplate@v8@@QEAA?AV?$Local@VObjectTemplate@v8@@@2@XZ 000000018004fd28     node:node.exe
 0003:00000d30       __imp_?GetFunction@FunctionTemplate@v8@@QEAA?AV?$Local@VFunction@v8@@@2@XZ 000000018004fd30     node:node.exe
 0003:00000d38       __imp_?New@FunctionTemplate@v8@@SA?AV?$Local@VFunctionTemplate@v8@@@2@PEAVIsolate@2@P6AXAEBV?$FunctionCallbackInfo@VValue@v8@@@2@@ZV?$Local@VValue@v8@@@2@V?$Local@VSignature@v8@@@2@HW4ConstructorBehavior@2@@Z 000000018004fd38     node:node.exe
 0003:00000d40       __imp_?ToLocalEmpty@V8@v8@@CAXXZ 000000018004fd40     node:node.exe
 0003:00000d48       __imp_?GlobalizeReference@V8@v8@@CAPEAPEAVObject@internal@2@PEAVIsolate@42@PEAPEAV342@@Z 000000018004fd48     node:node.exe
 0003:00000d50       __imp_?Uint32Value@Value@v8@@QEBAIXZ 000000018004fd50     node:node.exe
 0003:00000d58       __imp_?IsNumber@Value@v8@@QEBA_NXZ 000000018004fd58     node:node.exe
 0003:00000d60       __imp_?Escape@EscapableHandleScope@v8@@AEAAPEAPEAVObject@internal@2@PEAPEAV342@@Z 000000018004fd60     node:node.exe
 0003:00000d68       __imp_??0EscapableHandleScope@v8@@QEAA@PEAVIsolate@1@@Z 000000018004fd68     node:node.exe
 0003:00000d70       __imp_?NewFromUtf8@String@v8@@SA?AV?$MaybeLocal@VString@v8@@@2@PEAVIsolate@2@PEBDW4NewStringType@2@H@Z 000000018004fd70     node:node.exe
 0003:00000d78       __imp_?SlowGetInternalField@Object@v8@@AEAA?AV?$Local@VValue@v8@@@2@H@Z 000000018004fd78     node:node.exe
 0003:00000d80       __imp_?SetAlignedPointerInInternalField@Object@v8@@QEAAXHPEAX@Z 000000018004fd80     node:node.exe
 0003:00000d88       __imp_?SetInternalField@Object@v8@@QEAAXHV?$Local@VValue@v8@@@2@@Z 000000018004fd88     node:node.exe
 0003:00000d90       __imp_?InternalFieldCount@Object@v8@@QEAAHXZ 000000018004fd90     node:node.exe
 0003:00000d98       __imp_?Set@Object@v8@@QEAA_NV?$Local@VValue@v8@@@2@0@Z 000000018004fd98     node:node.exe
 0003:00000da0       __imp_?SetInternalFieldCount@ObjectTemplate@v8@@QEAAXH@Z 000000018004fda0     node:node.exe
 0003:00000da8       __imp_?NewInstance@ObjectTemplate@v8@@QEAA?AV?$MaybeLocal@VObject@v8@@@2@V?$Local@VContext@v8@@@2@@Z 000000018004fda8     node:node.exe
 0003:00000db0       __imp_?New@ObjectTemplate@v8@@SA?AV?$Local@VObjectTemplate@v8@@@2@PEAVIsolate@2@V?$Local@VFunctionTemplate@v8@@@2@@Z 000000018004fdb0     node:node.exe
 0003:00000db8       __imp_??1EscapableHandleScope@v8@@QEAA@XZ 000000018004fdb8     node:node.exe
 0003:00000dc0       __imp_?New@Object@v8@@SA?AV?$Local@VObject@v8@@@2@PEAVIsolate@2@@Z 000000018004fdc0     node:node.exe
 0003:00000dc8       __imp_uv_queue_work        000000018004fdc8     node:node.exe
 0003:00000dd0       __imp_?Global@Context@v8@@QEAA?AV?$Local@VObject@v8@@@2@XZ 000000018004fdd0     node:node.exe
 0003:00000dd8       __imp_?NewFromUnsigned@Integer@v8@@SA?AV?$Local@VInteger@v8@@@2@PEAVIsolate@2@I@Z 000000018004fdd8     node:node.exe
 0003:00000de0       __imp_?New@Signature@v8@@SA?AV?$Local@VSignature@v8@@@2@PEAVIsolate@2@V?$Local@VFunctionTemplate@v8@@@2@@Z 000000018004fde0     node:node.exe
 0003:00000de8       __imp_?ThrowException@Isolate@v8@@QEAA?AV?$Local@VValue@v8@@@2@V32@@Z 000000018004fde8     node:node.exe
 0003:00000df0       __imp_?Length@TypedArray@v8@@QEAA_KXZ 000000018004fdf0     node:node.exe
 0003:00000df8       __imp_?Set@Template@v8@@QEAAXV?$Local@VName@v8@@@2@V?$Local@VData@v8@@@2@W4PropertyAttribute@2@@Z 000000018004fdf8     node:node.exe
 0003:00000e00       __imp_?ByteLength@ArrayBufferView@v8@@QEAA_KXZ 000000018004fe00     node:node.exe
 0003:00000e08       __imp_?ByteOffset@ArrayBufferView@v8@@QEAA_KXZ 000000018004fe08     node:node.exe
 0003:00000e10       __imp_?Buffer@ArrayBufferView@v8@@QEAA?AV?$Local@VArrayBuffer@v8@@@2@XZ 000000018004fe10     node:node.exe
 0003:00000e18       __imp_?Error@Exception@v8@@SA?AV?$Local@VValue@v8@@@2@V?$Local@VString@v8@@@2@@Z 000000018004fe18     node:node.exe
 0003:00000e20       __imp_?TypeError@Exception@v8@@SA?AV?$Local@VValue@v8@@@2@V?$Local@VString@v8@@@2@@Z 000000018004fe20     node:node.exe
 0003:00000e28       __imp_?RangeError@Exception@v8@@SA?AV?$Local@VValue@v8@@@2@V?$Local@VString@v8@@@2@@Z 000000018004fe28     node:node.exe
 0003:00000e30       __imp_?New@AccessorSignature@v8@@SA?AV?$Local@VAccessorSignature@v8@@@2@PEAVIsolate@2@V?$Local@VFunctionTemplate@v8@@@2@@Z 000000018004fe30     node:node.exe
 0003:00000e38       __imp_?PrototypeTemplate@FunctionTemplate@v8@@QEAA?AV?$Local@VObjectTemplate@v8@@@2@XZ 000000018004fe38     node:node.exe
 0003:00000e40       __imp_?GetContents@ArrayBuffer@v8@@QEAA?AVContents@12@XZ 000000018004fe40     node:node.exe
 0003:00000e48       __imp_?StrictEquals@Value@v8@@QEBA_NV?$Local@VValue@v8@@@2@@Z 000000018004fe48     node:node.exe
 0003:00000e50       __imp_?ToUint32@Value@v8@@QEBA?AV?$MaybeLocal@VUint32@v8@@@2@V?$Local@VContext@v8@@@2@@Z 000000018004fe50     node:node.exe
 0003:00000e58       __imp_?IsUint8ClampedArray@Value@v8@@QEBA_NXZ 000000018004fe58     node:node.exe
 0003:00000e60       __imp_?IsArrayBufferView@Value@v8@@QEBA_NXZ 000000018004fe60     node:node.exe
 0003:00000e68       __imp_?IsUint32@Value@v8@@QEBA_NXZ 000000018004fe68     node:node.exe
 0003:00000e70       __imp_?IsObject@Value@v8@@QEBA_NXZ 000000018004fe70     node:node.exe
 0003:00000e78       __imp_?IsFunction@Value@v8@@QEBA_NXZ 000000018004fe78     node:node.exe
 0003:00000e80       __imp_?ReThrow@TryCatch@v8@@QEAA?AV?$Local@VValue@v8@@@2@XZ 000000018004fe80     node:node.exe
 0003:00000e88       __imp_?HasCaught@TryCatch@v8@@QEBA_NXZ 000000018004fe88     node:node.exe
 0003:00000e90       __imp_??1TryCatch@v8@@QEAA@XZ 000000018004fe90     node:node.exe
 0003:00000e98       __imp_??0TryCatch@v8@@QEAA@PEAVIsolate@1@@Z 000000018004fe98     node:node.exe
 0003:00000ea0       __imp_??1Utf8Value@String@v8@@QEAA@XZ 000000018004fea0     node:node.exe
 0003:00000ea8       __imp_??0Utf8Value@String@v8@@QEAA@V?$Local@VValue@v8@@@2@@Z 000000018004fea8     node:node.exe
 0003:00000eb0       __imp_?New@Number@v8@@SA?AV?$Local@VNumber@v8@@@2@PEAVIsolate@2@N@Z 000000018004feb0     node:node.exe
 0003:00000eb8       __imp_?SlowGetAlignedPointerFromInternalField@Object@v8@@AEAAPEAXH@Z 000000018004feb8     node:node.exe
 0003:00000ec0       __imp_?Get@Object@v8@@QEAA?AV?$Local@VValue@v8@@@2@V32@@Z 000000018004fec0     node:node.exe
 0003:00000ec8       __imp_?Set@Object@v8@@QEAA?AV?$Maybe@_N@2@V?$Local@VContext@v8@@@2@V?$Local@VValue@v8@@@2@1@Z 000000018004fec8     node:node.exe
 0003:00000ed0       __imp_?Call@Function@v8@@QEAA?AV?$MaybeLocal@VValue@v8@@@2@V?$Local@VContext@v8@@@2@V?$Local@VValue@v8@@@2@HQEAV52@@Z 000000018004fed0     node:node.exe
 0003:00000ed8       __imp_?SetAccessor@ObjectTemplate@v8@@QEAAXV?$Local@VName@v8@@@2@P6AX0AEBV?$PropertyCallbackInfo@VValue@v8@@@2@@ZP6AX0V?$Local@VValue@v8@@@2@AEBV?$PropertyCallbackInfo@X@2@@Z3W4AccessControl@2@W4PropertyAttribute@2@V?$Local@VAccessorSignature@v8@@@2@@Z 000000018004fed8     node:node.exe
 0003:00000ee0       __imp_?New@Buffer@node@@YA?AV?$MaybeLocal@VObject@v8@@@v8@@PEAVIsolate@4@PEAD_KP6AX1PEAX@Z3@Z 000000018004fee0     node:node.exe
 0003:00000ee8       __imp_?Data@Buffer@node@@YAPEADV?$Local@VObject@v8@@@v8@@@Z 000000018004fee8     node:node.exe
 0003:00000ef0       __imp_?Copy@Buffer@node@@YA?AV?$MaybeLocal@VObject@v8@@@v8@@PEAVIsolate@4@PEBD_K@Z 000000018004fef0     node:node.exe
 0003:00000ef8       __imp_?MakeCallback@node@@YA?AV?$Local@VValue@v8@@@v8@@PEAVIsolate@3@V?$Local@VObject@v8@@@3@V?$Local@VFunction@v8@@@3@HPEAV23@@Z 000000018004fef8     node:node.exe
 0003:00000f00       __imp_uv_default_loop      000000018004ff00     node:node.exe
 0003:00000f08       __imp_?ToObject@Value@v8@@QEBA?AV?$Local@VObject@v8@@@2@XZ 000000018004ff08     node:node.exe
 0003:00000f10       __imp_?NumberValue@Value@v8@@QEBANXZ 000000018004ff10     node:node.exe
 0003:00000f18       __imp_?HasInstance@FunctionTemplate@v8@@QEAA_NV?$Local@VValue@v8@@@2@@Z 000000018004ff18     node:node.exe
 0003:00000f20       __imp_?New@Uint8ClampedArray@v8@@SA?AV?$Local@VUint8ClampedArray@v8@@@2@V?$Local@VArrayBuffer@v8@@@2@_K1@Z 000000018004ff20     node:node.exe
 0003:00000f28       __imp_?New@Integer@v8@@SA?AV?$Local@VInteger@v8@@@2@PEAVIsolate@2@H@Z 000000018004ff28     node:node.exe
 0003:00000f30       __imp_?New@Array@v8@@SA?AV?$Local@VArray@v8@@@2@PEAVIsolate@2@H@Z 000000018004ff30     node:node.exe
 0003:00000f38       __imp_?Length@Array@v8@@QEBAIXZ 000000018004ff38     node:node.exe
 0003:00000f40       __imp_?GetFunction@FunctionTemplate@v8@@QEAA?AV?$MaybeLocal@VFunction@v8@@@2@V?$Local@VContext@v8@@@2@@Z 000000018004ff40     node:node.exe
 0003:00000f48       __imp_?New@ArrayBuffer@v8@@SA?AV?$Local@VArrayBuffer@v8@@@2@PEAVIsolate@2@_K@Z 000000018004ff48     node:node.exe
 0003:00000f50       __imp_?Int32Value@Value@v8@@QEBAHXZ 000000018004ff50     node:node.exe
 0003:00000f58       __imp_?BooleanValue@Value@v8@@QEBA_NXZ 000000018004ff58     node:node.exe
 0003:00000f60       __imp_?ToInt32@Value@v8@@QEBA?AV?$MaybeLocal@VInt32@v8@@@2@V?$Local@VContext@v8@@@2@@Z 000000018004ff60     node:node.exe
 0003:00000f68       __imp_?IsInt32@Value@v8@@QEBA_NXZ 000000018004ff68     node:node.exe
 0003:00000f70       __imp_?IsBoolean@Value@v8@@QEBA_NXZ 000000018004ff70     node:node.exe
 0003:00000f78       __imp_?IsArray@Value@v8@@QEBA_NXZ 000000018004ff78     node:node.exe
 0003:00000f80       __imp_?New@Uint16Array@v8@@SA?AV?$Local@VUint16Array@v8@@@2@V?$Local@VArrayBuffer@v8@@@2@_K1@Z 000000018004ff80     node:node.exe
 0003:00000f88       __imp_?Get@Object@v8@@QEAA?AV?$Local@VValue@v8@@@2@I@Z 000000018004ff88     node:node.exe
 0003:00000f90       __imp_?NewInstance@Function@v8@@QEBA?AV?$MaybeLocal@VObject@v8@@@2@V?$Local@VContext@v8@@@2@HQEAV?$Local@VValue@v8@@@2@@Z 000000018004ff90     node:node.exe
 0003:00000f98       __imp_?ToString@Value@v8@@QEBA?AV?$Local@VString@v8@@@2@XZ 000000018004ff98     node:node.exe
 0003:00000fa0       __imp_?Call@Function@v8@@QEAA?AV?$Local@VValue@v8@@@2@V32@HQEAV32@@Z 000000018004ffa0     node:node.exe
 0003:00000fa8       __imp_?HasInstance@Buffer@node@@YA_NV?$Local@VValue@v8@@@v8@@@Z 000000018004ffa8     node:node.exe
 0003:00000fb0       __imp_?Length@Buffer@node@@YA_KV?$Local@VObject@v8@@@v8@@@Z 000000018004ffb0     node:node.exe
 0003:00000fb8       __imp_?IsUint16Array@Value@v8@@QEBA_NXZ 000000018004ffb8     node:node.exe
 0003:00000fc0       __imp_node_module_register 000000018004ffc0     node:node.exe
 0003:00000fc8       \177node_NULL_THUNK_DATA_DLA 000000018004ffc8     node:node.exe
 0003:00000fd0       __hmod__node_exe           000000018004ffd0     node:node.exe
 0003:00001138       ?_Id_cnt@id@locale@std@@0HA 0000000180050138     libcpmt:locale0.obj
 0003:00001140       ?_Clocptr@_Locimp@locale@std@@0PEAV123@EA 0000000180050140     libcpmt:locale0.obj
 0003:00001150       ?id@?$ctype@_W@std@@2V0locale@2@A 0000000180050150     libcpmt:locale0.obj
 0003:00001158       ?id@?$ctype@D@std@@2V0locale@2@A 0000000180050158     libcpmt:locale0.obj
 0003:00001160       ?id@?$codecvt@GDU_Mbstatet@@@std@@2V0locale@2@A 0000000180050160     libcpmt:locale0.obj
 0003:00001168       ?id@?$ctype@G@std@@2V0locale@2@A 0000000180050168     libcpmt:locale0.obj
 0003:00001180       ?id@?$codecvt@_WDU_Mbstatet@@@std@@2V0locale@2@A 0000000180050180     libcpmt:locale0.obj
 0003:000011ec       ?_Index@ios_base@std@@0HA  00000001800501ec     libcpmt:ios.obj
 0003:000011f0       ?_Raise_handler@std@@3P6AXAEBVexception@stdext@@@ZEA 00000001800501f0     libcpmt:raisehan.obj
 0003:00001200       ?_Ptr_cin@std@@3PEAV?$basic_istream@DU?$char_traits@D@std@@@1@EA 0000000180050200     libcpmt:iosptrs.obj
 0003:00001208       ?_Ptr_cout@std@@3PEAV?$basic_ostream@DU?$char_traits@D@std@@@1@EA 0000000180050208     libcpmt:iosptrs.obj
 0003:00001210       ?_Ptr_cerr@std@@3PEAV?$basic_ostream@DU?$char_traits@D@std@@@1@EA 0000000180050210     libcpmt:iosptrs.obj
 0003:00001218       ?_Ptr_clog@std@@3PEAV?$basic_ostream@DU?$char_traits@D@std@@@1@EA 0000000180050218     libcpmt:iosptrs.obj
 0003:00001220       ?_Ptr_wcin@std@@3PEAV?$basic_istream@_WU?$char_traits@_W@std@@@1@EA 0000000180050220     libcpmt:iosptrs.obj
 0003:00001228       ?_Ptr_wcout@std@@3PEAV?$basic_ostream@_WU?$char_traits@_W@std@@@1@EA 0000000180050228     libcpmt:iosptrs.obj
 0003:00001230       ?_Ptr_wcerr@std@@3PEAV?$basic_ostream@_WU?$char_traits@_W@std@@@1@EA 0000000180050230     libcpmt:iosptrs.obj
 0003:00001238       ?_Ptr_wclog@std@@3PEAV?$basic_ostream@_WU?$char_traits@_W@std@@@1@EA 0000000180050238     libcpmt:iosptrs.obj
 0003:00001298       ?id@?$num_get@DV?$istreambuf_iterator@DU?$char_traits@D@std@@@std@@@std@@2V0locale@2@A 0000000180050298     libcpmt:locale.obj
 0003:000012a0       ?id@?$num_put@DV?$ostreambuf_iterator@DU?$char_traits@D@std@@@std@@@std@@2V0locale@2@A 00000001800502a0     libcpmt:locale.obj
 0003:000012a8       ?id@?$numpunct@D@std@@2V0locale@2@A 00000001800502a8     libcpmt:locale.obj
 0003:000012b0       ?id@?$codecvt@DDU_Mbstatet@@@std@@2V0locale@2@A 00000001800502b0     libcpmt:locale.obj
 0003:000012c0       __encodedKERNEL32Functions 00000001800502c0     libcpmt:winapisupp.obj
 0003:00001400       ?id@?$time_put@_WV?$ostreambuf_iterator@_WU?$char_traits@_W@std@@@std@@@std@@2V0locale@2@A 0000000180050400     libcpmt:wlocale.obj
 0003:00001408       ?id@?$num_get@_WV?$istreambuf_iterator@_WU?$char_traits@_W@std@@@std@@@std@@2V0locale@2@A 0000000180050408     libcpmt:wlocale.obj
 0003:00001410       ?id@?$num_put@_WV?$ostreambuf_iterator@_WU?$char_traits@_W@std@@@std@@@std@@2V0locale@2@A 0000000180050410     libcpmt:wlocale.obj
 0003:00001418       ?id@?$numpunct@_W@std@@2V0locale@2@A 0000000180050418     libcpmt:wlocale.obj
 0003:00001420       ?id@?$collate@_W@std@@2V0locale@2@A 0000000180050420     libcpmt:wlocale.obj
 0003:00001428       ?id@?$messages@_W@std@@2V0locale@2@A 0000000180050428     libcpmt:wlocale.obj
 0003:00001430       ?id@?$money_get@_WV?$istreambuf_iterator@_WU?$char_traits@_W@std@@@std@@@std@@2V0locale@2@A 0000000180050430     libcpmt:wlocale.obj
 0003:00001438       ?id@?$money_put@_WV?$ostreambuf_iterator@_WU?$char_traits@_W@std@@@std@@@std@@2V0locale@2@A 0000000180050438     libcpmt:wlocale.obj
 0003:00001440       ?id@?$moneypunct@_W$0A@@std@@2V0locale@2@A 0000000180050440     libcpmt:wlocale.obj
 0003:00001448       ?id@?$moneypunct@_W$00@std@@2V0locale@2@A 0000000180050448     libcpmt:wlocale.obj
 0003:00001450       ?id@?$time_get@_WV?$istreambuf_iterator@_WU?$char_traits@_W@std@@@std@@@std@@2V0locale@2@A 0000000180050450     libcpmt:wlocale.obj
 0003:00001458       ?id@?$num_get@GV?$istreambuf_iterator@GU?$char_traits@G@std@@@std@@@std@@2V0locale@2@A 0000000180050458     libcpmt:wlocale.obj
 0003:00001460       ?id@?$num_put@GV?$ostreambuf_iterator@GU?$char_traits@G@std@@@std@@@std@@2V0locale@2@A 0000000180050460     libcpmt:wlocale.obj
 0003:00001468       ?id@?$numpunct@G@std@@2V0locale@2@A 0000000180050468     libcpmt:wlocale.obj
 0003:00001470       ?id@?$collate@G@std@@2V0locale@2@A 0000000180050470     libcpmt:wlocale.obj
 0003:00001478       ?id@?$messages@G@std@@2V0locale@2@A 0000000180050478     libcpmt:wlocale.obj
 0003:00001480       ?id@?$money_get@GV?$istreambuf_iterator@GU?$char_traits@G@std@@@std@@@std@@2V0locale@2@A 0000000180050480     libcpmt:wlocale.obj
 0003:00001488       ?id@?$money_put@GV?$ostreambuf_iterator@GU?$char_traits@G@std@@@std@@@std@@2V0locale@2@A 0000000180050488     libcpmt:wlocale.obj
 0003:00001490       ?id@?$moneypunct@G$0A@@std@@2V0locale@2@A 0000000180050490     libcpmt:wlocale.obj
 0003:00001498       ?id@?$moneypunct@G$00@std@@2V0locale@2@A 0000000180050498     libcpmt:wlocale.obj
 0003:000014a0       ?id@?$time_get@GV?$istreambuf_iterator@GU?$char_traits@G@std@@@std@@@std@@2V0locale@2@A 00000001800504a0     libcpmt:wlocale.obj
 0003:000014a8       ?id@?$time_put@GV?$ostreambuf_iterator@GU?$char_traits@G@std@@@std@@@std@@2V0locale@2@A 00000001800504a8     libcpmt:wlocale.obj
 0003:000014b0       ?id@?$collate@D@std@@2V0locale@2@A 00000001800504b0     libcpmt:xlocale.obj
 0003:000014b8       ?id@?$messages@D@std@@2V0locale@2@A 00000001800504b8     libcpmt:xlocale.obj
 0003:000014c0       ?id@?$money_get@DV?$istreambuf_iterator@DU?$char_traits@D@std@@@std@@@std@@2V0locale@2@A 00000001800504c0     libcpmt:xlocale.obj
 0003:000014c8       ?id@?$money_put@DV?$ostreambuf_iterator@DU?$char_traits@D@std@@@std@@@std@@2V0locale@2@A 00000001800504c8     libcpmt:xlocale.obj
 0003:000014d0       ?id@?$moneypunct@D$0A@@std@@2V0locale@2@A 00000001800504d0     libcpmt:xlocale.obj
 0003:000014d8       ?id@?$moneypunct@D$00@std@@2V0locale@2@A 00000001800504d8     libcpmt:xlocale.obj
 0003:000014e0       ?id@?$time_get@DV?$istreambuf_iterator@DU?$char_traits@D@std@@@std@@@std@@2V0locale@2@A 00000001800504e0     libcpmt:xlocale.obj
 0003:000014e8       ?id@?$time_put@DV?$ostreambuf_iterator@DU?$char_traits@D@std@@@std@@@std@@2V0locale@2@A 00000001800504e8     libcpmt:xlocale.obj
 0003:00001538       __scrt_current_native_startup_state 0000000180050538     LIBCMT:utility.obj
 0003:00001540       __scrt_native_startup_lock 0000000180050540     LIBCMT:utility.obj
 0003:00001af0       __scrt_debugger_hook_flag  0000000180050af0     LIBCMT:utility_desktop.obj
 0003:00001af4       _tls_index                 0000000180050af4     LIBCMT:tlssup.obj
 0003:00001af8       __favor                    0000000180050af8     LIBCMT:_cpu_disp_.obj
 0003:00001b00       ?__type_info_root_node@@3U__type_info_node@@A 0000000180050b00     LIBCMT:tncleanup.obj
 0003:00001b10       ?_OptionsStorage@?1??__local_stdio_scanf_options@@9@4_KA 0000000180050b10     LIBCMT:default_local_stdio_options.obj
 0003:00001b18       ?g_OutOfMemoryExceptionCallback@@3P6APEAXXZEA 0000000180050b18     libvcruntime:frame.obj
 0003:00001b88       __pPurecall                0000000180050b88     libvcruntime:purevirt_data.obj
 0003:00001c38       ?pArgList@UnDecorator@@0PEAVReplicator@@EA 0000000180050c38     libvcruntime:undname.obj
 0003:00001c40       ?pZNameList@UnDecorator@@0PEAVReplicator@@EA 0000000180050c40     libvcruntime:undname.obj
 0003:00001c48       ?pTemplateArgList@UnDecorator@@0PEAVReplicator@@EA 0000000180050c48     libvcruntime:undname.obj
 0003:00001c50       ?gName@UnDecorator@@0PEBDEB 0000000180050c50     libvcruntime:undname.obj
 0003:00001c58       ?name@UnDecorator@@0PEBDEB 0000000180050c58     libvcruntime:undname.obj
 0003:00001c60       ?outputString@UnDecorator@@0PEADEA 0000000180050c60     libvcruntime:undname.obj
 0003:00001c68       ?maxStringLength@UnDecorator@@0HA 0000000180050c68     libvcruntime:undname.obj
 0003:00001c6c       ?disableFlags@UnDecorator@@0KA 0000000180050c6c     libvcruntime:undname.obj
 0003:00001c70       ?fExplicitTemplateParams@UnDecorator@@0_NA 0000000180050c70     libvcruntime:undname.obj
 0003:00001c71       ?fGetTemplateArgumentList@UnDecorator@@0_NA 0000000180050c71     libvcruntime:undname.obj
 0003:00001c78       ?m_pGetParameter@UnDecorator@@0P6APEADJ@ZEA 0000000180050c78     libvcruntime:undname.obj
 0003:00001cb0       _nstream                   0000000180050cb0     libucrt:_file.obj
 0003:00001cb8       __piob                     0000000180050cb8     libucrt:_file.obj
 0003:00001cc0       _cflush                    0000000180050cc0     libucrt:_file.obj
 0003:00001edc       __acrt_lconv_static_null   0000000180050edc     libucrt:localeconv.obj
 0003:00001ee0       __acrt_lconv_static_W_null 0000000180050ee0     libucrt:localeconv.obj
 0003:00002018       _environ_table             0000000180051018     libucrt:environment_initialization.obj
 0003:00002020       _wenviron_table            0000000180051020     libucrt:environment_initialization.obj
 0003:00002028       __dcrt_initial_wide_environment 0000000180051028     libucrt:environment_initialization.obj
 0003:00002030       __dcrt_initial_narrow_environment 0000000180051030     libucrt:environment_initialization.obj
 0003:00002038       __acrt_atexit_table        0000000180051038     libucrt:onexit.obj
 0003:00002050       __acrt_at_quick_exit_table 0000000180051050     libucrt:onexit.obj
 0003:00002240       __pioinfo                  0000000180051240     libucrt:ioinit.obj
 0003:00002640       _nhandle                   0000000180051640     libucrt:ioinit.obj
 0003:00002650       __acrt_stdout_buffer       0000000180051650     libucrt:_sftbuf.obj
 0003:00002658       __acrt_stderr_buffer       0000000180051658     libucrt:_sftbuf.obj
 0003:00002660       __acrt_locale_changed_data 0000000180051660     libucrt:wsetlocale.obj
 0003:00002668       __acrt_current_locale_data 0000000180051668     libucrt:nlsdata.obj
 0003:00002678       __acrt_heap                0000000180051678     libucrt:heap_handle.obj
 0003:00002680       __fma3_is_available        0000000180051680     libucrt:fma3_available.obj
 0003:00002684       __use_fma3_lib             0000000180051684     libucrt:fma3_available.obj
 0003:00002688       ?_timezone@@3V?$dual_state_global@J@__crt_state_management@@A 0000000180051688     libucrt:timeset.obj
 0003:0000268c       ?_daylight@@3V?$dual_state_global@H@__crt_state_management@@A 000000018005168c     libucrt:timeset.obj
 0003:00002690       ?_dstbias@@3V?$dual_state_global@J@__crt_state_management@@A 0000000180051690     libucrt:timeset.obj
 0003:0000275c       __mbcodepage               000000018005175c     libucrt:mbctype.obj
 0003:00002760       __ismbcodepage             0000000180051760     libucrt:mbctype.obj
 0003:00002768       __mbulinfo                 0000000180051768     libucrt:mbctype.obj
 0003:00002778       __mblocalename             0000000180051778     libucrt:mbctype.obj
 0003:00002784       __argc                     0000000180051784     libucrt:argv_data.obj
 0003:00002788       __argv                     0000000180051788     libucrt:argv_data.obj
 0003:00002790       __wargv                    0000000180051790     libucrt:argv_data.obj
 0003:00002798       _acmdln                    0000000180051798     libucrt:argv_data.obj
 0003:000027a0       _wcmdln                    00000001800517a0     libucrt:argv_data.obj
 0003:000027a8       _pgmptr                    00000001800517a8     libucrt:argv_data.obj
 0003:000027b8       _commode                   00000001800517b8     libucrt:ncommode.obj
 0003:000027bc       _umaskval                  00000001800517bc     libucrt:umask.obj
 0003:000027c0       _fmode                     00000001800517c0     libucrt:txtmode.obj
 0003:000027c8       ?DloadKernel32@@3PEAUHINSTANCE__@@EA 00000001800517c8     DelayImp:delayhlp.obj
 0003:000027d0       ?DloadAcquireSRWLockExclusive@@3P6AXPEA_K@ZEA 00000001800517d0     DelayImp:delayhlp.obj
 0003:000027d8       ?DloadReleaseSRWLockExclusive@@3P6AXPEA_K@ZEA 00000001800517d8     DelayImp:delayhlp.obj
 0003:000027e0       ?DloadSrwLock@@3_KA        00000001800517e0     DelayImp:delayhlp.obj
 0003:000027e8       ?DloadSectionLockCount@@3KA 00000001800517e8     DelayImp:delayhlp.obj
 0003:000027ec       ?DloadSectionOldProtection@@3KA 00000001800517ec     DelayImp:delayhlp.obj
 0003:000027f0       ?DloadSectionCommitPermanent@@3KA 00000001800517f0     DelayImp:delayhlp.obj
 0003:000027f8       ?_OptionsStorage@?1??__local_stdio_printf_options@@9@4_KA 00000001800517f8     color.obj
 0003:00002800       ?constructor@ImageBackend@@2V?$Persistent@VFunctionTemplate@v8@@V?$NonCopyablePersistentTraits@VFunctionTemplate@v8@@@2@@Nan@@A 0000000180051800     ImageBackend.obj
 0003:00002808       ?constructor@PdfBackend@@2V?$Persistent@VFunctionTemplate@v8@@V?$NonCopyablePersistentTraits@VFunctionTemplate@v8@@@2@@Nan@@A 0000000180051808     PdfBackend.obj
 0003:00002810       ?constructor@SvgBackend@@2V?$Persistent@VFunctionTemplate@v8@@V?$NonCopyablePersistentTraits@VFunctionTemplate@v8@@@2@@Nan@@A 0000000180051810     SvgBackend.obj
 0003:00002818       ?constructor@Canvas@@2V?$Persistent@VFunctionTemplate@v8@@V?$NonCopyablePersistentTraits@VFunctionTemplate@v8@@@2@@Nan@@A 0000000180051818     Canvas.obj
 0003:00002820       ?_font_face_list@Canvas@@0V?$vector@VFontFace@@V?$allocator@VFontFace@@@std@@@std@@A 0000000180051820     Canvas.obj
 0003:00002838       ?constructor@Gradient@@2V?$Persistent@VFunctionTemplate@v8@@V?$NonCopyablePersistentTraits@VFunctionTemplate@v8@@@2@@Nan@@A 0000000180051838     CanvasGradient.obj
 0003:00002840       ?constructor@Pattern@@2V?$Persistent@VFunctionTemplate@v8@@V?$NonCopyablePersistentTraits@VFunctionTemplate@v8@@@2@@Nan@@A 0000000180051840     CanvasPattern.obj
 0003:00002848       ?constructor@Context2d@@2V?$Persistent@VFunctionTemplate@v8@@V?$NonCopyablePersistentTraits@VFunctionTemplate@v8@@@2@@Nan@@A 0000000180051848     CanvasRenderingContext2d.obj
 0003:00002850       ?constructor@Image@@2V?$Persistent@VFunctionTemplate@v8@@V?$NonCopyablePersistentTraits@VFunctionTemplate@v8@@@2@@Nan@@A 0000000180051850     Image.obj
 0003:00002858       ?constructor@ImageData@@2V?$Persistent@VFunctionTemplate@v8@@V?$NonCopyablePersistentTraits@VFunctionTemplate@v8@@@2@@Nan@@A 0000000180051858     ImageData.obj
 0003:00002860       __dyn_tls_init_callback    0000000180051860     <common>
 0003:00002868       __scrt_ucrt_dll_is_in_use  0000000180051868     <common>
 0006:00000000       _tls_start                 0000000180056000     LIBCMT:tlssup.obj
 0006:00000004       _Init_thread_epoch         0000000180056004     LIBCMT:thread_safe_statics.obj
 0006:00000008       _tls_end                   0000000180056008     LIBCMT:tlssup.obj

 entry point at        0001:00016320

 Static symbols

 0000:fffa6000       .debug$S                   0000000180000000     node:node.exe
 0000:fffa6000       .debug$S                   0000000180000000     node:node.exe
 0000:fffa6000       .debug$S                   0000000180000000     node:node.exe
 0000:fffa6000       .debug$S                   0000000180000000     node:node.exe
 0000:fffa6000       .debug$S                   0000000180000000     node:node.exe
 0000:fffa6000       .debug$S                   0000000180000000     node:node.exe
 0000:fffa6000       .debug$S                   0000000180000000     node:node.exe
 0000:fffa6000       .debug$S                   0000000180000000     node:node.exe
 0000:fffa6000       .debug$S                   0000000180000000     node:node.exe
 0000:fffa6000       .debug$S                   0000000180000000     node:node.exe
 0000:fffa6000       .debug$S                   0000000180000000     canvas.exp
 0000:fffa6000       .debug$S                   0000000180000000     node:node.exe
 0000:fffa6000       .debug$S                   0000000180000000     node:node.exe
 0000:fffa6000       .debug$S                   0000000180000000     node:node.exe
 0000:fffa6000       .debug$S                   0000000180000000     kernel32:KERNEL32.dll
 0000:fffa6000       .debug$S                   0000000180000000     node:node.exe
 0000:fffa6000       .debug$S                   0000000180000000     kernel32:KERNEL32.dll
 0000:fffa6000       .debug$S                   0000000180000000     node:node.exe
 0000:fffa6000       .debug$S                   0000000180000000     kernel32:KERNEL32.dll
 0000:fffa6000       .debug$S                   0000000180000000     cairo:libcairo-2.dll
 0000:fffa6000       .debug$S                   0000000180000000     kernel32:KERNEL32.dll
 0000:fffa6000       .debug$S                   0000000180000000     kernel32:KERNEL32.dll
 0000:fffa6000       .debug$S                   0000000180000000     cairo:libcairo-2.dll
 0000:fffa6000       .debug$S                   0000000180000000     kernel32:KERNEL32.dll
 0000:fffa6000       .debug$S                   0000000180000000     kernel32:KERNEL32.dll
 0000:fffa6000       .debug$S                   0000000180000000     kernel32:KERNEL32.dll
 0000:fffa6000       .debug$S                   0000000180000000     kernel32:KERNEL32.dll
 0000:fffa6000       .debug$S                   0000000180000000     kernel32:KERNEL32.dll
 0000:fffa6000       .debug$S                   0000000180000000     kernel32:KERNEL32.dll
 0000:fffa6000       .debug$S                   0000000180000000     kernel32:KERNEL32.dll
 0000:fffa6000       .debug$S                   0000000180000000     cairo:libcairo-2.dll
 0000:fffa6000       .debug$S                   0000000180000000     cairo:libcairo-2.dll
 0000:fffa6000       .debug$S                   0000000180000000     cairo:libcairo-2.dll
 0000:fffa6000       .debug$S                   0000000180000000     cairo:libcairo-2.dll
 0000:fffa6000       .debug$S                   0000000180000000     cairo:libcairo-2.dll
 0000:fffa6000       .debug$S                   0000000180000000     cairo:libcairo-2.dll
 0000:fffa6000       .debug$S                   0000000180000000     cairo:libcairo-2.dll
 0000:fffa6000       .debug$S                   0000000180000000     cairo:libcairo-2.dll
 0000:fffa6000       .debug$S                   0000000180000000     cairo:libcairo-2.dll
 0000:fffa6000       .debug$S                   0000000180000000     cairo:libcairo-2.dll
 0000:fffa6000       .debug$S                   0000000180000000     cairo:libcairo-2.dll
 0000:fffa6000       .debug$S                   0000000180000000     cairo:libcairo-2.dll
 0000:fffa6000       .debug$S                   0000000180000000     cairo:libcairo-2.dll
 0000:fffa6000       .debug$S                   0000000180000000     cairo:libcairo-2.dll
 0000:fffa6000       .debug$S                   0000000180000000     cairo:libcairo-2.dll
 0000:fffa6000       .debug$S                   0000000180000000     cairo:libcairo-2.dll
 0000:fffa6000       .debug$S                   0000000180000000     cairo:libcairo-2.dll
 0000:fffa6000       .debug$S                   0000000180000000     cairo:libcairo-2.dll
 0000:fffa6000       .debug$S                   0000000180000000     cairo:libcairo-2.dll
 0000:fffa6000       .debug$S                   0000000180000000     cairo:libcairo-2.dll
 0000:fffa6000       .debug$S                   0000000180000000     cairo:libcairo-2.dll
 0000:fffa6000       .debug$S                   0000000180000000     cairo:libcairo-2.dll
 0000:fffa6000       .debug$S                   0000000180000000     cairo:libcairo-2.dll
 0000:fffa6000       .debug$S                   0000000180000000     cairo:libcairo-2.dll
 0000:fffa6000       .debug$S                   0000000180000000     cairo:libcairo-2.dll
 0000:fffa6000       .debug$S                   0000000180000000     cairo:libcairo-2.dll
 0000:fffa6000       .debug$S                   0000000180000000     node:node.exe
 0000:fffa6000       .debug$S                   0000000180000000     kernel32:KERNEL32.dll
 0000:fffa6000       .debug$S                   0000000180000000     cairo:libcairo-2.dll
 0000:fffa6000       .debug$S                   0000000180000000     cairo:libcairo-2.dll
 0000:fffa6000       .debug$S                   0000000180000000     cairo:libcairo-2.dll
 0000:fffa6000       .debug$S                   0000000180000000     cairo:libcairo-2.dll
 0000:fffa6000       .debug$S                   0000000180000000     cairo:libcairo-2.dll
 0000:fffa6000       .debug$S                   0000000180000000     cairo:libcairo-2.dll
 0000:fffa6000       .debug$S                   0000000180000000     kernel32:KERNEL32.dll
 0000:fffa6000       .debug$S                   0000000180000000     cairo:libcairo-2.dll
 0000:fffa6000       .debug$S                   0000000180000000     cairo:libcairo-2.dll
 0000:fffa6000       .debug$S                   0000000180000000     kernel32:KERNEL32.dll
 0000:fffa6000       .debug$S                   0000000180000000     kernel32:KERNEL32.dll
 0000:fffa6000       .debug$S                   0000000180000000     cairo:libcairo-2.dll
 0000:fffa6000       .debug$S                   0000000180000000     kernel32:KERNEL32.dll
 0000:fffa6000       .debug$S                   0000000180000000     kernel32:KERNEL32.dll
 0000:fffa6000       .debug$S                   0000000180000000     kernel32:KERNEL32.dll
 0000:fffa6000       .debug$S                   0000000180000000     kernel32:KERNEL32.dll
 0000:fffa6000       .debug$S                   0000000180000000     kernel32:KERNEL32.dll
 0000:fffa6000       .debug$S                   0000000180000000     kernel32:KERNEL32.dll
 0000:fffa6000       .debug$S                   0000000180000000     kernel32:KERNEL32.dll
 0000:fffa6000       .debug$S                   0000000180000000     kernel32:KERNEL32.dll
 0000:fffa6000       .debug$S                   0000000180000000     kernel32:KERNEL32.dll
 0000:fffa6000       .debug$S                   0000000180000000     kernel32:KERNEL32.dll
 0000:fffa6000       .debug$S                   0000000180000000     kernel32:KERNEL32.dll
 0000:fffa6000       .debug$S                   0000000180000000     cairo:libcairo-2.dll
 0000:fffa6000       .debug$S                   0000000180000000     cairo:libcairo-2.dll
 0000:fffa6000       .debug$S                   0000000180000000     kernel32:KERNEL32.dll
 0000:fffa6000       .debug$S                   0000000180000000     cairo:libcairo-2.dll
 0000:fffa6000       .debug$S                   0000000180000000     kernel32:KERNEL32.dll
 0000:fffa6000       .debug$S                   0000000180000000     kernel32:KERNEL32.dll
 0000:fffa6000       .debug$S                   0000000180000000     kernel32:KERNEL32.dll
 0000:fffa6000       .debug$S                   0000000180000000     kernel32:KERNEL32.dll
 0000:fffa6000       .debug$S                   0000000180000000     cairo:libcairo-2.dll
 0000:fffa6000       .debug$S                   0000000180000000     kernel32:KERNEL32.dll
 0000:fffa6000       .debug$S                   0000000180000000     kernel32:KERNEL32.dll
 0000:fffa6000       .debug$S                   0000000180000000     kernel32:KERNEL32.dll
 0000:fffa6000       .debug$S                   0000000180000000     cairo:libcairo-2.dll
 0000:fffa6000       .debug$S                   0000000180000000     kernel32:KERNEL32.dll
 0000:fffa6000       .debug$S                   0000000180000000     cairo:libcairo-2.dll
 0000:fffa6000       .debug$S                   0000000180000000     kernel32:KERNEL32.dll
 0000:fffa6000       .debug$S                   0000000180000000     cairo:libcairo-2.dll
 0000:fffa6000       .debug$S                   0000000180000000     kernel32:KERNEL32.dll
 0000:fffa6000       .debug$S                   0000000180000000     node:node.exe
 0000:fffa6000       .debug$S                   0000000180000000     kernel32:KERNEL32.dll
 0000:fffa6000       .debug$S                   0000000180000000     cairo:libcairo-2.dll
 0000:fffa6000       .debug$S                   0000000180000000     cairo:libcairo-2.dll
 0000:fffa6000       .debug$S                   0000000180000000     cairo:libcairo-2.dll
 0000:fffa6000       .debug$S                   0000000180000000     cairo:libcairo-2.dll
 0000:fffa6000       .debug$S                   0000000180000000     cairo:libcairo-2.dll
 0000:fffa6000       .debug$S                   0000000180000000     kernel32:KERNEL32.dll
 0000:fffa6000       .debug$S                   0000000180000000     kernel32:KERNEL32.dll
 0000:fffa6000       .debug$S                   0000000180000000     kernel32:KERNEL32.dll
 0000:fffa6000       .debug$S                   0000000180000000     kernel32:KERNEL32.dll
 0000:fffa6000       .debug$S                   0000000180000000     kernel32:KERNEL32.dll
 0000:fffa6000       .debug$S                   0000000180000000     cairo:libcairo-2.dll
 0000:fffa6000       .debug$S                   0000000180000000     kernel32:KERNEL32.dll
 0000:fffa6000       .debug$S                   0000000180000000     kernel32:KERNEL32.dll
 0000:fffa6000       .debug$S                   0000000180000000     kernel32:KERNEL32.dll
 0000:fffa6000       .debug$S                   0000000180000000     kernel32:KERNEL32.dll
 0000:fffa6000       .debug$S                   0000000180000000     kernel32:KERNEL32.dll
 0000:fffa6000       .debug$S                   0000000180000000     kernel32:KERNEL32.dll
 0000:fffa6000       .debug$S                   0000000180000000     kernel32:KERNEL32.dll
 0000:fffa6000       .debug$S                   0000000180000000     kernel32:KERNEL32.dll
 0000:fffa6000       .debug$S                   0000000180000000     kernel32:KERNEL32.dll
 0000:fffa6000       .debug$S                   0000000180000000     cairo:libcairo-2.dll
 0000:fffa6000       .debug$S                   0000000180000000     cairo:libcairo-2.dll
 0000:fffa6000       .debug$S                   0000000180000000     kernel32:KERNEL32.dll
 0000:fffa6000       .debug$S                   0000000180000000     kernel32:KERNEL32.dll
 0000:fffa6000       .debug$S                   0000000180000000     kernel32:KERNEL32.dll
 0000:fffa6000       .debug$S                   0000000180000000     cairo:libcairo-2.dll
 0000:fffa6000       .debug$S                   0000000180000000     kernel32:KERNEL32.dll
 0000:fffa6000       .debug$S                   0000000180000000     cairo:libcairo-2.dll
 0000:fffa6000       .debug$S                   0000000180000000     kernel32:KERNEL32.dll
 0000:fffa6000       .debug$S                   0000000180000000     cairo:libcairo-2.dll
 0000:fffa6000       .debug$S                   0000000180000000     cairo:libcairo-2.dll
 0000:fffa6000       .debug$S                   0000000180000000     cairo:libcairo-2.dll
 0000:fffa6000       .debug$S                   0000000180000000     cairo:libcairo-2.dll
 0000:fffa6000       .debug$S                   0000000180000000     cairo:libcairo-2.dll
 0000:fffa6000       .debug$S                   0000000180000000     node:node.exe
 0000:fffa6000       .debug$S                   0000000180000000     cairo:libcairo-2.dll
 0000:fffa6000       .debug$S                   0000000180000000     cairo:libcairo-2.dll
 0000:fffa6000       .debug$S                   0000000180000000     cairo:libcairo-2.dll
 0000:fffa6000       .debug$S                   0000000180000000     cairo:libcairo-2.dll
 0000:fffa6000       .debug$S                   0000000180000000     node:node.exe
 0000:fffa6000       .debug$S                   0000000180000000     cairo:libcairo-2.dll
 0000:fffa6000       .debug$S                   0000000180000000     cairo:libcairo-2.dll
 0000:fffa6000       .debug$S                   0000000180000000     cairo:libcairo-2.dll
 0000:fffa6000       .debug$S                   0000000180000000     cairo:libcairo-2.dll
 0000:fffa6000       .debug$S                   0000000180000000     cairo:libcairo-2.dll
 0000:fffa6000       .debug$S                   0000000180000000     kernel32:KERNEL32.dll
 0000:fffa6000       .debug$S                   0000000180000000     kernel32:KERNEL32.dll
 0000:fffa6000       .debug$S                   0000000180000000     cairo:libcairo-2.dll
 0000:fffa6000       .debug$S                   0000000180000000     kernel32:KERNEL32.dll
 0000:fffa6000       .debug$S                   0000000180000000     kernel32:KERNEL32.dll
 0000:fffa6000       .debug$S                   0000000180000000     kernel32:KERNEL32.dll
 0000:fffa6000       .debug$S                   0000000180000000     kernel32:KERNEL32.dll
 0000:fffa6000       .debug$S                   0000000180000000     kernel32:KERNEL32.dll
 0000:fffa6000       .debug$S                   0000000180000000     kernel32:KERNEL32.dll
 0000:fffa6000       .debug$S                   0000000180000000     kernel32:KERNEL32.dll
 0000:fffa6000       .debug$S                   0000000180000000     kernel32:KERNEL32.dll
 0000:fffa6000       .debug$S                   0000000180000000     kernel32:KERNEL32.dll
 0000:fffa6000       .debug$S                   0000000180000000     kernel32:KERNEL32.dll
 0000:fffa6000       .debug$S                   0000000180000000     kernel32:KERNEL32.dll
 0000:fffa6000       .debug$S                   0000000180000000     cairo:libcairo-2.dll
 0000:fffa6000       .debug$S                   0000000180000000     kernel32:KERNEL32.dll
 0000:fffa6000       .debug$S                   0000000180000000     kernel32:KERNEL32.dll
 0000:fffa6000       .debug$S                   0000000180000000     kernel32:KERNEL32.dll
 0000:fffa6000       .debug$S                   0000000180000000     cairo:libcairo-2.dll
 0000:fffa6000       .debug$S                   0000000180000000     kernel32:KERNEL32.dll
 0000:fffa6000       .debug$S                   0000000180000000     kernel32:KERNEL32.dll
 0000:fffa6000       .debug$S                   0000000180000000     kernel32:KERNEL32.dll
 0000:fffa6000       .debug$S                   0000000180000000     cairo:libcairo-2.dll
 0000:fffa6000       .debug$S                   0000000180000000     cairo:libcairo-2.dll
 0000:fffa6000       .debug$S                   0000000180000000     cairo:libcairo-2.dll
 0000:fffa6000       .debug$S                   0000000180000000     kernel32:KERNEL32.dll
 0000:fffa6000       .debug$S                   0000000180000000     kernel32:KERNEL32.dll
 0000:fffa6000       .debug$S                   0000000180000000     kernel32:KERNEL32.dll
 0000:fffa6000       .debug$S                   0000000180000000     cairo:libcairo-2.dll
 0000:fffa6000       .debug$S                   0000000180000000     cairo:libcairo-2.dll
 0000:fffa6000       .debug$S                   0000000180000000     cairo:libcairo-2.dll
 0000:fffa6000       .debug$S                   0000000180000000     cairo:libcairo-2.dll
 0000:fffa6000       .debug$S                   0000000180000000     cairo:libcairo-2.dll
 0000:fffa6000       .debug$S                   0000000180000000     cairo:libcairo-2.dll
 0000:fffa6000       .debug$S                   0000000180000000     cairo:libcairo-2.dll
 0000:fffa6000       .debug$S                   0000000180000000     cairo:libcairo-2.dll
 0000:fffa6000       .debug$S                   0000000180000000     cairo:libcairo-2.dll
 0000:fffa6000       .debug$S                   0000000180000000     cairo:libcairo-2.dll
 0000:fffa6000       .debug$S                   0000000180000000     cairo:libcairo-2.dll
 0000:fffa6000       .debug$S                   0000000180000000     cairo:libcairo-2.dll
 0000:fffa6000       .debug$S                   0000000180000000     cairo:libcairo-2.dll
 0000:fffa6000       .debug$S                   0000000180000000     cairo:libcairo-2.dll
 0000:fffa6000       .debug$S                   0000000180000000     libpng:libpng14-14.dll
 0000:fffa6000       .debug$S                   0000000180000000     libpng:libpng14-14.dll
 0000:fffa6000       .debug$S                   0000000180000000     libpng:libpng14-14.dll
 0000:fffa6000       .debug$S                   0000000180000000     libpng:libpng14-14.dll
 0000:fffa6000       .debug$S                   0000000180000000     libpng:libpng14-14.dll
 0000:fffa6000       .debug$S                   0000000180000000     libpng:libpng14-14.dll
 0000:fffa6000       .debug$S                   0000000180000000     libpng:libpng14-14.dll
 0000:fffa6000       .debug$S                   0000000180000000     libpng:libpng14-14.dll
 0000:fffa6000       .debug$S                   0000000180000000     libpng:libpng14-14.dll
 0000:fffa6000       .debug$S                   0000000180000000     libpng:libpng14-14.dll
 0000:fffa6000       .debug$S                   0000000180000000     libpng:libpng14-14.dll
 0000:fffa6000       .debug$S                   0000000180000000     libpng:libpng14-14.dll
 0000:fffa6000       .debug$S                   0000000180000000     libpng:libpng14-14.dll
 0000:fffa6000       .debug$S                   0000000180000000     libpng:libpng14-14.dll
 0000:fffa6000       .debug$S                   0000000180000000     libpng:libpng14-14.dll
 0000:fffa6000       .debug$S                   0000000180000000     libpng:libpng14-14.dll
 0000:fffa6000       .debug$S                   0000000180000000     libpng:libpng14-14.dll
 0000:fffa6000       .debug$S                   0000000180000000     libpng:libpng14-14.dll
 0000:fffa6000       .debug$S                   0000000180000000     libpng:libpng14-14.dll
 0000:fffa6000       .debug$S                   0000000180000000     libpng:libpng14-14.dll
 0000:fffa6000       .debug$S                   0000000180000000     libpng:libpng14-14.dll
 0000:fffa6000       .debug$S                   0000000180000000     libpng:libpng14-14.dll
 0000:fffa6000       .debug$S                   0000000180000000     libpng:libpng14-14.dll
 0000:fffa6000       .debug$S                   0000000180000000     pangocairo-1.0:libpangocairo-1.0-0.dll
 0000:fffa6000       .debug$S                   0000000180000000     pangocairo-1.0:libpangocairo-1.0-0.dll
 0000:fffa6000       .debug$S                   0000000180000000     pangocairo-1.0:libpangocairo-1.0-0.dll
 0000:fffa6000       .debug$S                   0000000180000000     pangocairo-1.0:libpangocairo-1.0-0.dll
 0000:fffa6000       .debug$S                   0000000180000000     pangocairo-1.0:libpangocairo-1.0-0.dll
 0000:fffa6000       .debug$S                   0000000180000000     pango-1.0:libpango-1.0-0.dll
 0000:fffa6000       .debug$S                   0000000180000000     kernel32:KERNEL32.dll
 0000:fffa6000       .debug$S                   0000000180000000     kernel32:KERNEL32.dll
 0000:fffa6000       .debug$S                   0000000180000000     kernel32:KERNEL32.dll
 0000:fffa6000       .debug$S                   0000000180000000     kernel32:KERNEL32.dll
 0000:fffa6000       .debug$S                   0000000180000000     kernel32:KERNEL32.dll
 0000:fffa6000       .debug$S                   0000000180000000     kernel32:KERNEL32.dll
 0000:fffa6000       .debug$S                   0000000180000000     kernel32:KERNEL32.dll
 0000:fffa6000       .debug$S                   0000000180000000     pango-1.0:libpango-1.0-0.dll
 0000:fffa6000       .debug$S                   0000000180000000     kernel32:KERNEL32.dll
 0000:fffa6000       .debug$S                   0000000180000000     kernel32:KERNEL32.dll
 0000:fffa6000       .debug$S                   0000000180000000     kernel32:KERNEL32.dll
 0000:fffa6000       .debug$S                   0000000180000000     pango-1.0:libpango-1.0-0.dll
 0000:fffa6000       .debug$S                   0000000180000000     pango-1.0:libpango-1.0-0.dll
 0000:fffa6000       .debug$S                   0000000180000000     kernel32:KERNEL32.dll
 0000:fffa6000       .debug$S                   0000000180000000     pango-1.0:libpango-1.0-0.dll
 0000:fffa6000       .debug$S                   0000000180000000     pango-1.0:libpango-1.0-0.dll
 0000:fffa6000       .debug$S                   0000000180000000     node:node.exe
 0000:fffa6000       .debug$S                   0000000180000000     pango-1.0:libpango-1.0-0.dll
 0000:fffa6000       .debug$S                   0000000180000000     pango-1.0:libpango-1.0-0.dll
 0000:fffa6000       .debug$S                   0000000180000000     pango-1.0:libpango-1.0-0.dll
 0000:fffa6000       .debug$S                   0000000180000000     pango-1.0:libpango-1.0-0.dll
 0000:fffa6000       .debug$S                   0000000180000000     pango-1.0:libpango-1.0-0.dll
 0000:fffa6000       .debug$S                   0000000180000000     kernel32:KERNEL32.dll
 0000:fffa6000       .debug$S                   0000000180000000     kernel32:KERNEL32.dll
 0000:fffa6000       .debug$S                   0000000180000000     kernel32:KERNEL32.dll
 0000:fffa6000       .debug$S                   0000000180000000     kernel32:KERNEL32.dll
 0000:fffa6000       .debug$S                   0000000180000000     kernel32:KERNEL32.dll
 0000:fffa6000       .debug$S                   0000000180000000     pango-1.0:libpango-1.0-0.dll
 0000:fffa6000       .debug$S                   0000000180000000     pango-1.0:libpango-1.0-0.dll
 0000:fffa6000       .debug$S                   0000000180000000     kernel32:KERNEL32.dll
 0000:fffa6000       .debug$S                   0000000180000000     kernel32:KERNEL32.dll
 0000:fffa6000       .debug$S                   0000000180000000     node:node.exe
 0000:fffa6000       .debug$S                   0000000180000000     pango-1.0:libpango-1.0-0.dll
 0000:fffa6000       .debug$S                   0000000180000000     pango-1.0:libpango-1.0-0.dll
 0000:fffa6000       .debug$S                   0000000180000000     pango-1.0:libpango-1.0-0.dll
 0000:fffa6000       .debug$S                   0000000180000000     pango-1.0:libpango-1.0-0.dll
 0000:fffa6000       .debug$S                   0000000180000000     pango-1.0:libpango-1.0-0.dll
 0000:fffa6000       .debug$S                   0000000180000000     kernel32:KERNEL32.dll
 0000:fffa6000       .debug$S                   0000000180000000     pango-1.0:libpango-1.0-0.dll
 0000:fffa6000       .debug$S                   0000000180000000     pango-1.0:libpango-1.0-0.dll
 0000:fffa6000       .debug$S                   0000000180000000     pango-1.0:libpango-1.0-0.dll
 0000:fffa6000       .debug$S                   0000000180000000     pango-1.0:libpango-1.0-0.dll
 0000:fffa6000       .debug$S                   0000000180000000     pango-1.0:libpango-1.0-0.dll
 0000:fffa6000       .debug$S                   0000000180000000     pango-1.0:libpango-1.0-0.dll
 0000:fffa6000       .debug$S                   0000000180000000     pango-1.0:libpango-1.0-0.dll
 0000:fffa6000       .debug$S                   0000000180000000     pango-1.0:libpango-1.0-0.dll
 0000:fffa6000       .debug$S                   0000000180000000     kernel32:KERNEL32.dll
 0000:fffa6000       .debug$S                   0000000180000000     node:node.exe
 0000:fffa6000       .debug$S                   0000000180000000     freetype:libfreetype-6.dll
 0000:fffa6000       .debug$S                   0000000180000000     freetype:libfreetype-6.dll
 0000:fffa6000       .debug$S                   0000000180000000     kernel32:KERNEL32.dll
 0000:fffa6000       .debug$S                   0000000180000000     freetype:libfreetype-6.dll
 0000:fffa6000       .debug$S                   0000000180000000     kernel32:KERNEL32.dll
 0000:fffa6000       .debug$S                   0000000180000000     freetype:libfreetype-6.dll
 0000:fffa6000       .debug$S                   0000000180000000     freetype:libfreetype-6.dll
 0000:fffa6000       .debug$S                   0000000180000000     kernel32:KERNEL32.dll
 0000:fffa6000       .debug$S                   0000000180000000     freetype:libfreetype-6.dll
 0000:fffa6000       .debug$S                   0000000180000000     gdi32:GDI32.dll
 0000:fffa6000       .debug$S                   0000000180000000     node:node.exe
 0000:fffa6000       .debug$S                   0000000180000000     glib-2.0:libglib-2.0-0.dll
 0000:fffa6000       .debug$S                   0000000180000000     node:node.exe
 0000:fffa6000       .debug$S                   0000000180000000     node:node.exe
 0000:fffa6000       .debug$S                   0000000180000000     node:node.exe
 0000:fffa6000       .debug$S                   0000000180000000     node:node.exe
 0000:fffa6000       .debug$S                   0000000180000000     glib-2.0:libglib-2.0-0.dll
 0000:fffa6000       .debug$S                   0000000180000000     node:node.exe
 0000:fffa6000       .debug$S                   0000000180000000     glib-2.0:libglib-2.0-0.dll
 0000:fffa6000       .debug$S                   0000000180000000     node:node.exe
 0000:fffa6000       .debug$S                   0000000180000000     node:node.exe
 0000:fffa6000       .debug$S                   0000000180000000     glib-2.0:libglib-2.0-0.dll
 0000:fffa6000       .debug$S                   0000000180000000     node:node.exe
 0000:fffa6000       .debug$S                   0000000180000000     node:node.exe
 0000:fffa6000       .debug$S                   0000000180000000     node:node.exe
 0000:fffa6000       .debug$S                   0000000180000000     node:node.exe
 0000:fffa6000       .debug$S                   0000000180000000     glib-2.0:libglib-2.0-0.dll
 0000:fffa6000       .debug$S                   0000000180000000     node:node.exe
 0000:fffa6000       .debug$S                   0000000180000000     node:node.exe
 0000:fffa6000       .debug$S                   0000000180000000     glib-2.0:libglib-2.0-0.dll
 0000:fffa6000       .debug$S                   0000000180000000     node:node.exe
 0000:fffa6000       .debug$S                   0000000180000000     glib-2.0:libglib-2.0-0.dll
 0000:fffa6000       .debug$S                   0000000180000000     node:node.exe
 0000:fffa6000       .debug$S                   0000000180000000     glib-2.0:libglib-2.0-0.dll
 0000:fffa6000       .debug$S                   0000000180000000     node:node.exe
 0000:fffa6000       .debug$S                   0000000180000000     glib-2.0:libglib-2.0-0.dll
 0000:fffa6000       .debug$S                   0000000180000000     node:node.exe
 0000:fffa6000       .debug$S                   0000000180000000     node:node.exe
 0000:fffa6000       .debug$S                   0000000180000000     node:node.exe
 0000:fffa6000       .debug$S                   0000000180000000     node:node.exe
 0000:fffa6000       .debug$S                   0000000180000000     node:node.exe
 0000:fffa6000       .debug$S                   0000000180000000     glib-2.0:libglib-2.0-0.dll
 0000:fffa6000       .debug$S                   0000000180000000     node:node.exe
 0000:fffa6000       .debug$S                   0000000180000000     glib-2.0:libglib-2.0-0.dll
 0000:fffa6000       .debug$S                   0000000180000000     glib-2.0:libglib-2.0-0.dll
 0000:fffa6000       .debug$S                   0000000180000000     glib-2.0:libglib-2.0-0.dll
 0000:fffa6000       .debug$S                   0000000180000000     glib-2.0:libglib-2.0-0.dll
 0000:fffa6000       .debug$S                   0000000180000000     glib-2.0:libglib-2.0-0.dll
 0000:fffa6000       .debug$S                   0000000180000000     glib-2.0:libglib-2.0-0.dll
 0000:fffa6000       .debug$S                   0000000180000000     node:node.exe
 0000:fffa6000       .debug$S                   0000000180000000     node:node.exe
 0000:fffa6000       .debug$S                   0000000180000000     node:node.exe
 0000:fffa6000       .debug$S                   0000000180000000     node:node.exe
 0000:fffa6000       .debug$S                   0000000180000000     node:node.exe
 0000:fffa6000       .debug$S                   0000000180000000     node:node.exe
 0000:fffa6000       .debug$S                   0000000180000000     node:node.exe
 0000:fffa6000       .debug$S                   0000000180000000     node:node.exe
 0000:fffa6000       .debug$S                   0000000180000000     glib-2.0:libglib-2.0-0.dll
 0000:fffa6000       .debug$S                   0000000180000000     glib-2.0:libglib-2.0-0.dll
 0000:fffa6000       .debug$S                   0000000180000000     node:node.exe
 0000:fffa6000       .debug$S                   0000000180000000     glib-2.0:libglib-2.0-0.dll
 0000:fffa6000       .debug$S                   0000000180000000     glib-2.0:libglib-2.0-0.dll
 0000:fffa6000       .debug$S                   0000000180000000     node:node.exe
 0000:fffa6000       .debug$S                   0000000180000000     gobject-2.0:libgobject-2.0-0.dll
 0000:fffa6000       .debug$S                   0000000180000000     node:node.exe
 0000:fffa6000       .debug$S                   0000000180000000     node:node.exe
 0000:fffa6000       .debug$S                   0000000180000000     node:node.exe
 0000:fffa6000       .debug$S                   0000000180000000     node:node.exe
 0000:fffa6000       .debug$S                   0000000180000000     node:node.exe
 0000:fffa6000       .debug$S                   0000000180000000     node:node.exe
 0000:fffa6000       .debug$S                   0000000180000000     node:node.exe
 0000:fffa6000       .debug$S                   0000000180000000     node:node.exe
 0000:fffa6000       .debug$S                   0000000180000000     node:node.exe
 0000:fffa6000       .debug$S                   0000000180000000     node:node.exe
 0000:fffa6000       .debug$S                   0000000180000000     node:node.exe
 0000:fffa6000       .debug$S                   0000000180000000     node:node.exe
 0000:fffa6000       .debug$S                   0000000180000000     node:node.exe
 0000:fffa6000       .debug$S                   0000000180000000     node:node.exe
 0000:fffa6000       .debug$S                   0000000180000000     node:node.exe
 0000:fffa6000       .debug$S                   0000000180000000     node:node.exe
 0000:fffa6000       .debug$S                   0000000180000000     node:node.exe
 0000:fffa6000       .debug$S                   0000000180000000     node:node.exe
 0000:fffa6000       .debug$S                   0000000180000000     node:node.exe
 0000:fffa6000       .debug$S                   0000000180000000     node:node.exe
 0000:fffa6000       .debug$S                   0000000180000000     node:node.exe
 0000:fffa6000       .debug$S                   0000000180000000     node:node.exe
 0000:fffa6000       .debug$S                   0000000180000000     node:node.exe
 0000:fffa6000       .debug$S                   0000000180000000     node:node.exe
 0000:fffa6000       .debug$S                   0000000180000000     node:node.exe
 0000:fffa6000       .debug$S                   0000000180000000     node:node.exe
 0000:fffa6000       .debug$S                   0000000180000000     node:node.exe
 0000:fffa6000       .debug$S                   0000000180000000     node:node.exe
 0000:fffa6000       .debug$S                   0000000180000000     node:node.exe
 0000:fffa6000       .debug$S                   0000000180000000     node:node.exe
 0000:fffa6000       .debug$S                   0000000180000000     node:node.exe
 0000:fffa6000       .debug$S                   0000000180000000     node:node.exe
 0000:fffa6000       .debug$S                   0000000180000000     node:node.exe
 0000:fffa6000       .debug$S                   0000000180000000     node:node.exe
 0000:fffa6000       .debug$S                   0000000180000000     node:node.exe
 0000:fffa6000       .debug$S                   0000000180000000     node:node.exe
 0000:fffa6000       .debug$S                   0000000180000000     node:node.exe
 0000:fffa6000       .debug$S                   0000000180000000     node:node.exe
 0000:fffa6000       .debug$S                   0000000180000000     node:node.exe
 0000:fffa6000       .debug$S                   0000000180000000     node:node.exe
 0000:fffa6000       .debug$S                   0000000180000000     node:node.exe
 0000:fffa6000       .debug$S                   0000000180000000     node:node.exe
 0000:fffa6000       .debug$S                   0000000180000000     node:node.exe
 0000:fffa6000       .debug$S                   0000000180000000     node:node.exe
 0000:fffa6000       .debug$S                   0000000180000000     node:node.exe
 0000:fffa6000       .debug$S                   0000000180000000     node:node.exe
 0000:fffa6000       .debug$S                   0000000180000000     node:node.exe
 0000:fffa6000       .debug$S                   0000000180000000     node:node.exe
 0000:fffa6000       .debug$S                   0000000180000000     node:node.exe
 0000:fffa6000       .debug$S                   0000000180000000     node:node.exe
 0000:fffa6000       .debug$S                   0000000180000000     node:node.exe
 0000:fffa6000       .debug$S                   0000000180000000     node:node.exe
 0000:fffa6000       .debug$S                   0000000180000000     node:node.exe
 0000:fffa6000       .debug$S                   0000000180000000     node:node.exe
 0000:fffa6000       .debug$S                   0000000180000000     node:node.exe
 0000:fffa6000       .debug$S                   0000000180000000     node:node.exe
 0000:fffa6000       .debug$S                   0000000180000000     node:node.exe
 0000:fffa6000       .debug$S                   0000000180000000     node:node.exe
 0000:fffa6000       .debug$S                   0000000180000000     node:node.exe
 0000:fffa6000       .debug$S                   0000000180000000     node:node.exe
 0000:fffa6000       .debug$S                   0000000180000000     node:node.exe
 0000:fffa6000       .debug$S                   0000000180000000     node:node.exe
 0001:00000000       ??__E?constructor@ImageBackend@@2V?$Persistent@VFunctionTemplate@v8@@V?$NonCopyablePersistentTraits@VFunctionTemplate@v8@@@2@@Nan@@A@@YAXXZ 0000000180001000 f   ImageBackend.obj
 0001:00000020       ??__E?constructor@PdfBackend@@2V?$Persistent@VFunctionTemplate@v8@@V?$NonCopyablePersistentTraits@VFunctionTemplate@v8@@@2@@Nan@@A@@YAXXZ 0000000180001020 f   PdfBackend.obj
 0001:00000040       ??__E?constructor@SvgBackend@@2V?$Persistent@VFunctionTemplate@v8@@V?$NonCopyablePersistentTraits@VFunctionTemplate@v8@@@2@@Nan@@A@@YAXXZ 0000000180001040 f   SvgBackend.obj
 0001:00000060       ??__E?constructor@Canvas@@2V?$Persistent@VFunctionTemplate@v8@@V?$NonCopyablePersistentTraits@VFunctionTemplate@v8@@@2@@Nan@@A@@YAXXZ 0000000180001060 f   Canvas.obj
 0001:00000080       ??__E?_font_face_list@Canvas@@0V?$vector@VFontFace@@V?$allocator@VFontFace@@@std@@@std@@A@@YAXXZ 0000000180001080 f   Canvas.obj
 0001:000000a0       ??__E?constructor@Gradient@@2V?$Persistent@VFunctionTemplate@v8@@V?$NonCopyablePersistentTraits@VFunctionTemplate@v8@@@2@@Nan@@A@@YAXXZ 00000001800010a0 f   CanvasGradient.obj
 0001:000000c0       ??__E?constructor@Pattern@@2V?$Persistent@VFunctionTemplate@v8@@V?$NonCopyablePersistentTraits@VFunctionTemplate@v8@@@2@@Nan@@A@@YAXXZ 00000001800010c0 f   CanvasPattern.obj
 0001:000000e0       ??__E?constructor@Context2d@@2V?$Persistent@VFunctionTemplate@v8@@V?$NonCopyablePersistentTraits@VFunctionTemplate@v8@@@2@@Nan@@A@@YAXXZ 00000001800010e0 f   CanvasRenderingContext2d.obj
 0001:00000100       ??__E?constructor@Image@@2V?$Persistent@VFunctionTemplate@v8@@V?$NonCopyablePersistentTraits@VFunctionTemplate@v8@@@2@@Nan@@A@@YAXXZ 0000000180001100 f   Image.obj
 0001:00000120       ??__E?constructor@ImageData@@2V?$Persistent@VFunctionTemplate@v8@@V?$NonCopyablePersistentTraits@VFunctionTemplate@v8@@@2@@Nan@@A@@YAXXZ 0000000180001120 f   ImageData.obj
 0001:00000138       ??__Einitlocks@std@@YAXXZ  0000000180001138 f   libcpmt:xlock.obj
 0001:00000158       ??__E_Fac_tidy_reg@std@@YAXXZ 0000000180001158 f   libcpmt:locale0.obj
 0001:00000164       ??__Eclassic_locale@std@@YAXXZ 0000000180001164 f   libcpmt:locale0.obj
 0001:00000170       ??__Einit_atexit@@YAXXZ    0000000180001170 f   libcpmt:iosptrs.obj
 0001:0000017c       ??__Einitlocks@std@@YAXXZ  000000018000117c f   libcpmt:iosptrs.obj
 0001:00000af0       ?FunctionCallbackWrapper@imp@Nan@@YAXAEBV?$FunctionCallbackInfo@VValue@v8@@@v8@@@Z 0000000180001af0 f   ImageBackend.obj
 0001:00001f90       ?GetterCallbackWrapper@imp@Nan@@YAXV?$Local@VName@v8@@@v8@@AEBV?$PropertyCallbackInfo@VValue@v8@@@4@@Z 0000000180002f90 f   Canvas.obj
 0001:00002060       ?SetterCallbackWrapper@imp@Nan@@YAXV?$Local@VName@v8@@@v8@@V?$Local@VValue@v8@@@4@AEBV?$PropertyCallbackInfo@X@4@@Z 0000000180003060 f   Canvas.obj
 0001:000028d0       ?canvas_png_flush@@YAXPEAUpng_struct_def@@@Z 00000001800038d0 f   Canvas.obj
 0001:000028e0       ?canvas_convert_data_to_bytes@@YAXPEAUpng_struct_def@@PEAUpng_row_info_struct@@PEAE@Z 00000001800038e0 f   Canvas.obj
 0001:00002920       ?canvas_unpremultiply_data@@YAXPEAUpng_struct_def@@PEAUpng_row_info_struct@@PEAE@Z 0000000180003920 f   Canvas.obj
 0001:000029d0       ?canvas_convert_565_to_888@@YAXPEAUpng_struct_def@@PEAUpng_row_info_struct@@PEAE@Z 00000001800039d0 f   Canvas.obj
 0001:00002ab0       ?canvas_write_png@@YA?AW4_cairo_status@@PEAU_cairo_surface@@P6AXPEAUpng_struct_def@@PEAE_K@ZPEAUcanvas_png_write_closure_t@@@Z 0000000180003ab0 f   Canvas.obj
 0001:00002ee0       ?canvas_stream_write_func@@YAXPEAUpng_struct_def@@PEAE_K@Z 0000000180003ee0 f   Canvas.obj
 0001:000049f0       ?streamPNG@@YA?AW4_cairo_status@@PEAXPEBEI@Z 00000001800059f0 f   Canvas.obj
 0001:00005260       ?streamPDF@@YA?AW4_cairo_status@@PEAXPEBEI@Z 0000000180006260 f   Canvas.obj
 0001:0000b8b4       $LN77                      000000018000c8b4     CanvasRenderingContext2d.obj
 0001:00011af0       ?h@@YAHD@Z                 0000000180012af0 f   color.obj
 0001:00011b2c       $LN9                       0000000180012b2c     color.obj
 0001:00011b3c       $LN8                       0000000180012b3c     color.obj
 0001:00011b80       ?rgba_from_hsla@@YAHMMMM@Z 0000000180012b80 f   color.obj
 0001:00011e30       ?rgba_from_rgb_string@@YAHPEBDPEAF@Z 0000000180012e30 f   color.obj
 0001:00012050       ?rgba_from_rgba_string@@YAHPEBDPEAF@Z 0000000180013050 f   color.obj
 0001:000122f0       ?rgba_from_hsla_string@@YAHPEBDPEAF@Z 00000001800132f0 f   color.obj
 0001:00012520       ?rgba_from_hsl_string@@YAHPEBDPEAF@Z 0000000180013520 f   color.obj
 0001:000126c0       ?rgba_from_hex_string@@YAHPEBDPEAF@Z 00000001800136c0 f   color.obj
 0001:00012900       ?rgba_from_name_string@@YAHPEBDPEAF@Z 0000000180013900 f   color.obj
 0001:00012a60       ??$parse_integer@H@@YA_NPEAPEBDPEAH@Z 0000000180013a60 f   color.obj
 0001:00012ae0       ??$parse_css_number@M@@YA_NPEAPEBDPEAM@Z 0000000180013ae0 f   color.obj
 0001:000146c0       _register_canvas           00000001800156c0 f   init.obj
 0001:00014a34       $LN15                      0000000180015a34     register_font.obj
 0001:00014bd0       ?load_exe_hook@@YAP6A_JXZIPEAUDelayLoadInfo@@@Z 0000000180015bd0 f   win_delay_load_hook.obj
 0001:000154fc       ?initialize_pointers@@YAHXZ 00000001800164fc f   libcpmt:winapisupp.obj
 0001:00015a30       $$000000                   0000000180016a30     LIBCMT:_amdsecgs_.obj
 0001:00015a64       ?__scrt_initialize_thread_safe_statics@@YAHXZ 0000000180016a64 f   LIBCMT:thread_safe_statics.obj
 0001:00015b84       ?__scrt_uninitialize_thread_safe_statics@@YAXXZ 0000000180016b84 f   LIBCMT:thread_safe_statics.obj
 0001:00015fd4       ?dllmain_crt_dispatch@@YAHQEAUHINSTANCE__@@KQEAX@Z 0000000180016fd4 f   LIBCMT:dll_dllmain.obj
 0001:00016024       ?dllmain_crt_process_attach@@YAHQEAUHINSTANCE__@@QEAX@Z 0000000180017024 f   LIBCMT:dll_dllmain.obj
 0001:00016150       ?dllmain_crt_process_detach@@YAH_N@Z 0000000180017150 f   LIBCMT:dll_dllmain.obj
 0001:000161d4       ?dllmain_dispatch@@YAHQEAUHINSTANCE__@@KQEAX@Z 00000001800171d4 f   LIBCMT:dll_dllmain.obj
 0001:000162cc       ?dllmain_raw@@YAHQEAUHINSTANCE__@@KQEAX@Z 00000001800172cc f   LIBCMT:dll_dllmain.obj
 0001:00016490       $$000000                   0000000180017490     LIBCMT:_chkstk_.obj
 0001:000166ac       capture_current_context    00000001800176ac f   LIBCMT:gs_report.obj
 0001:0001671c       capture_previous_context   000000018001771c f   LIBCMT:gs_report.obj
 0001:00016cf0       $$000000                   0000000180017cf0     libvcruntime:memcpy.obj
 0001:00016d97       MoveSmall                  0000000180017d97     libvcruntime:memcpy.obj
 0001:0001725c       ?CatchIt@@YAXPEAUEHExceptionRecord@@PEA_KPEAU_CONTEXT@@PEAU_xDISPATCHER_CONTEXT@@PEBU_s_FuncInfo@@PEBU_s_HandlerType@@PEBU_s_CatchableType@@PEBU_s_TryBlockMapEntry@@H1EE@Z 000000018001825c f   libvcruntime:frame.obj
 0001:00017320       ?ExFilterRethrow@@YAHPEAU_EXCEPTION_POINTERS@@PEAUEHExceptionRecord@@PEAH@Z 0000000180018320 f   libvcruntime:frame.obj
 0001:000173a8       ?FindHandler@@YAXPEAUEHExceptionRecord@@PEA_KPEAU_CONTEXT@@PEAU_xDISPATCHER_CONTEXT@@PEBU_s_FuncInfo@@EH1@Z 00000001800183a8 f   libvcruntime:frame.obj
 0001:00017878       ?FindHandlerForForeignException@@YAXPEAUEHExceptionRecord@@PEA_KPEAU_CONTEXT@@PEAU_xDISPATCHER_CONTEXT@@PEBU_s_FuncInfo@@HH1@Z 0000000180018878 f   libvcruntime:frame.obj
 0001:00017ae4       ?IsInExceptionSpec@@YAEPEAUEHExceptionRecord@@PEBU_s_ESTypeList@@@Z 0000000180018ae4 f   libvcruntime:frame.obj
 0001:00019070       $$000000                   000000018001a070     libvcruntime:memset.obj
 0001:0001915c       MsetTab                    000000018001a15c     libvcruntime:memset.obj
 0001:00019220       $$000000                   000000018001a220     libvcruntime:memcmp.obj
 0001:000192f8       ?try_get_function@@YAPEAXW4function_id@?A0x679b24ab@@QEBDQEBW4module_id@2@2@Z 000000018001a2f8 f   libvcruntime:winapi_downlevel.obj
 0001:00019ce0       $$000000                   000000018001ace0     libvcruntime:handlers.obj
 0001:00019d30       $$000000                   000000018001ad30     libvcruntime:_jmpuwind_.obj
 0001:0001a134       ??$common_assert_to_message_box@_W@@YAXQEB_W0IQEAX@Z 000000018001b134 f   libucrt:assert.obj
 0001:0001a1f8       ??$common_assert_to_message_box_build_string@_W@@YAXQEA_W_KQEB_W2IQEAX@Z 000000018001b1f8 f   libucrt:assert.obj
 0001:0001a9cc       ??$common_assert_to_stderr@_W@@YAXQEB_W0I@Z 000000018001b9cc f   libucrt:assert.obj
 0001:0001ab3c       ?get_assert_format@@YAPEB_W_W@Z 000000018001bb3c f   libucrt:assert.obj
 0001:0001b3e8       ??R<lambda_dd75445284c072d0bd3768540cc698fa>@@QEBAHXZ 000000018001c3e8 f   libucrt:output.obj
 0001:0001dfec       ??$common_fsopen@D@@YAPEAU_iobuf@@QEBD0H@Z 000000018001efec f   libucrt:fopen.obj
 0001:0001e1b8       ?common_fseek@@YAHV__crt_stdio_stream@@_JH@Z 000000018001f1b8 f   libucrt:fseek.obj
 0001:0001e224       ?common_fseek_binary_mode_read_only_fast_track_nolock@@YA_NV__crt_stdio_stream@@_JH@Z 000000018001f224 f   libucrt:fseek.obj
 0001:0001e334       ?common_fseek_nolock@@YAHV__crt_stdio_stream@@_JH@Z 000000018001f334 f   libucrt:fseek.obj
 0001:0001f130       $$000000                   0000000180020130     libucrt:pow.obj
 0001:000207d0       $$000000                   00000001800217d0     libucrt:powf.obj
 0001:000216f0       ?x_ismbbtype_l@@YAHPEAU__crt_locale_pointers@@IHH@Z 00000001800226f0 f   libucrt:ismbbyte.obj
 0001:0002177c       ?internal_isupper_l@@YA_NHQEAU__crt_locale_pointers@@@Z 000000018002277c f   libucrt:tolower_toupper.obj
 0001:00021f0c       ?atexit_exception_filter@@YAHK@Z 0000000180022f0c f   libucrt:exit.obj
 0001:00021f18       ?common_exit@@YAXHW4_crt_exit_cleanup_mode@@W4_crt_exit_return_mode@@@Z 0000000180022f18 f   libucrt:exit.obj
 0001:00022084       ?exit_or_terminate_process@@YAXI@Z 0000000180023084 f   libucrt:exit.obj
 0001:000220d0       ?try_cor_exit_process@@YAXI@Z 00000001800230d0 f   libucrt:exit.obj
 0001:00022168       ??$parse_command_line@D@@YAXPEADPEAPEAD0PEA_K2@Z 0000000180023168 f   libucrt:argv_parsing.obj
 0001:00022500       ??$common_initialize_environment_nolock@D@@YAHXZ 0000000180023500 f   libucrt:environment_initialization.obj
 0001:0002256c       ??$create_environment@D@@YAQEAPEADQEAD@Z 000000018002356c f   libucrt:environment_initialization.obj
 0001:00022668       ??$free_environment@_W@@YAXQEAPEA_W@Z 0000000180023668 f   libucrt:environment_initialization.obj
 0001:00022668       ??$free_environment@D@@YAXQEAPEAD@Z 0000000180023668 f   libucrt:environment_initialization.obj
 0001:000226ac       ??$uninitialize_environment_internal@D@@YAXAEAPEAPEAD@Z 00000001800236ac f   libucrt:environment_initialization.obj
 0001:000226c8       ??$uninitialize_environment_internal@_W@@YAXAEAPEAPEA_W@Z 00000001800236c8 f   libucrt:environment_initialization.obj
 0001:00022900       ??R<lambda_4e60a939b0d047cfe11ddc22648dfba9>@@QEBAHXZ 0000000180023900 f   libucrt:onexit.obj
 0001:00022bb0       initialize_global_variables 0000000180023bb0 f   libucrt:initialization.obj
 0001:00022bc4       initialize_c               0000000180023bc4 f   libucrt:initialization.obj
 0001:00022be8       uninitialize_c             0000000180023be8 f   libucrt:initialization.obj
 0001:00022be8       report_memory_leaks        0000000180023be8 f   libucrt:initialization.obj
 0001:00022be8       initialize_environment     0000000180023be8 f   libucrt:initialization.obj
 0001:00022be8       uninitialize_global_state_isolation 0000000180023be8 f   libucrt:initialization.obj
 0001:00022be8       initialize_global_state_isolation 0000000180023be8 f   libucrt:initialization.obj
 0001:00022bec       uninitialize_environment   0000000180023bec f   libucrt:initialization.obj
 0001:00022bfc       initialize_pointers        0000000180023bfc f   libucrt:initialization.obj
 0001:00022c50       uninitialize_vcruntime     0000000180023c50 f   libucrt:initialization.obj
 0001:00022c58       uninitialize_allocated_memory 0000000180023c58 f   libucrt:initialization.obj
 0001:00023d78       ?construct_ptd_array@@YAXQEAU__acrt_ptd@@@Z 0000000180024d78 f   libucrt:per_thread_data.obj
 0001:00023e48       ?destroy_fls@@YAXPEAX@Z    0000000180024e48 f   libucrt:per_thread_data.obj
 0001:00023e68       ?destroy_ptd_array@@YAXQEAU__acrt_ptd@@@Z 0000000180024e68 f   libucrt:per_thread_data.obj
 0001:00023f60       ?replace_current_thread_locale_nolock@@YAXQEAU__acrt_ptd@@QEAU__crt_locale_data@@@Z 0000000180024f60 f   libucrt:per_thread_data.obj
 0001:000241a8       ??$common_xtox@K_W@@YAHKQEA_W_KI_N@Z 00000001800251a8 f   libucrt:xtoa.obj
 0001:00024254       ??$common_xtox_s@K_W@@YAHKQEA_W_KI_N@Z 0000000180025254 f   libucrt:xtoa.obj
 0001:000244b0       ??$message_box_wait_thread@_W@@YAKQEAX@Z 00000001800254b0 f   libucrt:crtmbox.obj
 0001:000246c4       common_flush_all           00000001800256c4 f   libucrt:fflush.obj
 0001:0002482c       ??R<lambda_b721fa326cdb32351d23dfa67958c160>@@QEBAHXZ 000000018002582c f   libucrt:setvbuf.obj
 0001:000249bc       _call_matherr              00000001800259bc f   libucrt:libm_error.obj
 0001:00024a24       _exception_enabled         0000000180025a24 f   libucrt:libm_error.obj
 0001:00024d68       ?try_get_function@@YAPEAXW4function_id@?A0x63058377@@QEBDQEBW4module_id@2@2@Z 0000000180025d68 f   libucrt:winapi_thunks.obj
 0001:000256d4       ?initialize_inherited_file_handles_nolock@@YAXXZ 00000001800266d4 f   libucrt:ioinit.obj
 0001:000257c0       ?initialize_stdio_handles_nolock@@YAXXZ 00000001800267c0 f   libucrt:ioinit.obj
 0001:00025d50       ?fp_format_a@@YAHQEBNPEAD_KQEAD2H_NIQEAU__crt_locale_pointers@@@Z 0000000180026d50 f   libucrt:cvt.obj
 0001:000260b0       ?fp_format_e@@YAHQEBNQEAD_K12H_NIQEAU__crt_locale_pointers@@@Z 00000001800270b0 f   libucrt:cvt.obj
 0001:00026180       ?fp_format_e_internal@@YAHQEAD_KH_NIQEAU_strflt@@2QEAU__crt_locale_pointers@@@Z 0000000180027180 f   libucrt:cvt.obj
 0001:0002635c       ?fp_format_f_internal@@YAHQEAD_KHQEAU_strflt@@_NQEAU__crt_locale_pointers@@@Z 000000018002735c f   libucrt:cvt.obj
 0001:000264a4       ?fp_format_g@@YAHQEBNQEAD_K12H_NIQEAU__crt_locale_pointers@@@Z 00000001800274a4 f   libucrt:cvt.obj
 0001:000265dc       ?fp_format_nan_or_infinity@@YAHW4__acrt_fp_class@@_NPEAD_K1@Z 00000001800275dc f   libucrt:cvt.obj
 0001:00026d38       ?find_or_allocate_unused_stream_nolock@@YA?AV__crt_stdio_stream@@XZ 0000000180027d38 f   libucrt:stream.obj
 0001:00027330       ??$common_ftell_nolock@_J@@YA_JV__crt_stdio_stream@@@Z 0000000180028330 f   libucrt:ftell.obj
 0001:000274a8       ?common_ftell_read_mode_nolock@@YA_JV__crt_stdio_stream@@_J1@Z 00000001800284a8 f   libucrt:ftell.obj
 0001:00027620       ?common_ftell_translated_utf8_nolock@@YA_JV__crt_stdio_stream@@_J@Z 0000000180028620 f   libucrt:ftell.obj
 0001:000277a0       ??$common_lseek@_J@@YA_JH_JH@Z 00000001800287a0 f   libucrt:lseek.obj
 0001:00027890       ??$common_lseek_nolock@_J@@YA_JH_JH@Z 0000000180028890 f   libucrt:lseek.obj
 0001:0002793c       ??$translate_text_mode_nolock@_W@@YAHHQEA_W_K@Z 000000018002893c f   libucrt:read.obj
 0001:00027b6c       ?translate_ansi_or_utf8_nolock@@YAHHQEAD_KQEA_W1@Z 0000000180028b6c f   libucrt:read.obj
 0001:000283ec       ??$common_refill_and_read_nolock@D@@YAHV__crt_stdio_stream@@@Z 00000001800293ec f   libucrt:_filbuf.obj
 0001:00028890       ?__acrt_LCMapStringA_stat@@YAHPEAU__crt_locale_pointers@@PEB_WKPEBDHPEADHHH@Z 0000000180029890 f   libucrt:lcmapstringa.obj
 0001:000294e0       ?<helper_func_cdecl>@<lambda_2feae5270eb4d0d5532525f423405775>@@CAHPEBX0@Z 000000018002a4e0 f   libucrt:argv_wildcards.obj
 0001:000294f4       ??$common_expand_argv_wildcards@D@@YAHQEAPEADQEAPEAPEAD@Z 000000018002a4f4 f   libucrt:argv_wildcards.obj
 0001:00029700       ??$copy_and_add_argument_to_buffer@D@@YAHQEBD0_KAEAV?$argument_list@D@?A0xca0879c4@@@Z 000000018002a700 f   libucrt:argv_wildcards.obj
 0001:00029810       ??$expand_argument_wildcards@D@@YAHQEAD0AEAV?$argument_list@D@?A0xca0879c4@@@Z 000000018002a810 f   libucrt:argv_wildcards.obj
 0001:00029ac4       ??R<lambda_ad1ced32f4ac17aa236e5ef05d6b3b7c>@@QEBAXXZ 000000018002aac4 f   libucrt:mbctype.obj
 0001:00029cdc       ?getSystemCP@@YAHH@Z       000000018002acdc f   libucrt:mbctype.obj
 0001:00029d5c       ?setSBCS@@YAXPEAU__crt_multibyte_data@@@Z 000000018002ad5c f   libucrt:mbctype.obj
 0001:00029dec       ?setSBUpLow@@YAXPEAU__crt_multibyte_data@@@Z 000000018002adec f   libucrt:mbctype.obj
 0001:00029fd0       ?setmbcp_internal@@YAHH_N@Z 000000018002afd0 f   libucrt:mbctype.obj
 0001:0002ad64       ?write_double_translated_ansi_nolock@@YA?AUwrite_result@?A0x9c548279@@HQEBDI@Z 000000018002bd64 f   libucrt:write.obj
 0001:0002af6c       ?write_text_ansi_nolock@@YA?AUwrite_result@?A0x9c548279@@HQEBDI@Z 000000018002bf6c f   libucrt:write.obj
 0001:0002b074       ?write_text_utf16le_nolock@@YA?AUwrite_result@?A0x9c548279@@HQEBDI@Z 000000018002c074 f   libucrt:write.obj
 0001:0002b190       ?write_text_utf8_nolock@@YA?AUwrite_result@?A0x9c548279@@HQEBDI@Z 000000018002c190 f   libucrt:write.obj
 0001:0002b6d4       ?GetTableIndexFromLocaleName@@YAHPEB_W@Z 000000018002c6d4 f   libucrt:lcidtoname_downlevel.obj
 0001:0002d108       memcpy_s                   000000018002e108 f   libucrt:strtod.obj
 0001:0002d108       memcpy_s                   000000018002e108 f   libucrt:cfout.obj
 0001:0002d190       ??$write_buffer_nolock@D@@YA_NDV__crt_stdio_stream@@@Z 000000018002e190 f   libucrt:_flsbuf.obj
 0001:0002d294       ??$write_buffer_nolock@_W@@YA_N_WV__crt_stdio_stream@@@Z 000000018002e294 f   libucrt:_flsbuf.obj
 0001:0002d74c       ?free_crt_array_internal@@YAXQEAPEBX_K@Z 000000018002e74c f   libucrt:inittime.obj
 0001:0002d8b0       $$000000                   000000018002e8b0     libucrt:strncmp.obj
 0001:0002dab4       ??$common_sopen_dispatch@D@@YAHQEBDHHHQEAHH@Z 000000018002eab4 f   libucrt:open.obj
 0001:0002db94       ?configure_text_mode@@YAHHUfile_options@?A0x656cf9f4@@HAEAW4__crt_lowio_text_mode@@@Z 000000018002eb94 f   libucrt:open.obj
 0001:0002de28       ?decode_options@@YA?AUfile_options@?A0x656cf9f4@@HHH@Z 000000018002ee28 f   libucrt:open.obj
 0001:0002e034       ?truncate_ctrl_z_if_present@@YAHH@Z 000000018002f034 f   libucrt:open.obj
 0001:0002e770       $$000000                   000000018002f770     libucrt:fpsr.obj
 0001:0002e7d0       ?shortsort@@YAXPEAD0_KP6AHPEBX2@Z@Z 000000018002f7d0 f   libucrt:qsort.obj
 0001:0002ed14       ?initialize_multibyte@@YAHXZ 000000018002fd14 f   libucrt:multibyte_initializer.obj
 0001:0002ef50       $$000000                   000000018002ff50     libucrt:log10.obj
 0001:0002f928       common_control87           0000000180030928 f   libucrt:ieee.obj
 0001:0002fc40       _log_special_common        0000000180030c40 f   libucrt:log_special.obj
 0001:00030e80       $$000000                   0000000180031e80     libucrt:strcmp.obj
 0001:00030f00       $$000000                   0000000180031f00     libucrt:tan.obj
 0001:000314c0       _tan_piby4                 00000001800324c0 f   libucrt:tan.obj
 0001:00031698       _sincos_special            0000000180032698 f   libucrt:sincos_special.obj
 0001:00031750       $$000000                   0000000180032750     libucrt:remainder_piby2_forfma3.obj
 0001:000319c0       $$000000                   00000001800329c0     libucrt:remainder_piby2_forasm.obj
 0001:00031d10       $$000000                   0000000180032d10     LIBCMT:_guard_dispatch_.obj
 0001:00031d30       $$000000                   0000000180032d30     libvcruntime:_longjmp_.obj
 0001:00031e30       $$000000                   0000000180032e30     libvcruntime:_setjmp_.obj
 0001:00031ef0       ?dtor$0@?0???0Backend@@IEAA@V?$basic_string@DU?$char_traits@D@std@@V?$allocator@D@2@@std@@HH@Z@4HA 0000000180032ef0 f   Backend.obj
 0001:00031efc       ?dtor$1@?0???0Backend@@IEAA@V?$basic_string@DU?$char_traits@D@std@@V?$allocator@D@2@@std@@HH@Z@4HA 0000000180032efc f   Backend.obj
 0001:00031f10       ?dtor$0@?0??NewInstance@Nan@@YA?AV?$MaybeLocal@VObject@v8@@@v8@@V?$Local@VObjectTemplate@v8@@@3@@Z@4HA 0000000180032f10 f   ImageBackend.obj
 0001:00031f10       ?dtor$0@?0??convert@?$ToFactory@VUint32@v8@@@imp@Nan@@SA?AV?$MaybeLocal@VUint32@v8@@@v8@@V?$Local@VValue@v8@@@5@@Z@4HA 0000000180032f10 f   Canvas.obj
 0001:00031f10       ?dtor$0@?0??convert@?$ToFactory@VInt32@v8@@@imp@Nan@@SA?AV?$MaybeLocal@VInt32@v8@@@v8@@V?$Local@VValue@v8@@@5@@Z@4HA 0000000180032f10 f   CanvasRenderingContext2d.obj
 0001:00031f10       ?dtor$0@?0??GetFunction@Nan@@YA?AV?$MaybeLocal@VFunction@v8@@@v8@@V?$Local@VFunctionTemplate@v8@@@3@@Z@4HA 0000000180032f10 f   CanvasRenderingContext2d.obj
 0001:00031f20       ?dtor$0@?0??New@?$Factory@VFunctionTemplate@v8@@@imp@Nan@@SA?AV?$Local@VFunctionTemplate@v8@@@v8@@P6AXAEBV?$FunctionCallbackInfo@VValue@v8@@@3@@ZV?$Local@VValue@v8@@@5@V?$Local@VSignature@v8@@@5@@Z@4HA 0000000180032f20 f   ImageBackend.obj
 0001:00031f30       ?dtor$0@?0???0?$TypedArrayContents@E@Nan@@QEAA@V?$Local@VValue@v8@@@v8@@@Z@4HA 0000000180032f30 f   Canvas.obj
 0001:00031f30       ?dtor$0@?0??Initialize@ImageBackend@@SAXV?$Local@VObject@v8@@@v8@@@Z@4HA 0000000180032f30 f   ImageBackend.obj
 0001:00031f30       ?dtor$0@?0???$SetMethod@VFunctionTemplate@v8@@VLocal@2@@Nan@@YAXV?$Local@VFunctionTemplate@v8@@@v8@@PEBDP6AXAEBV?$FunctionCallbackInfo@VValue@v8@@@0@@Z@Z@4HA 0000000180032f30 f   Canvas.obj
 0001:00031f30       ?dtor$0@?0??ThrowRangeError@Nan@@YAXPEBD@Z@4HA 0000000180032f30 f   Canvas.obj
 0001:00031f30       ?dtor$0@?0??Call_@Callback@Nan@@AEBA?AV?$Local@VValue@v8@@@v8@@PEAVIsolate@4@V?$Local@VObject@v8@@@4@HQEAV34@@Z@4HA 0000000180032f30 f   Canvas.obj
 0001:00031f30       ?dtor$0@?0??Initialize@SvgBackend@@SAXV?$Local@VObject@v8@@@v8@@@Z@4HA 0000000180032f30 f   SvgBackend.obj
 0001:00031f30       ?dtor$0@?0??Initialize@PdfBackend@@SAXV?$Local@VObject@v8@@@v8@@@Z@4HA 0000000180032f30 f   PdfBackend.obj
 0001:00031f30       ?dtor$0@?0??Initialize@Backends@@SAXV?$Local@VObject@v8@@@v8@@@Z@4HA 0000000180032f30 f   Backends.obj
 0001:00031f30       ?dtor$0@?0???0?$TypedArrayContents@N@Nan@@QEAA@V?$Local@VValue@v8@@@v8@@@Z@4HA 0000000180032f30 f   CanvasRenderingContext2d.obj
 0001:00031f30       ?dtor$0@?0??resurface@Canvas@@QEAAXV?$Local@VObject@v8@@@v8@@@Z@4HA 0000000180032f30 f   Canvas.obj
 0001:00031f30       ?dtor$0@?0??ThrowError@Nan@@YAXPEBD@Z@4HA 0000000180032f30 f   Canvas.obj
 0001:00031f30       ?dtor$0@?0??ThrowTypeError@Nan@@YAXPEBD@Z@4HA 0000000180032f30 f   Canvas.obj
 0001:00031f40       ?dtor$0@?0??New@ImageBackend@@SAXAEBV?$FunctionCallbackInfo@VValue@v8@@@Nan@@@Z@4HA 0000000180032f40 f   ImageBackend.obj
 0001:00031f60       ?dtor$0@?0??New@PdfBackend@@SAXAEBV?$FunctionCallbackInfo@VValue@v8@@@Nan@@@Z@4HA 0000000180032f60 f   PdfBackend.obj
 0001:00031f60       ?dtor$0@?0??New@SvgBackend@@SAXAEBV?$FunctionCallbackInfo@VValue@v8@@@Nan@@@Z@4HA 0000000180032f60 f   SvgBackend.obj
 0001:00031f80       ?dtor$0@?0??Set@Nan@@YA?AV?$Maybe@_N@v8@@V?$Local@VObject@v8@@@3@V?$Local@VValue@v8@@@3@1@Z@4HA 0000000180032f80 f   Canvas.obj
 0001:00031f90       ?dtor$0@?0??NewInstance@Nan@@YA?AV?$MaybeLocal@VObject@v8@@@v8@@V?$Local@VFunction@v8@@@3@HQEAV?$Local@VValue@v8@@@3@@Z@4HA 0000000180032f90 f   CanvasRenderingContext2d.obj
 0001:00031f90       ?dtor$0@?0??Call@Nan@@YA?AV?$MaybeLocal@VValue@v8@@@v8@@V?$Local@VFunction@v8@@@3@V?$Local@VObject@v8@@@3@HQEAV?$Local@VValue@v8@@@3@@Z@4HA 0000000180032f90 f   Canvas.obj
 0001:00031fa0       ?dtor$0@?0??Call@Callback@Nan@@QEBA?AV?$Local@VValue@v8@@@v8@@HQEAV34@@Z@4HA 0000000180032fa0 f   Canvas.obj
 0001:00031fb0       ?dtor$0@?0??Initialize@Gradient@@SAXV?$Local@VObject@v8@@@v8@@@Z@4HA 0000000180032fb0 f   CanvasGradient.obj
 0001:00031fb0       ?dtor$0@?0??Initialize@Pattern@@SAXV?$Local@VObject@v8@@@v8@@@Z@4HA 0000000180032fb0 f   CanvasPattern.obj
 0001:00031fb0       ?dtor$0@?0??SetPrototypeMethod@Nan@@YAXV?$Local@VFunctionTemplate@v8@@@v8@@PEBDP6AXAEBV?$FunctionCallbackInfo@VValue@v8@@@1@@Z@Z@4HA 0000000180032fb0 f   Canvas.obj
 0001:00031fc0       ?dtor$0@?0??Initialize@Canvas@@SAXV?$Local@VObject@v8@@@v8@@@Z@4HA 0000000180032fc0 f   Canvas.obj
 0001:00031fc0       ?dtor$0@?0??SetAccessor@Nan@@YAXV?$Local@VObjectTemplate@v8@@@v8@@V?$Local@VString@v8@@@3@P6AX1AEBV?$PropertyCallbackInfo@VValue@v8@@@1@@ZP6AX1V?$Local@VValue@v8@@@3@AEBV?$PropertyCallbackInfo@X@1@@Z4W4AccessControl@3@W4PropertyAttribute@3@V?$Local@VAccessorSignature@v8@@@3@@Z@4HA 0000000180032fc0 f   Canvas.obj
 0001:00031fc0       ?dtor$0@?0??Initialize@Context2d@@SAXV?$Local@VObject@v8@@@v8@@@Z@4HA 0000000180032fc0 f   CanvasRenderingContext2d.obj
 0001:00031fc0       ?dtor$0@?0??Initialize@ImageData@@SAXV?$Local@VObject@v8@@@v8@@@Z@4HA 0000000180032fc0 f   ImageData.obj
 0001:00031fc0       ?dtor$0@?0??Initialize@Image@@SAXV?$Local@VObject@v8@@@v8@@@Z@4HA 0000000180032fc0 f   Image.obj
 0001:00031fd0       ?dtor$1@?0??New@Canvas@@SAXAEBV?$FunctionCallbackInfo@VValue@v8@@@Nan@@@Z@4HA 0000000180032fd0 f   Canvas.obj
 0001:00031fed       ?dtor$3@?0??New@Canvas@@SAXAEBV?$FunctionCallbackInfo@VValue@v8@@@Nan@@@Z@4HA 0000000180032fed f   Canvas.obj
 0001:0003200a       ?dtor$4@?0??New@Canvas@@SAXAEBV?$FunctionCallbackInfo@VValue@v8@@@Nan@@@Z@4HA 000000018003300a f   Canvas.obj
 0001:00032027       ?dtor$5@?0??New@Canvas@@SAXAEBV?$FunctionCallbackInfo@VValue@v8@@@Nan@@@Z@4HA 0000000180033027 f   Canvas.obj
 0001:00032044       ?dtor$6@?0??New@Canvas@@SAXAEBV?$FunctionCallbackInfo@VValue@v8@@@Nan@@@Z@4HA 0000000180033044 f   Canvas.obj
 0001:00032070       ?dtor$0@?0??ToBufferAsyncAfter@Canvas@@SAXPEAUuv_work_s@@@Z@4HA 0000000180033070 f   Canvas.obj
 0001:00032080       ?dtor$0@?0??ToBuffer@Canvas@@SAXAEBV?$FunctionCallbackInfo@VValue@v8@@@Nan@@@Z@4HA 0000000180033080 f   Canvas.obj
 0001:0003208c       ?dtor$1@?0??ToBuffer@Canvas@@SAXAEBV?$FunctionCallbackInfo@VValue@v8@@@Nan@@@Z@4HA 000000018003308c f   Canvas.obj
 0001:000320a9       ?dtor$2@?0??ToBuffer@Canvas@@SAXAEBV?$FunctionCallbackInfo@VValue@v8@@@Nan@@@Z@4HA 00000001800330a9 f   Canvas.obj
 0001:000320c0       ?dtor$0@?0??streamPDF@@YA?AW4_cairo_status@@PEAXPEBEI@Z@4HA 00000001800330c0 f   Canvas.obj
 0001:000320c0       ?dtor$0@?0??streamPNG@@YA?AW4_cairo_status@@PEAXPEBEI@Z@4HA 00000001800330c0 f   Canvas.obj
 0001:000320d0       ?dtor$0@?0??StreamPNGSync@Canvas@@SAXAEBV?$FunctionCallbackInfo@VValue@v8@@@Nan@@@Z@4HA 00000001800330d0 f   Canvas.obj
 0001:000320e0       ?dtor$1@?0??StreamPDFSync@Canvas@@SAXAEBV?$FunctionCallbackInfo@VValue@v8@@@Nan@@@Z@4HA 00000001800330e0 f   Canvas.obj
 0001:000320f0       ?dtor$0@?0??RegisterFont@Canvas@@SAXAEBV?$FunctionCallbackInfo@VValue@v8@@@Nan@@@Z@4HA 00000001800330f0 f   Canvas.obj
 0001:00032100       ?dtor$0@?0???$New@VString@v8@@V?$basic_string@DU?$char_traits@D@std@@V?$allocator@D@2@@std@@@Nan@@YA?AV?$MaybeLocal@VString@v8@@@v8@@V?$basic_string@DU?$char_traits@D@std@@V?$allocator@D@2@@std@@@Z@4HA 0000000180033100 f   Canvas.obj
 0001:00032110       ?dtor$0@?0??New@Gradient@@SAXAEBV?$FunctionCallbackInfo@VValue@v8@@@Nan@@@Z@4HA 0000000180033110 f   CanvasGradient.obj
 0001:00032130       ?dtor$1@?0??New@Gradient@@SAXAEBV?$FunctionCallbackInfo@VValue@v8@@@Nan@@@Z@4HA 0000000180033130 f   CanvasGradient.obj
 0001:00032150       ?dtor$0@?0??AddColorStop@Gradient@@SAXAEBV?$FunctionCallbackInfo@VValue@v8@@@Nan@@@Z@4HA 0000000180033150 f   CanvasGradient.obj
 0001:00032160       ?dtor$0@?0???0Context2d@@QEAA@PEAVCanvas@@@Z@4HA 0000000180033160 f   CanvasRenderingContext2d.obj
 0001:00032170       ?dtor$2@?0??New@Context2d@@SAXAEBV?$FunctionCallbackInfo@VValue@v8@@@Nan@@@Z@4HA 0000000180033170 f   CanvasRenderingContext2d.obj
 0001:00032190       ?dtor$0@?0??GetFormat@Context2d@@SAXV?$Local@VString@v8@@@v8@@AEBV?$PropertyCallbackInfo@VValue@v8@@@Nan@@@Z@4HA 0000000180033190 f   CanvasRenderingContext2d.obj
 0001:000321a0       ?dtor$0@?0??SetFillColor@Context2d@@SAXAEBV?$FunctionCallbackInfo@VValue@v8@@@Nan@@@Z@4HA 00000001800331a0 f   CanvasRenderingContext2d.obj
 0001:000321a0       ?dtor$0@?0??SetFilter@Context2d@@SAXV?$Local@VString@v8@@@v8@@V?$Local@VValue@v8@@@3@AEBV?$PropertyCallbackInfo@X@Nan@@@Z@4HA 00000001800331a0 f   CanvasRenderingContext2d.obj
 0001:000321a0       ?dtor$0@?0??SetShadowColor@Context2d@@SAXV?$Local@VString@v8@@@v8@@V?$Local@VValue@v8@@@3@AEBV?$PropertyCallbackInfo@X@Nan@@@Z@4HA 00000001800331a0 f   CanvasRenderingContext2d.obj
 0001:000321a0       ?dtor$0@?0??FillText@Context2d@@SAXAEBV?$FunctionCallbackInfo@VValue@v8@@@Nan@@@Z@4HA 00000001800331a0 f   CanvasRenderingContext2d.obj
 0001:000321a0       ?dtor$0@?0??SetAntiAlias@Context2d@@SAXV?$Local@VString@v8@@@v8@@V?$Local@VValue@v8@@@3@AEBV?$PropertyCallbackInfo@X@Nan@@@Z@4HA 00000001800331a0 f   CanvasRenderingContext2d.obj
 0001:000321a0       ?dtor$0@?0??SetStrokeColor@Context2d@@SAXAEBV?$FunctionCallbackInfo@VValue@v8@@@Nan@@@Z@4HA 00000001800331a0 f   CanvasRenderingContext2d.obj
 0001:000321a0       ?dtor$0@?0??SetTextDrawingMode@Context2d@@SAXV?$Local@VString@v8@@@v8@@V?$Local@VValue@v8@@@3@AEBV?$PropertyCallbackInfo@X@Nan@@@Z@4HA 00000001800331a0 f   CanvasRenderingContext2d.obj
 0001:000321a0       ?dtor$0@?0??StrokeText@Context2d@@SAXAEBV?$FunctionCallbackInfo@VValue@v8@@@Nan@@@Z@4HA 00000001800331a0 f   CanvasRenderingContext2d.obj
 0001:000321b0       ?dtor$0@?0??SetFont@Context2d@@SAXAEBV?$FunctionCallbackInfo@VValue@v8@@@Nan@@@Z@4HA 00000001800331b0 f   CanvasRenderingContext2d.obj
 0001:000321be       ?dtor$1@?0??SetFont@Context2d@@SAXAEBV?$FunctionCallbackInfo@VValue@v8@@@Nan@@@Z@4HA 00000001800331be f   CanvasRenderingContext2d.obj
 0001:000321cc       ?dtor$2@?0??SetFont@Context2d@@SAXAEBV?$FunctionCallbackInfo@VValue@v8@@@Nan@@@Z@4HA 00000001800331cc f   CanvasRenderingContext2d.obj
 0001:000321da       ?dtor$3@?0??SetFont@Context2d@@SAXAEBV?$FunctionCallbackInfo@VValue@v8@@@Nan@@@Z@4HA 00000001800331da f   CanvasRenderingContext2d.obj
 0001:000321f0       ?dtor$0@?0??MeasureText@Context2d@@SAXAEBV?$FunctionCallbackInfo@VValue@v8@@@Nan@@@Z@4HA 00000001800331f0 f   CanvasRenderingContext2d.obj
 0001:00032200       ?dtor$0@?0??GetLineDash@Context2d@@SAXAEBV?$FunctionCallbackInfo@VValue@v8@@@Nan@@@Z@4HA 0000000180033200 f   CanvasRenderingContext2d.obj
 0001:00032200       ?dtor$0@?0??SetLineDash@Context2d@@SAXAEBV?$FunctionCallbackInfo@VValue@v8@@@Nan@@@Z@4HA 0000000180033200 f   CanvasRenderingContext2d.obj
 0001:00032210       ?dtor$0@?0??loaded@Image@@QEAAXXZ@4HA 0000000180033210 f   Image.obj
 0001:0003221c       __scrt_is_nonwritable_in_current_image$filt$0 000000018003321c f   LIBCMT:utility.obj
 0001:00032234       ?fin$0@?0??dllmain_crt_process_attach@@YAHQEAUHINSTANCE__@@QEAX@Z@4HA 0000000180033234 f   LIBCMT:dll_dllmain.obj
 0001:0003224b       ?fin$0@?0??dllmain_crt_process_detach@@YAH_N@Z@4HA 000000018003324b f   LIBCMT:dll_dllmain.obj
 0001:00032267       ?filt$0@?0??dllmain_dispatch@@YAHQEAUHINSTANCE__@@KQEAX@Z@4HA 0000000180033267 f   LIBCMT:dll_dllmain.obj
 0001:0003229d       __CxxCallCatchBlock$filt$0 000000018003329d f   libvcruntime:frame.obj
 0001:000322c2       __CxxCallCatchBlock$fin$1  00000001800332c2 f   libvcruntime:frame.obj
 0001:0003233a       __DestructExceptionObject$filt$0 000000018003333a f   libvcruntime:frame.obj
 0001:00032352       __FrameUnwindToState$filt$0 0000000180033352 f   libvcruntime:frame.obj
 0001:00032368       __FrameUnwindToState$fin$1 0000000180033368 f   libvcruntime:frame.obj
 0001:0003238b       _CallSETranslator$filt$0   000000018003338b f   libvcruntime:trnsctrl.obj
 0001:000323d7       ?fin$0@?0???$?RV<lambda_7a5ef57ff966f610505f1d28a3d40618>@@AEAV<lambda_b721fa326cdb32351d23dfa67958c160>@@V<lambda_5e0fb27672408a07956fe59e48ccb2aa>@@@?$__crt_seh_guarded_call@H@@QEAAH$$QEAV<lambda_7a5ef57ff966f610505f1d28a3d40618>@@AEAV<lambda_b721fa326cdb32351d23dfa67958c160>@@$$QEAV<lambda_5e0fb27672408a07956fe59e48ccb2aa>@@@Z@4HA 00000001800333d7 f   libucrt:setvbuf.obj
 0001:000323d7       ?fin$0@?0???$?RV<lambda_7b91131dde12e1c3dfc74ff76b3f2eac>@@AEAV<lambda_dd75445284c072d0bd3768540cc698fa>@@V<lambda_16bc4ecb55b4718497c16bceaea2ceaf>@@@?$__crt_seh_guarded_call@H@@QEAAH$$QEAV<lambda_7b91131dde12e1c3dfc74ff76b3f2eac>@@AEAV<lambda_dd75445284c072d0bd3768540cc698fa>@@$$QEAV<lambda_16bc4ecb55b4718497c16bceaea2ceaf>@@@Z@4HA 00000001800333d7 f   libucrt:output.obj
 0001:000323f2       ?fin$0@?0???$common_fsopen@D@@YAPEAU_iobuf@@QEBD0H@Z@4HA 00000001800333f2 f   libucrt:fopen.obj
 0001:0003241d       ?fin$0@?0??common_fseek@@YAHV__crt_stdio_stream@@_JH@Z@4HA 000000018003341d f   libucrt:fseek.obj
 0001:00032437       fread_s$fin$0              0000000180033437 f   libucrt:fread.obj
 0001:0003244f       _query_new_handler$fin$0   000000018003344f f   libucrt:new_handler.obj
 0001:00032465       ?filt$0@?0??common_exit@@YAXHW4_crt_exit_cleanup_mode@@W4_crt_exit_return_mode@@@Z@4HA 0000000180033465 f   libucrt:exit.obj
 0001:00032480       ?fin$1@?0??common_exit@@YAXHW4_crt_exit_cleanup_mode@@W4_crt_exit_return_mode@@@Z@4HA 0000000180033480 f   libucrt:exit.obj
 0001:00032499       ?fin$0@?0???$?RV<lambda_e24bbb7b643b32fcea6fa61b31d4c984>@@AEAV<lambda_275893d493268fdec8709772e3fcec0e>@@V<lambda_9d71df4d7cf3f480f8d633942495c3b0>@@@?$__crt_seh_guarded_call@H@@QEAAH$$QEAV<lambda_e24bbb7b643b32fcea6fa61b31d4c984>@@AEAV<lambda_275893d493268fdec8709772e3fcec0e>@@$$QEAV<lambda_9d71df4d7cf3f480f8d633942495c3b0>@@@Z@4HA 0000000180033499 f   libucrt:onexit.obj
 0001:000324b6       raise$fin$0                00000001800334b6 f   libucrt:signal.obj
 0001:000324da       common_flush_all$fin$0     00000001800334da f   libucrt:fflush.obj
 0001:000324f4       common_flush_all$fin$1     00000001800334f4 f   libucrt:fflush.obj
 0001:0003250d       fflush$fin$0               000000018003350d f   libucrt:fflush.obj
 0001:0003250d       fclose$fin$0               000000018003350d f   libucrt:fclose.obj
 0001:00032525       _fcloseall$fin$0           0000000180033525 f   libucrt:closeall.obj
 0001:00032525       ?fin$0@?0??__acrt_stdio_allocate_stream@@YA?AV__crt_stdio_stream@@XZ@4HA 0000000180033525 f   libucrt:stream.obj
 0001:0003253e       _ctrlfp$filt$0             000000018003353e f   libucrt:fpctrl.obj
 0001:0003253e       common_control87$filt$0    000000018003353e f   libucrt:ieee.obj
 0001:0003256a       ?fin$0@?0???$?RV<lambda_5e887d1dcbef67a5eb4283622ba103bf>@@AEAV<lambda_4466841279450cc726390878d4a41900>@@V<lambda_341c25c0346d94847f1f3c463c57e077>@@@?$__crt_seh_guarded_call@X@@QEAAX$$QEAV<lambda_5e887d1dcbef67a5eb4283622ba103bf>@@AEAV<lambda_4466841279450cc726390878d4a41900>@@$$QEAV<lambda_341c25c0346d94847f1f3c463c57e077>@@@Z@4HA 000000018003356a f   libucrt:per_thread_data.obj
 0001:0003256a       ?fin$0@?0???$?RV<lambda_c36588078e9f5dfd39652860aa6b3aaf>@@AEAV<lambda_ec61778202f4f5fc7e7711acc23c3bca>@@V<lambda_dc9d2797ccde5d239b4a0efae8ebd7db>@@@?$__crt_seh_guarded_call@P6AXH@Z@@QEAAP6AXH@Z$$QEAV<lambda_c36588078e9f5dfd39652860aa6b3aaf>@@AEAV<lambda_ec61778202f4f5fc7e7711acc23c3bca>@@$$QEAV<lambda_dc9d2797ccde5d239b4a0efae8ebd7db>@@@Z@4HA 000000018003356a f   libucrt:signal.obj
 0001:0003256a       ?fin$0@?0???$?RV<lambda_72d1df2b273a38828b1ce30cbf4cdab5>@@AEAV<lambda_876a65b173b8412d3a47c70a915b0cf4>@@V<lambda_41932305e351933ebe8f8be3ed8bb5dc>@@@?$__crt_seh_guarded_call@X@@QEAAX$$QEAV<lambda_72d1df2b273a38828b1ce30cbf4cdab5>@@AEAV<lambda_876a65b173b8412d3a47c70a915b0cf4>@@$$QEAV<lambda_41932305e351933ebe8f8be3ed8bb5dc>@@@Z@4HA 000000018003356a f   libucrt:per_thread_data.obj
 0001:0003256a       ?fin$0@?0???$?RV<lambda_99476a1ad63dd22509b5d3e65b0ffc95>@@AEAV<lambda_ad1ced32f4ac17aa236e5ef05d6b3b7c>@@V<lambda_f7424dd8d45958661754dc4f2697e9c3>@@@?$__crt_seh_guarded_call@X@@QEAAX$$QEAV<lambda_99476a1ad63dd22509b5d3e65b0ffc95>@@AEAV<lambda_ad1ced32f4ac17aa236e5ef05d6b3b7c>@@$$QEAV<lambda_f7424dd8d45958661754dc4f2697e9c3>@@@Z@4HA 000000018003356a f   libucrt:mbctype.obj
 0001:0003256a       ?fin$0@?0???$?RV<lambda_fb3a7dec4e47f37f22dae91bb15c9095>@@AEAV<lambda_698284760c8add0bfb0756c19673e34b>@@V<lambda_dfb8eca1e75fef3034a8fb18dd509707>@@@?$__crt_seh_guarded_call@X@@QEAAX$$QEAV<lambda_fb3a7dec4e47f37f22dae91bb15c9095>@@AEAV<lambda_698284760c8add0bfb0756c19673e34b>@@$$QEAV<lambda_dfb8eca1e75fef3034a8fb18dd509707>@@@Z@4HA 000000018003356a f   libucrt:per_thread_data.obj
 0001:0003256a       ?fin$0@?0???$?RV<lambda_46352004c1216016012b18bd6f87e700>@@AEAV<lambda_3bd07e1a1191394380780325891bf33f>@@V<lambda_334532d3f185bcaa59b5be82d7d22bff>@@@?$__crt_seh_guarded_call@X@@QEAAX$$QEAV<lambda_46352004c1216016012b18bd6f87e700>@@AEAV<lambda_3bd07e1a1191394380780325891bf33f>@@$$QEAV<lambda_334532d3f185bcaa59b5be82d7d22bff>@@@Z@4HA 000000018003356a f   libucrt:per_thread_data.obj
 0001:0003256a       ?fin$0@?0???$?RV<lambda_b8c45f8f788dd370798f47cfe8ac3a86>@@AEAV<lambda_4e60a939b0d047cfe11ddc22648dfba9>@@V<lambda_332c3edc96d0294ec56c57d38c1cdfd5>@@@?$__crt_seh_guarded_call@H@@QEAAH$$QEAV<lambda_b8c45f8f788dd370798f47cfe8ac3a86>@@AEAV<lambda_4e60a939b0d047cfe11ddc22648dfba9>@@$$QEAV<lambda_332c3edc96d0294ec56c57d38c1cdfd5>@@@Z@4HA 000000018003356a f   libucrt:onexit.obj
 0001:00032584       __acrt_update_thread_multibyte_data$fin$0 0000000180033584 f   libucrt:mbctype.obj
 0001:0003259d       __acrt_update_thread_locale_data$fin$0 000000018003359d f   libucrt:locale_refcounting.obj
 0001:0003259d       __acrt_uninitialize_locale$fin$0 000000018003359d f   libucrt:wsetlocale.obj
 0001:000325b6       ?fin$0@?0???$?RV<lambda_bfedae4ebbf01fab1bb6dcc6a9e276e0>@@AEAV<lambda_2fe9b910cf3cbf4a0ab98a02ba45b3ec>@@V<lambda_237c231691f317818eb88cc1d5d642d6>@@@?$__crt_seh_guarded_call@H@@QEAAH$$QEAV<lambda_bfedae4ebbf01fab1bb6dcc6a9e276e0>@@AEAV<lambda_2fe9b910cf3cbf4a0ab98a02ba45b3ec>@@$$QEAV<lambda_237c231691f317818eb88cc1d5d642d6>@@@Z@4HA 00000001800335b6 f   libucrt:close.obj
 0001:000325b6       ?fin$0@?0???$?RV<lambda_b521505b218e5242e90febf6bfebc422>@@AEAV<lambda_6978c1fb23f02e42e1d9e99668cc68aa>@@V<lambda_314360699dd331753a4119843814e9a7>@@@?$__crt_seh_guarded_call@H@@QEAAH$$QEAV<lambda_b521505b218e5242e90febf6bfebc422>@@AEAV<lambda_6978c1fb23f02e42e1d9e99668cc68aa>@@$$QEAV<lambda_314360699dd331753a4119843814e9a7>@@@Z@4HA 00000001800335b6 f   libucrt:commit.obj
 0001:000325d0       _read$fin$0                00000001800335d0 f   libucrt:read.obj
 0001:000325d0       ?fin$0@?0???$common_lseek@_J@@YA_JH_JH@Z@4HA 00000001800335d0 f   libucrt:lseek.obj
 0001:000325d0       _write$fin$0               00000001800335d0 f   libucrt:write.obj
 0001:000325e7       __acrt_lowio_ensure_fh_exists$fin$0 00000001800335e7 f   libucrt:osfinfo.obj
 0001:000325e7       __acrt_initialize_lowio$fin$0 00000001800335e7 f   libucrt:ioinit.obj
 0001:000325e7       _alloc_osfhnd$fin$0        00000001800335e7 f   libucrt:osfinfo.obj
 0001:00032600       ?fin$0@?0???$common_sopen_dispatch@D@@YAHQEBDHHHQEAHH@Z@4HA 0000000180033600 f   libucrt:open.obj
 0001:00032660       _IsNonwritableInCurrentImage$filt$0 0000000180033660 f   LIBCMT:pesect.obj
 0001:00032680       ??__F?constructor@ImageBackend@@2V?$Persistent@VFunctionTemplate@v8@@V?$NonCopyablePersistentTraits@VFunctionTemplate@v8@@@2@@Nan@@A@@YAXXZ 0000000180033680 f   ImageBackend.obj
 0001:000326a0       ??__F?constructor@PdfBackend@@2V?$Persistent@VFunctionTemplate@v8@@V?$NonCopyablePersistentTraits@VFunctionTemplate@v8@@@2@@Nan@@A@@YAXXZ 00000001800336a0 f   PdfBackend.obj
 0001:000326c0       ??__F?constructor@SvgBackend@@2V?$Persistent@VFunctionTemplate@v8@@V?$NonCopyablePersistentTraits@VFunctionTemplate@v8@@@2@@Nan@@A@@YAXXZ 00000001800336c0 f   SvgBackend.obj
 0001:000326e0       ??__F?constructor@Canvas@@2V?$Persistent@VFunctionTemplate@v8@@V?$NonCopyablePersistentTraits@VFunctionTemplate@v8@@@2@@Nan@@A@@YAXXZ 00000001800336e0 f   Canvas.obj
 0001:00032700       ??__F?_font_face_list@Canvas@@0V?$vector@VFontFace@@V?$allocator@VFontFace@@@std@@@std@@A@@YAXXZ 0000000180033700 f   Canvas.obj
 0001:00032710       ??__F?constructor@Gradient@@2V?$Persistent@VFunctionTemplate@v8@@V?$NonCopyablePersistentTraits@VFunctionTemplate@v8@@@2@@Nan@@A@@YAXXZ 0000000180033710 f   CanvasGradient.obj
 0001:00032730       ??__F?constructor@Pattern@@2V?$Persistent@VFunctionTemplate@v8@@V?$NonCopyablePersistentTraits@VFunctionTemplate@v8@@@2@@Nan@@A@@YAXXZ 0000000180033730 f   CanvasPattern.obj
 0001:00032750       ??__F?constructor@Context2d@@2V?$Persistent@VFunctionTemplate@v8@@V?$NonCopyablePersistentTraits@VFunctionTemplate@v8@@@2@@Nan@@A@@YAXXZ 0000000180033750 f   CanvasRenderingContext2d.obj
 0001:00032770       ??__F?constructor@Image@@2V?$Persistent@VFunctionTemplate@v8@@V?$NonCopyablePersistentTraits@VFunctionTemplate@v8@@@2@@Nan@@A@@YAXXZ 0000000180033770 f   Image.obj
 0001:00032790       ??__F?constructor@ImageData@@2V?$Persistent@VFunctionTemplate@v8@@V?$NonCopyablePersistentTraits@VFunctionTemplate@v8@@@2@@Nan@@A@@YAXXZ 0000000180033790 f   ImageData.obj
 0001:000327a4       ??__Finitlocks@std@@YAXXZ  00000001800337a4 f   libcpmt:xlock.obj
 0001:000327b0       ??__F_Fac_tidy_reg@std@@YAXXZ 00000001800337b0 f   libcpmt:locale0.obj
 0001:000327dc       ??__Fclassic_locale@std@@YAXXZ 00000001800337dc f   libcpmt:locale0.obj
 0001:0003283c       ??__Finit_atexit@@YAXXZ    000000018003383c f   libcpmt:iosptrs.obj
 0001:00032890       ??__Finitlocks@std@@YAXXZ  0000000180033890 f   libcpmt:iosptrs.obj
 0002:00000840       ?initlocks$initializer$@std@@3P6AXXZEA 0000000180034840     libcpmt:xlock.obj
 0002:00000848       ?initlocks$initializer$@std@@3P6AXXZEA 0000000180034848     libcpmt:iosptrs.obj
 0002:00000850       ?init_atexit$initializer$@@3P6AXXZEA 0000000180034850     libcpmt:iosptrs.obj
 0002:00000858       ?_Fac_tidy_reg$initializer$@std@@3P6AXXZEA 0000000180034858     libcpmt:locale0.obj
 0002:00000860       ?classic_locale$initializer$@std@@3P6AXXZEA 0000000180034860     libcpmt:locale0.obj
 0002:00000868       ??constructor$initializer$@ImageBackend@@2P6AXXZEA@@3P6AXXZEA 0000000180034868     ImageBackend.obj
 0002:00000870       ??constructor$initializer$@PdfBackend@@2P6AXXZEA@@3P6AXXZEA 0000000180034870     PdfBackend.obj
 0002:00000878       ??constructor$initializer$@SvgBackend@@2P6AXXZEA@@3P6AXXZEA 0000000180034878     SvgBackend.obj
 0002:00000880       ??constructor$initializer$@Canvas@@2P6AXXZEA@@3P6AXXZEA 0000000180034880     Canvas.obj
 0002:00000888       ??_font_face_list$initializer$@Canvas@@0P6AXXZEA@@3P6AXXZEA 0000000180034888     Canvas.obj
 0002:00000890       ??constructor$initializer$@Gradient@@2P6AXXZEA@@3P6AXXZEA 0000000180034890     CanvasGradient.obj
 0002:00000898       ??constructor$initializer$@Pattern@@2P6AXXZEA@@3P6AXXZEA 0000000180034898     CanvasPattern.obj
 0002:000008a0       ??constructor$initializer$@Context2d@@2P6AXXZEA@@3P6AXXZEA 00000001800348a0     CanvasRenderingContext2d.obj
 0002:000008a8       ??constructor$initializer$@Image@@2P6AXXZEA@@3P6AXXZEA 00000001800348a8     Image.obj
 0002:000008b0       ??constructor$initializer$@ImageData@@2P6AXXZEA@@3P6AXXZEA 00000001800348b0     ImageData.obj
 0002:000008d0       ?pinit@@3P6AHXZEA          00000001800348d0     libcpmt:winapisupp.obj
 0002:000008d8       ?__scrt_initialize_tss_var@@3P6AHXZEA 00000001800348d8     LIBCMT:thread_safe_statics.obj
 0002:00000960       $cppxdata$??_G_Fac_node@std@@QEAAPEAXI@Z 0000000180034960     libcpmt:locale0.obj
 0002:00000988       $cppxdata$??__Fclassic_locale@std@@YAXXZ 0000000180034988     libcpmt:locale0.obj
 0002:00000a60       ?_Win_errtab@std@@3QBU_Win_errtab_t@1@B 0000000180034a60     libcpmt:syserror.obj
 0002:00000cb0       ?_Sys_errtab@std@@3QBU_Sys_errtab_t@1@B 0000000180034cb0     libcpmt:syserror.obj
 0002:00001840       $cppxdata$??__Finit_atexit@@YAXXZ 0000000180035840     libcpmt:iosptrs.obj
 0002:00001c68       digits                     0000000180035c68     libcpmt:xstoul.obj
 0002:00001c90       ndigs                      0000000180035c90     libcpmt:xstoul.obj
 0002:00001cb8       digits                     0000000180035cb8     libcpmt:xstoull.obj
 0002:00001ce0       ndigs                      0000000180035ce0     libcpmt:xstoull.obj
 0002:00002340       ?LcidToLocaleNameTable@@3QBULcidToLocaleName@@B 0000000180036340     libcpmt:winapinls.obj
 0002:00003180       ?LocaleNameToIndexTable@@3QBULocaleNameIndex@@B 0000000180037180     libcpmt:winapinls.obj
 0002:00005068       GS_ExceptionPointers       0000000180039068     LIBCMT:gs_report.obj
 0002:000050e0       ?ExceptionTemplate@?1??_UnwindNestedFrames@@9@4U_EXCEPTION_RECORD@@B 00000001800390e0     libvcruntime:trnsctrl.obj
 0002:00005180       ?ExceptionTemplate@?1??_CxxThrowException@@9@4UEHExceptionRecord@@B 0000000180039180     libvcruntime:throw.obj
 0002:000051c0       ?module_names@?A0x679b24ab@@3QBQEB_WB 00000001800391c0     libvcruntime:winapi_downlevel.obj
 0002:00005290       ?candidate_modules@?1??try_get_FlsAlloc@@YAP6AKP6AXPEAX@Z@ZXZ@4QBW4module_id@?A0x679b24ab@@B 0000000180039290     libvcruntime:winapi_downlevel.obj
 0002:00005298       ?candidate_modules@?1??try_get_FlsFree@@YAP6AHK@ZXZ@4QBW4module_id@?A0x679b24ab@@B 0000000180039298     libvcruntime:winapi_downlevel.obj
 0002:000052a0       ?candidate_modules@?1??try_get_FlsGetValue@@YAP6APEAXK@ZXZ@4QBW4module_id@?A0x679b24ab@@B 00000001800392a0     libvcruntime:winapi_downlevel.obj
 0002:000052a8       ?candidate_modules@?1??try_get_FlsSetValue@@YAP6AHKPEAX@ZXZ@4QBW4module_id@?A0x679b24ab@@B 00000001800392a8     libvcruntime:winapi_downlevel.obj
 0002:000052b0       ?candidate_modules@?1??try_get_InitializeCriticalSectionEx@@YAP6AHPEAU_RTL_CRITICAL_SECTION@@KK@ZXZ@4QBW4module_id@?A0x679b24ab@@B 00000001800392b0     libvcruntime:winapi_downlevel.obj
 0002:000052c0       ?tokenTable@@3QBQEBDB      00000001800392c0     libvcruntime:undname.obj
 0002:00005330       ?nameTable@@3QBQEBDB       0000000180039330     libvcruntime:undname.obj
 0002:000055b8       ?rttiTable@@3QBQEBDB       00000001800395b8     libvcruntime:undname.obj
 0002:000067a0       errtable                   000000018003a7a0     libucrt:errno.obj
 0002:000072e0       __flag_x_one_y_snan        000000018003b2e0     libucrt:pow.obj
 0002:000072e4       __flag_x_zero_z_inf        000000018003b2e4     libucrt:pow.obj
 0002:000072e8       __flag_x_nan               000000018003b2e8     libucrt:pow.obj
 0002:000072ec       __flag_y_nan               000000018003b2ec     libucrt:pow.obj
 0002:000072f0       __flag_x_nan_y_nan         000000018003b2f0     libucrt:pow.obj
 0002:000072f4       __flag_x_neg_y_notint      000000018003b2f4     libucrt:pow.obj
 0002:000072f8       __flag_z_zero              000000018003b2f8     libucrt:pow.obj
 0002:000072fc       __flag_z_denormal          000000018003b2fc     libucrt:pow.obj
 0002:00007300       __flag_z_inf               000000018003b300     libucrt:pow.obj
 0002:00007310       __ay_max_bound             000000018003b310     libucrt:pow.obj
 0002:00007318       __ay_min_bound             000000018003b318     libucrt:pow.obj
 0002:00007320       __sign_mask                000000018003b320     libucrt:pow.obj
 0002:00007328       __sign_and_exp_mask        000000018003b328     libucrt:pow.obj
 0002:00007330       __exp_mask                 000000018003b330     libucrt:pow.obj
 0002:00007338       __neg_inf                  000000018003b338     libucrt:pow.obj
 0002:00007340       __pos_inf                  000000018003b340     libucrt:pow.obj
 0002:00007348       __pos_one                  000000018003b348     libucrt:pow.obj
 0002:00007350       __pos_zero                 000000018003b350     libucrt:pow.obj
 0002:00007358       __exp_mant_mask            000000018003b358     libucrt:pow.obj
 0002:00007360       __mant_mask                000000018003b360     libucrt:pow.obj
 0002:00007368       __ind_pattern              000000018003b368     libucrt:pow.obj
 0002:00007370       __neg_qnan                 000000018003b370     libucrt:pow.obj
 0002:00007378       __qnan                     000000018003b378     libucrt:pow.obj
 0002:00007380       __qnan_set                 000000018003b380     libucrt:pow.obj
 0002:00007388       __neg_one                  000000018003b388     libucrt:pow.obj
 0002:00007390       __neg_zero                 000000018003b390     libucrt:pow.obj
 0002:00007398       __exp_shift                000000018003b398     libucrt:pow.obj
 0002:000073a0       __exp_bias                 000000018003b3a0     libucrt:pow.obj
 0002:000073a8       __exp_bias_m1              000000018003b3a8     libucrt:pow.obj
 0002:000073b0       __yexp_53                  000000018003b3b0     libucrt:pow.obj
 0002:000073b8       __mant_full                000000018003b3b8     libucrt:pow.obj
 0002:000073c0       __1_before_mant            000000018003b3c0     libucrt:pow.obj
 0002:000073c8       __mask_mant_all8           000000018003b3c8     libucrt:pow.obj
 0002:000073d0       __mask_mant9               000000018003b3d0     libucrt:pow.obj
 0002:000073e0       __real_fffffffff8000000    000000018003b3e0     libucrt:pow.obj
 0002:000073f0       __mask_8000000000000000    000000018003b3f0     libucrt:pow.obj
 0002:00007400       __real_4090040000000000    000000018003b400     libucrt:pow.obj
 0002:00007410       __real_C090C80000000000    000000018003b410     libucrt:pow.obj
 0002:00007420       __real_ninf                000000018003b420     libucrt:pow.obj
 0002:00007430       __real_inf                 000000018003b430     libucrt:pow.obj
 0002:00007440       __real_nan                 000000018003b440     libucrt:pow.obj
 0002:00007450       __real_mant                000000018003b450     libucrt:pow.obj
 0002:00007460       __mask_1023                000000018003b460     libucrt:pow.obj
 0002:00007470       __mask_001                 000000018003b470     libucrt:pow.obj
 0002:00007480       __real_log2_lead           000000018003b480     libucrt:pow.obj
 0002:00007490       __real_log2_tail           000000018003b490     libucrt:pow.obj
 0002:000074a0       __real_two                 000000018003b4a0     libucrt:pow.obj
 0002:000074b0       __real_one                 000000018003b4b0     libucrt:pow.obj
 0002:000074c0       __real_half                000000018003b4c0     libucrt:pow.obj
 0002:000074d0       __mask_100                 000000018003b4d0     libucrt:pow.obj
 0002:000074e0       __real_1_over_2            000000018003b4e0     libucrt:pow.obj
 0002:000074f0       __real_1_over_3            000000018003b4f0     libucrt:pow.obj
 0002:00007500       __real_1_over_4            000000018003b500     libucrt:pow.obj
 0002:00007510       __real_1_over_5            000000018003b510     libucrt:pow.obj
 0002:00007520       __real_1_over_6            000000018003b520     libucrt:pow.obj
 0002:00007530       __real_1_over_7            000000018003b530     libucrt:pow.obj
 0002:00007540       __mask_1023_f              000000018003b540     libucrt:pow.obj
 0002:00007550       __mask_2045                000000018003b550     libucrt:pow.obj
 0002:00007560       __real_threshold           000000018003b560     libucrt:pow.obj
 0002:00007570       __real_notsign             000000018003b570     libucrt:pow.obj
 0002:00007580       __log_F_inv_head           000000018003b580     libucrt:pow.obj
 0002:00007d90       __log_F_inv_tail           000000018003bd90     libucrt:pow.obj
 0002:000085a0       __denormal_threshold       000000018003c5a0     libucrt:pow.obj
 0002:000085b0       __enable_almost_inf        000000018003c5b0     libucrt:pow.obj
 0002:000085c0       __real_zero                000000018003c5c0     libucrt:pow.obj
 0002:000085d0       __real_smallest_denormal   000000018003c5d0     libucrt:pow.obj
 0002:000085e0       __denormal_tiny_threshold  000000018003c5e0     libucrt:pow.obj
 0002:000085f0       __real_p65536              000000018003c5f0     libucrt:pow.obj
 0002:00008600       __real_m68800              000000018003c600     libucrt:pow.obj
 0002:00008610       __real_64_by_log2          000000018003c610     libucrt:pow.obj
 0002:00008620       __real_log2_by_64_head     000000018003c620     libucrt:pow.obj
 0002:00008630       __real_log2_by_64_tail     000000018003c630     libucrt:pow.obj
 0002:00008640       __real_1_by_720            000000018003c640     libucrt:pow.obj
 0002:00008650       __real_1_by_120            000000018003c650     libucrt:pow.obj
 0002:00008660       __real_1_by_24             000000018003c660     libucrt:pow.obj
 0002:00008670       __real_1_by_6              000000018003c670     libucrt:pow.obj
 0002:00008680       __real_1_by_2              000000018003c680     libucrt:pow.obj
 0002:00008690       __flag_x_one_y_snan        000000018003c690     libucrt:powf.obj
 0002:00008694       __flag_x_zero_z_inf        000000018003c694     libucrt:powf.obj
 0002:00008698       __flag_x_nan               000000018003c698     libucrt:powf.obj
 0002:0000869c       __flag_y_nan               000000018003c69c     libucrt:powf.obj
 0002:000086a0       __flag_x_nan_y_nan         000000018003c6a0     libucrt:powf.obj
 0002:000086a4       __flag_x_neg_y_notint      000000018003c6a4     libucrt:powf.obj
 0002:000086a8       __flag_z_zero              000000018003c6a8     libucrt:powf.obj
 0002:000086ac       __flag_z_denormal          000000018003c6ac     libucrt:powf.obj
 0002:000086b0       __flag_z_inf               000000018003c6b0     libucrt:powf.obj
 0002:000086b4       L__1_by_3                  000000018003c6b4     libucrt:powf.obj
 0002:000086bc       L__log2                    000000018003c6bc     libucrt:powf.obj
 0002:000086c4       L__max_exp_arg             000000018003c6c4     libucrt:powf.obj
 0002:000086cc       L__min_exp_arg             000000018003c6cc     libucrt:powf.obj
 0002:000086d4       L__real_log2_by_64         000000018003c6d4     libucrt:powf.obj
 0002:000086dc       L__1_by_6                  000000018003c6dc     libucrt:powf.obj
 0002:000086e4       L__real_threshold          000000018003c6e4     libucrt:powf.obj
 0002:000086ec       L__real_one                000000018003c6ec     libucrt:powf.obj
 0002:000086f4       L__real_two                000000018003c6f4     libucrt:powf.obj
 0002:000086fc       L__neg_zero                000000018003c6fc     libucrt:powf.obj
 0002:00008710       L__real_ca42               000000018003c710     libucrt:powf.obj
 0002:00008718       L__real_ca4                000000018003c718     libucrt:powf.obj
 0002:00008720       L__real_ca31               000000018003c720     libucrt:powf.obj
 0002:00008728       L__real_ca3                000000018003c728     libucrt:powf.obj
 0002:00008730       L__clear_sign              000000018003c730     libucrt:powf.obj
 0002:00008740       L__real_64_by_log2         000000018003c740     libucrt:powf.obj
 0002:00008750       L__1_by_2                  000000018003c750     libucrt:powf.obj
 0002:00008760       L__1023                    000000018003c760     libucrt:powf.obj
 0002:00008770       L__xexp_bits_xmantissa_bits 000000018003c770     libucrt:powf.obj
 0002:00009090       __acrt_initializers        000000018003d090     libucrt:initialization.obj
 0002:00009180       module_names               000000018003d180     libucrt:winapi_thunks.obj
 0002:000096b0       ?candidate_modules@?1??try_get_AreFileApisANSI@@YAP6AHXZXZ@4QBW4module_id@?A0x63058377@@B 000000018003d6b0     libucrt:winapi_thunks.obj
 0002:000096c8       ?candidate_modules@?1??try_get_FlsAlloc@@YAP6AKP6AXPEAX@Z@ZXZ@4QBW4module_id@?A0x63058377@@B 000000018003d6c8     libucrt:winapi_thunks.obj
 0002:000096d0       ?candidate_modules@?1??try_get_FlsFree@@YAP6AHK@ZXZ@4QBW4module_id@?A0x63058377@@B 000000018003d6d0     libucrt:winapi_thunks.obj
 0002:000096d8       ?candidate_modules@?1??try_get_FlsGetValue@@YAP6APEAXK@ZXZ@4QBW4module_id@?A0x63058377@@B 000000018003d6d8     libucrt:winapi_thunks.obj
 0002:000096e0       ?candidate_modules@?1??try_get_FlsSetValue@@YAP6AHKPEAX@ZXZ@4QBW4module_id@?A0x63058377@@B 000000018003d6e0     libucrt:winapi_thunks.obj
 0002:000096e8       ?candidate_modules@?1??try_get_GetActiveWindow@@YAP6APEAUHWND__@@XZXZ@4QBW4module_id@?A0x63058377@@B 000000018003d6e8     libucrt:winapi_thunks.obj
 0002:00009700       ?candidate_modules@?1??try_get_GetCurrentPackageId@@YAP6AJPEAIPEAE@ZXZ@4QBW4module_id@?A0x63058377@@B 000000018003d700     libucrt:winapi_thunks.obj
 0002:00009708       ?candidate_modules@?1??try_get_GetLastActivePopup@@YAP6APEAUHWND__@@PEAU2@@ZXZ@4QBW4module_id@?A0x63058377@@B 000000018003d708     libucrt:winapi_thunks.obj
 0002:00009728       ?candidate_modules@?1??try_get_GetProcessWindowStation@@YAP6APEAUHWINSTA__@@XZXZ@4QBW4module_id@?A0x63058377@@B 000000018003d728     libucrt:winapi_thunks.obj
 0002:00009748       ?candidate_modules@?1??try_get_GetUserObjectInformationW@@YAP6AHPEAXH0KPEAK@ZXZ@4QBW4module_id@?A0x63058377@@B 000000018003d748     libucrt:winapi_thunks.obj
 0002:00009770       ?candidate_modules@?1??try_get_InitializeCriticalSectionEx@@YAP6AHPEAU_RTL_CRITICAL_SECTION@@KK@ZXZ@4QBW4module_id@?A0x63058377@@B 000000018003d770     libucrt:winapi_thunks.obj
 0002:00009778       ?candidate_modules@?1??try_get_LCMapStringEx@@YAP6AHPEB_WK0HPEA_WHPEAU_nlsversioninfo@@PEAX_J@ZXZ@4QBW4module_id@?A0x63058377@@B 000000018003d778     libucrt:winapi_thunks.obj
 0002:00009780       ?candidate_modules@?1??try_get_LocaleNameToLCID@@YAP6AKPEB_WK@ZXZ@4QBW4module_id@?A0x63058377@@B 000000018003d780     libucrt:winapi_thunks.obj
 0002:000097a0       ?candidate_modules@?1??try_get_MessageBoxA@@YAP6AHPEAUHWND__@@PEBD1I@ZXZ@4QBW4module_id@?A0x63058377@@B 000000018003d7a0     libucrt:winapi_thunks.obj
 0002:000097b8       ?candidate_modules@?1??try_get_MessageBoxW@@YAP6AHPEAUHWND__@@PEB_W1I@ZXZ@4QBW4module_id@?A0x63058377@@B 000000018003d7b8     libucrt:winapi_thunks.obj
 0002:0000bd10       _mb_locale_names           000000018003fd10     libucrt:mbctype.obj
 0002:0000bd30       LcidToLocaleNameTable      000000018003fd30     libucrt:lcidtoname_downlevel.obj
 0002:0000cb70       LocaleNameToIndexTable     0000000180040b70     libucrt:lcidtoname_downlevel.obj
 0002:0000d9d0       __real@433fffffffffffff    00000001800419d0     libucrt:fpsr.obj
 0002:0000d9d8       __real@c33fffffffffffff    00000001800419d8     libucrt:fpsr.obj
 0002:0000d9e0       __real_ninf                00000001800419e0     libucrt:log10.obj
 0002:0000d9f0       __real_inf                 00000001800419f0     libucrt:log10.obj
 0002:0000da00       __real_neg_qnan            0000000180041a00     libucrt:log10.obj
 0002:0000da10       __real_qnanbit             0000000180041a10     libucrt:log10.obj
 0002:0000da20       __int_1023                 0000000180041a20     libucrt:log10.obj
 0002:0000da30       __mask_001                 0000000180041a30     libucrt:log10.obj
 0002:0000da40       __mask_mant                0000000180041a40     libucrt:log10.obj
 0002:0000da50       __mask_mant_top8           0000000180041a50     libucrt:log10.obj
 0002:0000da60       __mask_mant9               0000000180041a60     libucrt:log10.obj
 0002:0000da70       __real_log10_e             0000000180041a70     libucrt:log10.obj
 0002:0000da80       __real_log10_e_lead        0000000180041a80     libucrt:log10.obj
 0002:0000da90       __real_log10_e_tail        0000000180041a90     libucrt:log10.obj
 0002:0000daa0       __real_log10_2_lead        0000000180041aa0     libucrt:log10.obj
 0002:0000dab0       __real_log10_2_tail        0000000180041ab0     libucrt:log10.obj
 0002:0000dac0       __real_two                 0000000180041ac0     libucrt:log10.obj
 0002:0000dad0       __real_one                 0000000180041ad0     libucrt:log10.obj
 0002:0000dae0       __real_half                0000000180041ae0     libucrt:log10.obj
 0002:0000daf0       __mask_100                 0000000180041af0     libucrt:log10.obj
 0002:0000db00       __real_1_over_512          0000000180041b00     libucrt:log10.obj
 0002:0000db10       __real_1_over_2            0000000180041b10     libucrt:log10.obj
 0002:0000db20       __real_1_over_3            0000000180041b20     libucrt:log10.obj
 0002:0000db30       __real_1_over_4            0000000180041b30     libucrt:log10.obj
 0002:0000db40       __real_1_over_5            0000000180041b40     libucrt:log10.obj
 0002:0000db50       __real_1_over_6            0000000180041b50     libucrt:log10.obj
 0002:0000db60       __real_neg_1023            0000000180041b60     libucrt:log10.obj
 0002:0000db70       __mask_2045                0000000180041b70     libucrt:log10.obj
 0002:0000db80       __real_threshold           0000000180041b80     libucrt:log10.obj
 0002:0000db90       __real_near_one_lt         0000000180041b90     libucrt:log10.obj
 0002:0000dba0       __real_near_one_gt         0000000180041ba0     libucrt:log10.obj
 0002:0000dbb0       __real_min_norm            0000000180041bb0     libucrt:log10.obj
 0002:0000dbc0       __real_notsign             0000000180041bc0     libucrt:log10.obj
 0002:0000dbd0       __real_ca1                 0000000180041bd0     libucrt:log10.obj
 0002:0000dbe0       __real_ca2                 0000000180041be0     libucrt:log10.obj
 0002:0000dbf0       __real_ca3                 0000000180041bf0     libucrt:log10.obj
 0002:0000dc00       __real_ca4                 0000000180041c00     libucrt:log10.obj
 0002:0000dc10       __mask_lower               0000000180041c10     libucrt:log10.obj
 0002:0000dc20       __flag_x_zero              0000000180041c20     libucrt:log10.obj
 0002:0000dc24       __flag_x_neg               0000000180041c24     libucrt:log10.obj
 0002:0000dc28       __flag_x_nan               0000000180041c28     libucrt:log10.obj
 0002:00010ab0       ?named_colors@@3PAUnamed_color@@A 0000000180044ab0     color.obj
 0002:00011640       $cppxdata$??0Backend@@IEAA@V?$basic_string@DU?$char_traits@D@std@@V?$allocator@D@2@@std@@HH@Z 0000000180045640     Backend.obj
 0002:00011668       $cppxdata$??1ObjectWrap@Nan@@UEAA@XZ 0000000180045668     Backend.obj
 0002:00011780       $cppxdata$?New@ImageBackend@@SAXAEBV?$FunctionCallbackInfo@VValue@v8@@@Nan@@@Z 0000000180045780     ImageBackend.obj
 0002:000117a8       $cppxdata$?Initialize@ImageBackend@@SAXV?$Local@VObject@v8@@@v8@@@Z 00000001800457a8     ImageBackend.obj
 0002:000117d0       $cppxdata$??__F?constructor@ImageBackend@@2V?$Persistent@VFunctionTemplate@v8@@V?$NonCopyablePersistentTraits@VFunctionTemplate@v8@@@2@@Nan@@A@@YAXXZ 00000001800457d0     ImageBackend.obj
 0002:000117f8       $cppxdata$??1ImageBackend@@UEAA@XZ 00000001800457f8     ImageBackend.obj
 0002:00011820       $cppxdata$?New@?$Factory@VFunctionTemplate@v8@@@imp@Nan@@SA?AV?$Local@VFunctionTemplate@v8@@@v8@@P6AXAEBV?$FunctionCallbackInfo@VValue@v8@@@3@@ZV?$Local@VValue@v8@@@5@V?$Local@VSignature@v8@@@5@@Z 0000000180045820     ImageBackend.obj
 0002:00011848       $cppxdata$?NewInstance@Nan@@YA?AV?$MaybeLocal@VObject@v8@@@v8@@V?$Local@VObjectTemplate@v8@@@3@@Z 0000000180045848     ImageBackend.obj
 0002:00011870       $cppxdata$?New@PdfBackend@@SAXAEBV?$FunctionCallbackInfo@VValue@v8@@@Nan@@@Z 0000000180045870     PdfBackend.obj
 0002:00011898       $cppxdata$?Initialize@PdfBackend@@SAXV?$Local@VObject@v8@@@v8@@@Z 0000000180045898     PdfBackend.obj
 0002:000118c0       $cppxdata$??__F?constructor@PdfBackend@@2V?$Persistent@VFunctionTemplate@v8@@V?$NonCopyablePersistentTraits@VFunctionTemplate@v8@@@2@@Nan@@A@@YAXXZ 00000001800458c0     PdfBackend.obj
 0002:000118e8       $cppxdata$??1PdfBackend@@UEAA@XZ 00000001800458e8     PdfBackend.obj
 0002:00011910       $cppxdata$?New@SvgBackend@@SAXAEBV?$FunctionCallbackInfo@VValue@v8@@@Nan@@@Z 0000000180045910     SvgBackend.obj
 0002:00011938       $cppxdata$?Initialize@SvgBackend@@SAXV?$Local@VObject@v8@@@v8@@@Z 0000000180045938     SvgBackend.obj
 0002:00011960       $cppxdata$??__F?constructor@SvgBackend@@2V?$Persistent@VFunctionTemplate@v8@@V?$NonCopyablePersistentTraits@VFunctionTemplate@v8@@@2@@Nan@@A@@YAXXZ 0000000180045960     SvgBackend.obj
 0002:00011988       $cppxdata$??1SvgBackend@@UEAA@XZ 0000000180045988     SvgBackend.obj
 0002:000119b0       $cppxdata$?Initialize@Backends@@SAXV?$Local@VObject@v8@@@v8@@@Z 00000001800459b0     Backends.obj
 0002:000119d8       $cppxdata$??$SetMethod@VFunctionTemplate@v8@@VLocal@2@@Nan@@YAXV?$Local@VFunctionTemplate@v8@@@v8@@PEBDP6AXAEBV?$FunctionCallbackInfo@VValue@v8@@@0@@Z@Z 00000001800459d8     Canvas.obj
 0002:00011a00       $cppxdata$??$New@VString@v8@@V?$basic_string@DU?$char_traits@D@std@@V?$allocator@D@2@@std@@@Nan@@YA?AV?$MaybeLocal@VString@v8@@@v8@@V?$basic_string@DU?$char_traits@D@std@@V?$allocator@D@2@@std@@@Z 0000000180045a00     Canvas.obj
 0002:00011a28       $cppxdata$??0?$TypedArrayContents@E@Nan@@QEAA@V?$Local@VValue@v8@@@v8@@@Z 0000000180045a28     Canvas.obj
 0002:00011a50       $cppxdata$?resurface@Canvas@@QEAAXV?$Local@VObject@v8@@@v8@@@Z 0000000180045a50     Canvas.obj
 0002:00011a78       $cppxdata$?RegisterFont@Canvas@@SAXAEBV?$FunctionCallbackInfo@VValue@v8@@@Nan@@@Z 0000000180045a78     Canvas.obj
 0002:00011aa0       $cppxdata$?StreamPDFSync@Canvas@@SAXAEBV?$FunctionCallbackInfo@VValue@v8@@@Nan@@@Z 0000000180045aa0     Canvas.obj
 0002:00011ac8       $cppxdata$?streamPDF@@YA?AW4_cairo_status@@PEAXPEBEI@Z 0000000180045ac8     Canvas.obj
 0002:00011af0       $cppxdata$?StreamPNGSync@Canvas@@SAXAEBV?$FunctionCallbackInfo@VValue@v8@@@Nan@@@Z 0000000180045af0     Canvas.obj
 0002:00011b18       $cppxdata$?streamPNG@@YA?AW4_cairo_status@@PEAXPEBEI@Z 0000000180045b18     Canvas.obj
 0002:00011b40       $cppxdata$?ToBuffer@Canvas@@SAXAEBV?$FunctionCallbackInfo@VValue@v8@@@Nan@@@Z 0000000180045b40     Canvas.obj
 0002:00011b68       $cppxdata$?ToBufferAsyncAfter@Canvas@@SAXPEAUuv_work_s@@@Z 0000000180045b68     Canvas.obj
 0002:00011b90       $cppxdata$?New@Canvas@@SAXAEBV?$FunctionCallbackInfo@VValue@v8@@@Nan@@@Z 0000000180045b90     Canvas.obj
 0002:00011bb8       $cppxdata$?Initialize@Canvas@@SAXV?$Local@VObject@v8@@@v8@@@Z 0000000180045bb8     Canvas.obj
 0002:00011be0       $cppxdata$??__F?constructor@Canvas@@2V?$Persistent@VFunctionTemplate@v8@@V?$NonCopyablePersistentTraits@VFunctionTemplate@v8@@@2@@Nan@@A@@YAXXZ 0000000180045be0     Canvas.obj
 0002:00011c08       $cppxdata$?SetAccessor@Nan@@YAXV?$Local@VObjectTemplate@v8@@@v8@@V?$Local@VString@v8@@@3@P6AX1AEBV?$PropertyCallbackInfo@VValue@v8@@@1@@ZP6AX1V?$Local@VValue@v8@@@3@AEBV?$PropertyCallbackInfo@X@1@@Z4W4AccessControl@3@W4PropertyAttribute@3@V?$Local@VAccessorSignature@v8@@@3@@Z 0000000180045c08     Canvas.obj
 0002:00011c30       $cppxdata$?SetPrototypeMethod@Nan@@YAXV?$Local@VFunctionTemplate@v8@@@v8@@PEBDP6AXAEBV?$FunctionCallbackInfo@VValue@v8@@@1@@Z@Z 0000000180045c30     Canvas.obj
 0002:00011c58       $cppxdata$?Call_@Callback@Nan@@AEBA?AV?$Local@VValue@v8@@@v8@@PEAVIsolate@4@V?$Local@VObject@v8@@@4@HQEAV34@@Z 0000000180045c58     Canvas.obj
 0002:00011c80       $cppxdata$?Call@Callback@Nan@@QEBA?AV?$Local@VValue@v8@@@v8@@HQEAV34@@Z 0000000180045c80     Canvas.obj
 0002:00011ca8       $cppxdata$?ThrowTypeError@Nan@@YAXPEBD@Z 0000000180045ca8     Canvas.obj
 0002:00011cd0       $cppxdata$?ThrowRangeError@Nan@@YAXPEBD@Z 0000000180045cd0     Canvas.obj
 0002:00011cf8       $cppxdata$?ThrowError@Nan@@YAXPEBD@Z 0000000180045cf8     Canvas.obj
 0002:00011d20       $cppxdata$?convert@?$ToFactory@VUint32@v8@@@imp@Nan@@SA?AV?$MaybeLocal@VUint32@v8@@@v8@@V?$Local@VValue@v8@@@5@@Z 0000000180045d20     Canvas.obj
 0002:00011d48       $cppxdata$?Call@Nan@@YA?AV?$MaybeLocal@VValue@v8@@@v8@@V?$Local@VFunction@v8@@@3@V?$Local@VObject@v8@@@3@HQEAV?$Local@VValue@v8@@@3@@Z 0000000180045d48     Canvas.obj
 0002:00011d70       $cppxdata$?Set@Nan@@YA?AV?$Maybe@_N@v8@@V?$Local@VObject@v8@@@3@V?$Local@VValue@v8@@@3@1@Z 0000000180045d70     Canvas.obj
 0002:00011d98       $cppxdata$?AddColorStop@Gradient@@SAXAEBV?$FunctionCallbackInfo@VValue@v8@@@Nan@@@Z 0000000180045d98     CanvasGradient.obj
 0002:00011dc0       $cppxdata$?New@Gradient@@SAXAEBV?$FunctionCallbackInfo@VValue@v8@@@Nan@@@Z 0000000180045dc0     CanvasGradient.obj
 0002:00011de8       $cppxdata$?Initialize@Gradient@@SAXV?$Local@VObject@v8@@@v8@@@Z 0000000180045de8     CanvasGradient.obj
 0002:00011e10       $cppxdata$??__F?constructor@Gradient@@2V?$Persistent@VFunctionTemplate@v8@@V?$NonCopyablePersistentTraits@VFunctionTemplate@v8@@@2@@Nan@@A@@YAXXZ 0000000180045e10     CanvasGradient.obj
 0002:00011e38       $cppxdata$?Initialize@Pattern@@SAXV?$Local@VObject@v8@@@v8@@@Z 0000000180045e38     CanvasPattern.obj
 0002:00011e60       $cppxdata$??__F?constructor@Pattern@@2V?$Persistent@VFunctionTemplate@v8@@V?$NonCopyablePersistentTraits@VFunctionTemplate@v8@@@2@@Nan@@A@@YAXXZ 0000000180045e60     CanvasPattern.obj
 0002:00011e88       $cppxdata$??0?$TypedArrayContents@N@Nan@@QEAA@V?$Local@VValue@v8@@@v8@@@Z 0000000180045e88     CanvasRenderingContext2d.obj
 0002:00011eb0       $cppxdata$?GetLineDash@Context2d@@SAXAEBV?$FunctionCallbackInfo@VValue@v8@@@Nan@@@Z 0000000180045eb0     CanvasRenderingContext2d.obj
 0002:00011ed8       $cppxdata$?SetLineDash@Context2d@@SAXAEBV?$FunctionCallbackInfo@VValue@v8@@@Nan@@@Z 0000000180045ed8     CanvasRenderingContext2d.obj
 0002:00011f00       $cppxdata$?MeasureText@Context2d@@SAXAEBV?$FunctionCallbackInfo@VValue@v8@@@Nan@@@Z 0000000180045f00     CanvasRenderingContext2d.obj
 0002:00011f28       $cppxdata$?SetFont@Context2d@@SAXAEBV?$FunctionCallbackInfo@VValue@v8@@@Nan@@@Z 0000000180045f28     CanvasRenderingContext2d.obj
 0002:00011f50       $cppxdata$?StrokeText@Context2d@@SAXAEBV?$FunctionCallbackInfo@VValue@v8@@@Nan@@@Z 0000000180045f50     CanvasRenderingContext2d.obj
 0002:00011f78       $cppxdata$?FillText@Context2d@@SAXAEBV?$FunctionCallbackInfo@VValue@v8@@@Nan@@@Z 0000000180045f78     CanvasRenderingContext2d.obj
 0002:00011fa0       $cppxdata$?SetStrokeColor@Context2d@@SAXAEBV?$FunctionCallbackInfo@VValue@v8@@@Nan@@@Z 0000000180045fa0     CanvasRenderingContext2d.obj
 0002:00011fc8       $cppxdata$?SetFillColor@Context2d@@SAXAEBV?$FunctionCallbackInfo@VValue@v8@@@Nan@@@Z 0000000180045fc8     CanvasRenderingContext2d.obj
 0002:00011ff0       $cppxdata$?SetShadowColor@Context2d@@SAXV?$Local@VString@v8@@@v8@@V?$Local@VValue@v8@@@3@AEBV?$PropertyCallbackInfo@X@Nan@@@Z 0000000180045ff0     CanvasRenderingContext2d.obj
 0002:00012018       $cppxdata$?SetFilter@Context2d@@SAXV?$Local@VString@v8@@@v8@@V?$Local@VValue@v8@@@3@AEBV?$PropertyCallbackInfo@X@Nan@@@Z 0000000180046018     CanvasRenderingContext2d.obj
 0002:00012040       $cppxdata$?SetTextDrawingMode@Context2d@@SAXV?$Local@VString@v8@@@v8@@V?$Local@VValue@v8@@@3@AEBV?$PropertyCallbackInfo@X@Nan@@@Z 0000000180046040     CanvasRenderingContext2d.obj
 0002:00012068       $cppxdata$?SetAntiAlias@Context2d@@SAXV?$Local@VString@v8@@@v8@@V?$Local@VValue@v8@@@3@AEBV?$PropertyCallbackInfo@X@Nan@@@Z 0000000180046068     CanvasRenderingContext2d.obj
 0002:00012090       $cppxdata$?GetFormat@Context2d@@SAXV?$Local@VString@v8@@@v8@@AEBV?$PropertyCallbackInfo@VValue@v8@@@Nan@@@Z 0000000180046090     CanvasRenderingContext2d.obj
 0002:000120b8       $cppxdata$?New@Context2d@@SAXAEBV?$FunctionCallbackInfo@VValue@v8@@@Nan@@@Z 00000001800460b8     CanvasRenderingContext2d.obj
 0002:000120e0       $cppxdata$??0Context2d@@QEAA@PEAVCanvas@@@Z 00000001800460e0     CanvasRenderingContext2d.obj
 0002:00012108       $cppxdata$?Initialize@Context2d@@SAXV?$Local@VObject@v8@@@v8@@@Z 0000000180046108     CanvasRenderingContext2d.obj
 0002:00012130       $cppxdata$??__F?constructor@Context2d@@2V?$Persistent@VFunctionTemplate@v8@@V?$NonCopyablePersistentTraits@VFunctionTemplate@v8@@@2@@Nan@@A@@YAXXZ 0000000180046130     CanvasRenderingContext2d.obj
 0002:00012158       $cppxdata$?convert@?$ToFactory@VInt32@v8@@@imp@Nan@@SA?AV?$MaybeLocal@VInt32@v8@@@v8@@V?$Local@VValue@v8@@@5@@Z 0000000180046158     CanvasRenderingContext2d.obj
 0002:00012180       $cppxdata$?GetFunction@Nan@@YA?AV?$MaybeLocal@VFunction@v8@@@v8@@V?$Local@VFunctionTemplate@v8@@@3@@Z 0000000180046180     CanvasRenderingContext2d.obj
 0002:000121a8       $cppxdata$?NewInstance@Nan@@YA?AV?$MaybeLocal@VObject@v8@@@v8@@V?$Local@VFunction@v8@@@3@HQEAV?$Local@VValue@v8@@@3@@Z 00000001800461a8     CanvasRenderingContext2d.obj
 0002:000121d0       $cppxdata$?loaded@Image@@QEAAXXZ 00000001800461d0     Image.obj
 0002:000121f8       $cppxdata$??_GImage@@EEAAPEAXI@Z 00000001800461f8     Image.obj
 0002:00012220       $cppxdata$?Initialize@Image@@SAXV?$Local@VObject@v8@@@v8@@@Z 0000000180046220     Image.obj
 0002:00012248       $cppxdata$??__F?constructor@Image@@2V?$Persistent@VFunctionTemplate@v8@@V?$NonCopyablePersistentTraits@VFunctionTemplate@v8@@@2@@Nan@@A@@YAXXZ 0000000180046248     Image.obj
 0002:00012270       $cppxdata$?Initialize@ImageData@@SAXV?$Local@VObject@v8@@@v8@@@Z 0000000180046270     ImageData.obj
 0002:00012298       $cppxdata$??__F?constructor@ImageData@@2V?$Persistent@VFunctionTemplate@v8@@V?$NonCopyablePersistentTraits@VFunctionTemplate@v8@@@2@@Nan@@A@@YAXXZ 0000000180046298     ImageData.obj
 0002:00012370       L_signbit                  0000000180046370     libucrt:tan.obj
 0002:00012380       L_sign_mask                0000000180046380     libucrt:tan.obj
 0002:00012390       L_int_one                  0000000180046390     libucrt:tan.obj
 0002:000123a0       L_twobypi                  00000001800463a0     libucrt:tan.obj
 0002:000123b0       L_point_333                00000001800463b0     libucrt:tan.obj
 0002:000123c0       L_tan_p0                   00000001800463c0     libucrt:tan.obj
 0002:000123d0       L_tan_p2                   00000001800463d0     libucrt:tan.obj
 0002:000123e0       L_tan_p4                   00000001800463e0     libucrt:tan.obj
 0002:000123f0       L_tan_q0                   00000001800463f0     libucrt:tan.obj
 0002:00012400       L_tan_q2                   0000000180046400     libucrt:tan.obj
 0002:00012410       L_tan_q4                   0000000180046410     libucrt:tan.obj
 0002:00012420       L_tan_q6                   0000000180046420     libucrt:tan.obj
 0002:00012430       L_half_mask                0000000180046430     libucrt:tan.obj
 0002:00012440       L_piby4_lead               0000000180046440     libucrt:tan.obj
 0002:00012450       L_piby4_tail               0000000180046450     libucrt:tan.obj
 0002:00012460       L_piby2_1                  0000000180046460     libucrt:tan.obj
 0002:00012468       L_piby2_1tail              0000000180046468     libucrt:tan.obj
 0002:00012470       L_piby2_2                  0000000180046470     libucrt:tan.obj
 0002:00012478       L_piby2_2tail              0000000180046478     libucrt:tan.obj
 0002:00012480       L_piby2_3                  0000000180046480     libucrt:tan.obj
 0002:00012488       L_piby2_3tail              0000000180046488     libucrt:tan.obj
 0002:00012490       L_two_to_neg_27            0000000180046490     libucrt:tan.obj
 0002:00012498       L_two_to_neg_13            0000000180046498     libucrt:tan.obj
 0002:000124a0       L_inf_mask_64              00000001800464a0     libucrt:tan.obj
 0002:000124a8       L_point_five               00000001800464a8     libucrt:tan.obj
 0002:000124b0       L_point_68                 00000001800464b0     libucrt:tan.obj
 0002:000124b8       L_n_point_68               00000001800464b8     libucrt:tan.obj
 0002:000124c0       L_zero                     00000001800464c0     libucrt:tan.obj
 0002:000124c8       L_one                      00000001800464c8     libucrt:tan.obj
 0002:000124d0       L_n_one                    00000001800464d0     libucrt:tan.obj
 0002:000124d8       L_two                      00000001800464d8     libucrt:tan.obj
 0002:000124e0       L_near_one                 00000001800464e0     libucrt:tan.obj
 0002:000124e8       L_moderate_arg_cw          00000001800464e8     libucrt:tan.obj
 0002:000124f0       L_moderate_arg_bdl         00000001800464f0     libucrt:tan.obj
 0002:00012500       L_piby2_lead               0000000180046500     libucrt:remainder_piby2_forfma3.obj
 0002:00012510       L_fff800                   0000000180046510     libucrt:remainder_piby2_forfma3.obj
 0002:00012520       L_piby2_part1              0000000180046520     libucrt:remainder_piby2_forfma3.obj
 0002:00012530       L_piby2_part2              0000000180046530     libucrt:remainder_piby2_forfma3.obj
 0002:00012540       L_piby2_part3              0000000180046540     libucrt:remainder_piby2_forfma3.obj
 0002:00012550       L_piby2_1                  0000000180046550     libucrt:remainder_piby2_forfma3.obj
 0002:00012560       L_piby2_2                  0000000180046560     libucrt:remainder_piby2_forfma3.obj
 0002:00012570       L_piby2_3                  0000000180046570     libucrt:remainder_piby2_forfma3.obj
 0002:00012580       L_piby2_1tail              0000000180046580     libucrt:remainder_piby2_forfma3.obj
 0002:00012590       L_piby2_2tail              0000000180046590     libucrt:remainder_piby2_forfma3.obj
 0002:000125a0       L_piby2_3tail              00000001800465a0     libucrt:remainder_piby2_forfma3.obj
 0002:000125b0       L_sign_mask                00000001800465b0     libucrt:remainder_piby2_forfma3.obj
 0002:000125c0       L_twobypi                  00000001800465c0     libucrt:remainder_piby2_forfma3.obj
 0002:000125d0       L_point_five               00000001800465d0     libucrt:remainder_piby2_forfma3.obj
 0002:000125e0       L_int_three                00000001800465e0     libucrt:remainder_piby2_forfma3.obj
 0002:000125f0       L_inf_mask_64              00000001800465f0     libucrt:remainder_piby2_forfma3.obj
 0002:00012600       L_signbit                  0000000180046600     libucrt:remainder_piby2_forfma3.obj
 0002:00012610       L_r                        0000000180046610     libucrt:remainder_piby2_forfma3.obj
 0002:00012620       L_xc1                      0000000180046620     libucrt:remainder_piby2_forfma3.obj
 0002:00012630       L_xc2                      0000000180046630     libucrt:remainder_piby2_forfma3.obj
 0002:00012640       L_xc3                      0000000180046640     libucrt:remainder_piby2_forfma3.obj
 0002:00012650       L_sigma                    0000000180046650     libucrt:remainder_piby2_forfma3.obj
 0002:00012660       L__piby2_part3_piby2_lead  0000000180046660     libucrt:remainder_piby2_forasm.obj
 0002:00012670       L__piby2_part1             0000000180046670     libucrt:remainder_piby2_forasm.obj
 0002:00012680       L__piby2_part2             0000000180046680     libucrt:remainder_piby2_forasm.obj
 0002:00012690       L_piby2_1                  0000000180046690     libucrt:remainder_piby2_forasm.obj
 0002:000126a0       L_piby2_2                  00000001800466a0     libucrt:remainder_piby2_forasm.obj
 0002:000126b0       L_piby2_3                  00000001800466b0     libucrt:remainder_piby2_forasm.obj
 0002:000126c0       L_piby2_1tail              00000001800466c0     libucrt:remainder_piby2_forasm.obj
 0002:000126d0       L_piby2_2tail              00000001800466d0     libucrt:remainder_piby2_forasm.obj
 0002:000126e0       L_piby2_3tail              00000001800466e0     libucrt:remainder_piby2_forasm.obj
 0002:000126f0       L_twobypi                  00000001800466f0     libucrt:remainder_piby2_forasm.obj
 0002:00012700       L_point_five               0000000180046700     libucrt:remainder_piby2_forasm.obj
 0002:00012710       L_int_three                0000000180046710     libucrt:remainder_piby2_forasm.obj
 0002:00012720       L_inf_mask_64              0000000180046720     libucrt:remainder_piby2_forasm.obj
 0002:00012730       L_signbit                  0000000180046730     libucrt:remainder_piby2_forasm.obj
 0002:00012740       L_int_1                    0000000180046740     libucrt:remainder_piby2_forasm.obj
 0002:00012750       L_int_15                   0000000180046750     libucrt:remainder_piby2_forasm.obj
 0002:00012758       L_int_48                   0000000180046758     libucrt:remainder_piby2_forasm.obj
 0002:00012760       L_3pio4                    0000000180046760     libucrt:remainder_piby2_forasm.obj
 0002:00012768       L_5pio4                    0000000180046768     libucrt:remainder_piby2_forasm.obj
 0002:00012770       L_7pio4                    0000000180046770     libucrt:remainder_piby2_forasm.obj
 0002:00012778       L_9pio4                    0000000180046778     libucrt:remainder_piby2_forasm.obj
 0002:00012780       L__2_by_pi_bits            0000000180046780     libucrt:remainder_piby2_forasm.obj
 0002:00013210       $unwind$??1ObjectWrap@Nan@@UEAA@XZ 0000000180047210     Backend.obj
 0002:00013220       $stateUnwindMap$??__F?constructor@SvgBackend@@2V?$Persistent@VFunctionTemplate@v8@@V?$NonCopyablePersistentTraits@VFunctionTemplate@v8@@@2@@Nan@@A@@YAXXZ 0000000180047220     SvgBackend.obj
 0002:00013220       $stateUnwindMap$??1ObjectWrap@Nan@@UEAA@XZ 0000000180047220     Backend.obj
 0002:00013220       $stateUnwindMap$??__F?constructor@PdfBackend@@2V?$Persistent@VFunctionTemplate@v8@@V?$NonCopyablePersistentTraits@VFunctionTemplate@v8@@@2@@Nan@@A@@YAXXZ 0000000180047220     PdfBackend.obj
 0002:00013220       $stateUnwindMap$??__F?constructor@ImageBackend@@2V?$Persistent@VFunctionTemplate@v8@@V?$NonCopyablePersistentTraits@VFunctionTemplate@v8@@@2@@Nan@@A@@YAXXZ 0000000180047220     ImageBackend.obj
 0002:00013220       $stateUnwindMap$??__F?constructor@Gradient@@2V?$Persistent@VFunctionTemplate@v8@@V?$NonCopyablePersistentTraits@VFunctionTemplate@v8@@@2@@Nan@@A@@YAXXZ 0000000180047220     CanvasGradient.obj
 0002:00013220       $stateUnwindMap$??__Fclassic_locale@std@@YAXXZ 0000000180047220     libcpmt:locale0.obj
 0002:00013220       $stateUnwindMap$??__F?constructor@Canvas@@2V?$Persistent@VFunctionTemplate@v8@@V?$NonCopyablePersistentTraits@VFunctionTemplate@v8@@@2@@Nan@@A@@YAXXZ 0000000180047220     Canvas.obj
 0002:00013220       $stateUnwindMap$??__Finit_atexit@@YAXXZ 0000000180047220     libcpmt:iosptrs.obj
 0002:00013220       $stateUnwindMap$??_GImage@@EEAAPEAXI@Z 0000000180047220     Image.obj
 0002:00013220       $stateUnwindMap$??_G_Fac_node@std@@QEAAPEAXI@Z 0000000180047220     libcpmt:locale0.obj
 0002:00013220       $stateUnwindMap$??__F?constructor@ImageData@@2V?$Persistent@VFunctionTemplate@v8@@V?$NonCopyablePersistentTraits@VFunctionTemplate@v8@@@2@@Nan@@A@@YAXXZ 0000000180047220     ImageData.obj
 0002:00013220       $stateUnwindMap$??__F?constructor@Pattern@@2V?$Persistent@VFunctionTemplate@v8@@V?$NonCopyablePersistentTraits@VFunctionTemplate@v8@@@2@@Nan@@A@@YAXXZ 0000000180047220     CanvasPattern.obj
 0002:00013220       $stateUnwindMap$??__F?constructor@Context2d@@2V?$Persistent@VFunctionTemplate@v8@@V?$NonCopyablePersistentTraits@VFunctionTemplate@v8@@@2@@Nan@@A@@YAXXZ 0000000180047220     CanvasRenderingContext2d.obj
 0002:00013220       $stateUnwindMap$??__F?constructor@Image@@2V?$Persistent@VFunctionTemplate@v8@@V?$NonCopyablePersistentTraits@VFunctionTemplate@v8@@@2@@Nan@@A@@YAXXZ 0000000180047220     Image.obj
 0002:00013228       $ip2state$??1ObjectWrap@Nan@@UEAA@XZ 0000000180047228     Backend.obj
 0002:00013230       $unwind$uninitialize_allocated_memory 0000000180047230     libucrt:initialization.obj
 0002:00013230       $unwind$initialize_pointers 0000000180047230     libucrt:initialization.obj
 0002:00013230       $unwind$?_Tidy@?$vector@NV?$allocator@N@std@@@std@@IEAAXXZ 0000000180047230     CanvasRenderingContext2d.obj
 0002:00013230       $unwind$?type_case_integer@?$output_processor@DV?$string_output_adapter@D@__crt_stdio_output@@V?$standard_base@DV?$string_output_adapter@D@__crt_stdio_output@@@2@@__crt_stdio_output@@AEAA_NI_N@Z 0000000180047230     libucrt:output.obj
 0002:00013230       $unwind$??0bad_exception@std@@QEAA@AEBV01@@Z 0000000180047230     libvcruntime:frame.obj
 0002:00013230       $unwind$??0?$output_processor@_WV?$string_output_adapter@_W@__crt_stdio_output@@V?$standard_base@_WV?$string_output_adapter@_W@__crt_stdio_output@@@2@@__crt_stdio_output@@QEAA@AEBV?$string_output_adapter@_W@1@_KQEB_WQEAU__crt_locale_pointers@@QEAD@Z 0000000180047230     libucrt:output.obj
 0002:00013230       $unwind$?load_exe_hook@@YAP6A_JXZIPEAUDelayLoadInfo@@@Z 0000000180047230     win_delay_load_hook.obj
 0002:00013230       $unwind$__acrt_uninitialize_stdio 0000000180047230     libucrt:_file.obj
 0002:00013230       $unwind$__std_exception_destroy 0000000180047230     libvcruntime:std_exception.obj
 0002:00013230       $unwind$__std_type_info_destroy_list 0000000180047230     libvcruntime:std_type_info.obj
 0002:00013230       $unwind$??1?$basic_string@DU?$char_traits@D@std@@V?$allocator@D@2@@std@@QEAA@XZ 0000000180047230     Backend.obj
 0002:00013230       $unwind$__acrt_stdio_free_buffer_nolock 0000000180047230     libucrt:_freebuf.obj
 0002:00013230       $unwind$__acrt_stdio_allocate_buffer_nolock 0000000180047230     libucrt:_getbuf.obj
 0002:00013230       $unwind$??0exception@std@@QEAA@AEBV01@@Z 0000000180047230     libcpmt:xthrow.obj
 0002:00013230       $unwind$?recreateSurface@PdfBackend@@EEAAPEAU_cairo_surface@@XZ 0000000180047230     PdfBackend.obj
 0002:00013230       $unwind$??0bad_alloc@std@@QEAA@AEBV01@@Z 0000000180047230     libcpmt:xthrow.obj
 0002:00013230       $unwind$_purecall          0000000180047230     libvcruntime:purevirt.obj
 0002:00013230       $unwind$_setfpstatusword   0000000180047230     libucrt:_fenvutils.obj
 0002:00013230       $unwind$_malloc_base       0000000180047230     libucrt:malloc_base.obj
 0002:00013230       $unwind$_calloc_base       0000000180047230     libucrt:calloc_base.obj
 0002:00013230       $unwind$__scrt_uninitialize_crt 0000000180047230     LIBCMT:utility.obj
 0002:00013230       $unwind$_clearfp           0000000180047230     libucrt:ieee.obj
 0002:00013230       $unwind$__scrt_initialize_crt 0000000180047230     LIBCMT:utility.obj
 0002:00013230       $unwind$__vcrt_initialize_locks 0000000180047230     libvcruntime:locks.obj
 0002:00013230       $unwind$__scrt_release_startup_lock 0000000180047230     LIBCMT:utility.obj
 0002:00013230       $unwind$__acrt_update_multibyte_info 0000000180047230     libucrt:locale_update.obj
 0002:00013230       $unwind$??$message_box_wait_thread@_W@@YAKQEAX@Z 0000000180047230     libucrt:crtmbox.obj
 0002:00013230       $unwind$_onexit            0000000180047230     LIBCMT:utility.obj
 0002:00013230       $unwind$__acrt_uninitialize_locks 0000000180047230     libucrt:locks.obj
 0002:00013230       $unwind$__acrt_update_locale_info 0000000180047230     libucrt:locale_update.obj
 0002:00013230       $unwind$__acrt_uninitialize_winapi_thunks 0000000180047230     libucrt:winapi_thunks.obj
 0002:00013230       $unwind$__acrt_allocate_buffer_for_argv 0000000180047230     libucrt:argv_parsing.obj
 0002:00013230       $unwind$__vcrt_uninitialize_locks 0000000180047230     libvcruntime:locks.obj
 0002:00013230       $unwind$__acrt_initialize_locks 0000000180047230     libucrt:locks.obj
 0002:00013230       $unwind$??0logic_error@std@@QEAA@AEBV01@@Z 0000000180047230     libcpmt:xthrow.obj
 0002:00013230       $unwind$??0length_error@std@@QEAA@AEBV01@@Z 0000000180047230     libcpmt:xthrow.obj
 0002:00013230       $unwind$_set_statfp        0000000180047230     libucrt:fpctrl.obj
 0002:00013230       $unwind$__acrt_fp_strflt_to_string 0000000180047230     libucrt:_fptostr.obj
 0002:00013230       $unwind$?type_case_integer@?$output_processor@_WV?$string_output_adapter@_W@__crt_stdio_output@@V?$standard_base@_WV?$string_output_adapter@_W@__crt_stdio_output@@@2@@__crt_stdio_output@@AEAA_NI_N@Z 0000000180047230     libucrt:output.obj
 0002:00013230       $unwind$??0out_of_range@std@@QEAA@AEBV01@@Z 0000000180047230     libcpmt:xthrow.obj
 0002:00013230       $unwind$wcscat_s           0000000180047230     libucrt:wcscat_s.obj
 0002:00013230       $unwind$wcscpy_s           0000000180047230     libucrt:wcscpy_s.obj
 0002:00013230       $unwind$__acrt_AreFileApisANSI 0000000180047230     libucrt:winapi_thunks.obj
 0002:00013230       $unwind$_fflush_nolock     0000000180047230     libucrt:fflush.obj
 0002:00013230       $unwind$?__GetUnwindTryBlock@@YAHPEA_KPEAU_xDISPATCHER_CONTEXT@@PEBU_s_FuncInfo@@@Z 0000000180047230     libvcruntime:ehstate.obj
 0002:00013230       $unwind$fegetenv           0000000180047230     libucrt:fegetenv.obj
 0002:00013230       $unwind$feholdexcept       0000000180047230     libucrt:feholdexcept.obj
 0002:00013230       $unwind$fesetenv           0000000180047230     libucrt:fesetenv.obj
 0002:00013230       $unwind$?__StateFromIp@@YAHPEBU_s_FuncInfo@@PEAU_xDISPATCHER_CONTEXT@@_J@Z 0000000180047230     libvcruntime:ehstate.obj
 0002:00013230       $unwind$_IsExceptionObjectToBeDestroyed 0000000180047230     libvcruntime:trnsctrl.obj
 0002:00013230       $unwind$_CreateFrameInfo   0000000180047230     libvcruntime:trnsctrl.obj
 0002:00013230       $unwind$?initialize_pointers@@YAHXZ 0000000180047230     libcpmt:winapisupp.obj
 0002:00013230       $unwind$??0?$output_processor@_WV?$stream_output_adapter@_W@__crt_stdio_output@@V?$standard_base@_WV?$stream_output_adapter@_W@__crt_stdio_output@@@2@@__crt_stdio_output@@QEAA@AEBV?$stream_output_adapter@_W@1@_KQEB_WQEAU__crt_locale_pointers@@QEAD@Z 0000000180047230     libucrt:output.obj
 0002:00013230       $unwind$?exit_or_terminate_process@@YAXI@Z 0000000180047230     libucrt:exit.obj
 0002:00013230       $unwind$?type_case_integer@?$output_processor@_WV?$stream_output_adapter@_W@__crt_stdio_output@@V?$standard_base@_WV?$stream_output_adapter@_W@__crt_stdio_output@@@2@@__crt_stdio_output@@AEAA_NI_N@Z 0000000180047230     libucrt:output.obj
 0002:00013230       $unwind$?Ref@ObjectWrap@Nan@@MEAAXXZ 0000000180047230     Backend.obj
 0002:00013230       $unwind$?DloadReleaseSectionWriteAccess@@YAXXZ 0000000180047230     DelayImp:delayhlp.obj
 0002:00013230       $unwind$?Unref@ObjectWrap@Nan@@MEAAXXZ 0000000180047230     Backend.obj
 0002:00013230       $unwind$?WeakCallback@ObjectWrap@Nan@@CAXAEBV?$WeakCallbackInfo@VObjectWrap@Nan@@@v8@@@Z 0000000180047230     Backend.obj
 0002:00013230       $unwind$??0?$output_processor@DV?$string_output_adapter@D@__crt_stdio_output@@V?$standard_base@DV?$string_output_adapter@D@__crt_stdio_output@@@2@@__crt_stdio_output@@QEAA@AEBV?$string_output_adapter@D@1@_KQEBDQEAU__crt_locale_pointers@@QEAD@Z 0000000180047230     libucrt:output.obj
 0002:00013230       $unwind$?closure_destroy@@YAXPEAUclosure_t@@@Z 0000000180047230     closure.obj
 0002:00013230       $unwind$?state_case_normal@?$output_processor@DV?$string_output_adapter@D@__crt_stdio_output@@V?$standard_base@DV?$string_output_adapter@D@__crt_stdio_output@@@2@@__crt_stdio_output@@AEAA_NXZ 0000000180047230     libucrt:output.obj
 0002:00013230       $unwind$__vcrt_freeptd     0000000180047230     libvcruntime:per_thread_data.obj
 0002:00013230       $unwind$__acrt_can_show_message_box 0000000180047230     libucrt:winapi_thunks.obj
 0002:00013230       $unwind$_SetThrowImageBase 0000000180047230     libvcruntime:trnsctrl.obj
 0002:00013230       $unwind$__acrt_freeptd     0000000180047230     libucrt:per_thread_data.obj
 0002:00013230       $unwind$__raise_securityfailure 0000000180047230     LIBCMT:gs_report.obj
 0002:00013230       $unwind$_clrfp             0000000180047230     libucrt:fpctrl.obj
 0002:00013230       $unwind$?restorePath@Context2d@@QEAAXXZ 0000000180047230     CanvasRenderingContext2d.obj
 0002:00013230       $unwind$?savePath@Context2d@@QEAAXXZ 0000000180047230     CanvasRenderingContext2d.obj
 0002:00013230       $unwind$?restore@Context2d@@QEAAXXZ 0000000180047230     CanvasRenderingContext2d.obj
 0002:00013230       $unwind$?SetTextAlignment@Context2d@@SAXAEBV?$FunctionCallbackInfo@VValue@v8@@@Nan@@@Z 0000000180047230     CanvasRenderingContext2d.obj
 0002:00013230       $unwind$_SetImageBase      0000000180047230     libvcruntime:trnsctrl.obj
 0002:00013230       $unwind$?recreateSurface@Backend@@UEAAPEAU_cairo_surface@@XZ 0000000180047230     Backend.obj
 0002:00013230       $unwind$??0bad_array_new_length@std@@QEAA@AEBV01@@Z 0000000180047230     LIBCMT:throw_bad_alloc.obj
 0002:00013230       $unwind$??1Context2d@@EEAA@XZ 0000000180047230     CanvasRenderingContext2d.obj
 0002:00013230       $unwind$??2@YAPEAX_K@Z     0000000180047230     LIBCMT:new_scalar.obj
 0002:00013230       $unwind$?SetTextBaseline@Context2d@@SAXAEBV?$FunctionCallbackInfo@VValue@v8@@@Nan@@@Z 0000000180047230     CanvasRenderingContext2d.obj
 0002:00013230       $unwind$??_Gtype_info@@UEAAPEAXI@Z 0000000180047230     LIBCMT:std_type_info_static.obj
 0002:00013230       $unwind$strcpy_s           0000000180047230     libucrt:strcpy_s.obj
 0002:00013238       $unwind$?ExFilterRethrow@@YAHPEAU_EXCEPTION_POINTERS@@PEAUEHExceptionRecord@@PEAH@Z 0000000180047238     libvcruntime:frame.obj
 0002:00013238       $unwind$??_GSvgBackend@@UEAAPEAXI@Z 0000000180047238     SvgBackend.obj
 0002:00013238       $unwind$??$common_xtox@K_W@@YAHKQEA_W_KI_N@Z 0000000180047238     libucrt:xtoa.obj
 0002:00013238       $unwind$??_GContext2d@@EEAAPEAXI@Z 0000000180047238     CanvasRenderingContext2d.obj
 0002:00013238       $unwind$??_GPdfBackend@@UEAAPEAXI@Z 0000000180047238     PdfBackend.obj
 0002:00013238       $unwind$??1_Init_locks@std@@QEAA@XZ 0000000180047238     libcpmt:xlock.obj
 0002:00013238       $unwind$?GetComplete@Image@@SAXV?$Local@VString@v8@@@v8@@AEBV?$PropertyCallbackInfo@VValue@v8@@@Nan@@@Z 0000000180047238     Image.obj
 0002:00013238       $unwind$?SetShadowBlur@Context2d@@SAXV?$Local@VString@v8@@@v8@@V?$Local@VValue@v8@@@3@AEBV?$PropertyCallbackInfo@X@Nan@@@Z 0000000180047238     CanvasRenderingContext2d.obj
 0002:00013238       $unwind$__acrt_uninitialize_lowio 0000000180047238     libucrt:ioinit.obj
 0002:00013238       $unwind$??_Gbad_array_new_length@std@@UEAAPEAXI@Z 0000000180047238     LIBCMT:throw_bad_alloc.obj
 0002:00013238       $unwind$__acrt_getptd      0000000180047238     libucrt:per_thread_data.obj
 0002:00013238       $unwind$longjmp            0000000180047238     libvcruntime:longjmpc.obj
 0002:00013238       $unwind$?erase@?$basic_string@DU?$char_traits@D@std@@V?$allocator@D@2@@std@@QEAAAEAV12@_K0@Z 0000000180047238     Backend.obj
 0002:00013238       $unwind$__vcrt_FlsAlloc    0000000180047238     libvcruntime:winapi_downlevel.obj
 0002:00013238       $unwind$??$common_initialize_environment_nolock@D@@YAHXZ 0000000180047238     libucrt:environment_initialization.obj
 0002:00013238       $unwind$?readPNG@Image@@SA?AW4_cairo_status@@PEAXPEAEI@Z 0000000180047238     Image.obj
 0002:00013238       $unwind$?rgba_from_string@@YAHPEBDPEAF@Z 0000000180047238     color.obj
 0002:00013238       $unwind$??_Gexception@std@@UEAAPEAXI@Z 0000000180047238     libcpmt:xthrow.obj
 0002:00013238       $unwind$??_GImageData@@UEAAPEAXI@Z 0000000180047238     ImageData.obj
 0002:00013238       $unwind$__acrt_stdio_begin_temporary_buffering_nolock 0000000180047238     libucrt:_sftbuf.obj
 0002:00013238       $unwind$??_GCanvas@@EEAAPEAXI@Z 0000000180047238     Canvas.obj
 0002:00013238       $unwind$?createSurface@SvgBackend@@EEAAPEAU_cairo_surface@@XZ 0000000180047238     SvgBackend.obj
 0002:00013238       $unwind$?replace_current_thread_locale_nolock@@YAXQEAU__acrt_ptd@@QEAU__crt_locale_data@@@Z 0000000180047238     libucrt:per_thread_data.obj
 0002:00013238       $unwind$?type_case_c_tchar@?$output_processor@DV?$string_output_adapter@D@__crt_stdio_output@@V?$standard_base@DV?$string_output_adapter@D@__crt_stdio_output@@@2@@__crt_stdio_output@@AEAA_ND@Z 0000000180047238     libucrt:output.obj
 0002:00013238       $unwind$??_GImageBackend@@UEAAPEAXI@Z 0000000180047238     ImageBackend.obj
 0002:00013238       $unwind$??_GPattern@@EEAAPEAXI@Z 0000000180047238     CanvasPattern.obj
 0002:00013238       $unwind$?DloadGetSRWLockFunctionPointers@@YAEXZ 0000000180047238     DelayImp:delayhlp.obj
 0002:00013238       $unwind$??_Gbad_alloc@std@@UEAAPEAXI@Z 0000000180047238     libcpmt:xthrow.obj
 0002:00013238       $unwind$?createSurface@PdfBackend@@EEAAPEAU_cairo_surface@@XZ 0000000180047238     PdfBackend.obj
 0002:00013238       $unwind$_callnewh          0000000180047238     libucrt:new_handler.obj
 0002:00013238       $unwind$?force_decimal_point@__crt_stdio_output@@YAXPEADQEAU__crt_locale_pointers@@@Z 0000000180047238     libucrt:output.obj
 0002:00013238       $unwind$??_GObjectWrap@Nan@@UEAAPEAXI@Z 0000000180047238     Backend.obj
 0002:00013238       $unwind$??_Gbad_exception@std@@UEAAPEAXI@Z 0000000180047238     libvcruntime:frame.obj
 0002:00013238       $unwind$_fclose_nolock     0000000180047238     libucrt:fclose.obj
 0002:00013238       $unwind$?DloadAcquireSectionWriteAccess@@YAXXZ 0000000180047238     DelayImp:delayhlp.obj
 0002:00013238       $unwind$?internal_isupper_l@@YA_NHQEAU__crt_locale_pointers@@@Z 0000000180047238     libucrt:tolower_toupper.obj
 0002:00013238       $unwind$?get_pango_font_description@@YAPEAU_PangoFontDescription@@PEAE@Z 0000000180047238     register_font.obj
 0002:00013238       $unwind$__acrt_get_parent_window 0000000180047238     libucrt:winapi_thunks.obj
 0002:00013238       $unwind$__acrt_FlsAlloc    0000000180047238     libucrt:winapi_thunks.obj
 0002:00013238       $unwind$?recreateSurface@SvgBackend@@EEAAPEAU_cairo_surface@@XZ 0000000180047238     SvgBackend.obj
 0002:00013238       $unwind$?try_cor_exit_process@@YAXI@Z 0000000180047238     libucrt:exit.obj
 0002:00013238       $unwind$__acrt_errno_map_os_error 0000000180047238     libucrt:errno.obj
 0002:00013238       $unwind$??_GGradient@@EEAAPEAXI@Z 0000000180047238     CanvasGradient.obj
 0002:00013238       $unwind$_close_nolock      0000000180047238     libucrt:close.obj
 0002:00013238       $unwind$?createSurface@ImageBackend@@EEAAPEAU_cairo_surface@@XZ 0000000180047238     ImageBackend.obj
 0002:00013238       $unwind$__acrt_FlsFree     0000000180047238     libucrt:winapi_thunks.obj
 0002:00013238       $unwind$__vcrt_FlsFree     0000000180047238     libvcruntime:winapi_downlevel.obj
 0002:00013238       $unwind$??_Glogic_error@std@@UEAAPEAXI@Z 0000000180047238     libcpmt:xthrow.obj
 0002:00013238       $unwind$??_GBackend@@UEAAPEAXI@Z 0000000180047238     Backend.obj
 0002:00013238       $unwind$strncpy_s          0000000180047238     libucrt:strncpy_s.obj
 0002:00013238       $unwind$_realloc_base      0000000180047238     libucrt:realloc_base.obj
 0002:00013238       $unwind$??_Glength_error@std@@UEAAPEAXI@Z 0000000180047238     libcpmt:xthrow.obj
 0002:00013238       $unwind$_FindAndUnlinkFrame 0000000180047238     libvcruntime:trnsctrl.obj
 0002:00013238       $unwind$??0_LocaleUpdate@@QEAA@QEAU__crt_locale_pointers@@@Z 0000000180047238     libucrt:output.obj
 0002:00013238       $unwind$__acrt_invoke_user_matherr 0000000180047238     libucrt:matherr.obj
 0002:00013238       $unwind$__acrt_FlsGetValue 0000000180047238     libucrt:winapi_thunks.obj
 0002:00013238       $unwind$_updatetlocinfoEx_nolock 0000000180047238     libucrt:locale_refcounting.obj
 0002:00013238       $unwind$?__SetUnwindTryBlock@@YAXPEA_KPEAU_xDISPATCHER_CONTEXT@@PEBU_s_FuncInfo@@H@Z 0000000180047238     libvcruntime:ehstate.obj
 0002:00013238       $unwind$?Fill@Context2d@@SAXAEBV?$FunctionCallbackInfo@VValue@v8@@@Nan@@@Z 0000000180047238     CanvasRenderingContext2d.obj
 0002:00013238       $unwind$wcsncat_s          0000000180047238     libucrt:wcsncat_s.obj
 0002:00013238       $unwind$?Clip@Context2d@@SAXAEBV?$FunctionCallbackInfo@VValue@v8@@@Nan@@@Z 0000000180047238     CanvasRenderingContext2d.obj
 0002:00013238       $unwind$??_Gout_of_range@std@@UEAAPEAXI@Z 0000000180047238     libcpmt:xthrow.obj
 0002:00013238       $unwind$__vcrt_FlsGetValue 0000000180047238     libvcruntime:winapi_downlevel.obj
 0002:00013238       $unwind$?Rotate@Context2d@@SAXAEBV?$FunctionCallbackInfo@VValue@v8@@@Nan@@@Z 0000000180047238     CanvasRenderingContext2d.obj
 0002:00013244       $unwind$??0Backend@@IEAA@V?$basic_string@DU?$char_traits@D@std@@V?$allocator@D@2@@std@@HH@Z 0000000180047244     Backend.obj
 0002:00013264       $stateUnwindMap$??0Backend@@IEAA@V?$basic_string@DU?$char_traits@D@std@@V?$allocator@D@2@@std@@HH@Z 0000000180047264     Backend.obj
 0002:00013278       $ip2state$??0Backend@@IEAA@V?$basic_string@DU?$char_traits@D@std@@V?$allocator@D@2@@std@@HH@Z 0000000180047278     Backend.obj
 0002:00013298       $unwind$?getName@Backend@@QEAA?AV?$basic_string@DU?$char_traits@D@std@@V?$allocator@D@2@@std@@XZ 0000000180047298     Backend.obj
 0002:00013298       $unwind$strtol             0000000180047298     libucrt:strtox.obj
 0002:00013298       $unwind$wcstol             0000000180047298     libucrt:strtox.obj
 0002:00013298       $unwind$??$common_xtox_s@K_W@@YAHKQEA_W_KI_N@Z 0000000180047298     libucrt:xtoa.obj
 0002:00013298       $unwind$??0out_of_range@std@@QEAA@PEBD@Z 0000000180047298     libcpmt:xthrow.obj
 0002:00013298       $unwind$?New@Image@@SAXAEBV?$FunctionCallbackInfo@VValue@v8@@@Nan@@@Z 0000000180047298     Image.obj
 0002:00013298       $unwind$??0length_error@std@@QEAA@PEBD@Z 0000000180047298     libcpmt:xthrow.obj
 0002:000132a0       $unwind$__acrt_FlsSetValue 00000001800472a0     libucrt:winapi_thunks.obj
 0002:000132a0       $unwind$_RTC_Initialize    00000001800472a0     LIBCMT:_initsect_.obj
 0002:000132a0       $unwind$_RTC_Terminate     00000001800472a0     LIBCMT:_initsect_.obj
 0002:000132a0       $unwind$_DllMainCRTStartup 00000001800472a0     LIBCMT:dll_dllmain.obj
 0002:000132a0       $unwind$memcpy_s           00000001800472a0     libucrt:strtod.obj
 0002:000132a0       $unwind$memcpy_s           00000001800472a0     libucrt:cfout.obj
 0002:000132a0       $unwind$?type_case_n@?$output_processor@_WV?$stream_output_adapter@_W@__crt_stdio_output@@V?$standard_base@_WV?$stream_output_adapter@_W@__crt_stdio_output@@@2@@__crt_stdio_output@@AEAA_NXZ 00000001800472a0     libucrt:output.obj
 0002:000132a0       $unwind$__vcrt_FlsSetValue 00000001800472a0     libvcruntime:winapi_downlevel.obj
 0002:000132a0       $unwind$?type_case_s@?$output_processor@_WV?$string_output_adapter@_W@__crt_stdio_output@@V?$standard_base@_WV?$string_output_adapter@_W@__crt_stdio_output@@@2@@__crt_stdio_output@@AEAA_NXZ 00000001800472a0     libucrt:output.obj
 0002:000132a0       $unwind$?closure_init@@YA?AW4_cairo_status@@PEAUclosure_t@@PEAVCanvas@@II@Z 00000001800472a0     closure.obj
 0002:000132a0       $unwind$?type_case_Z@?$output_processor@_WV?$string_output_adapter@_W@__crt_stdio_output@@V?$standard_base@_WV?$string_output_adapter@_W@__crt_stdio_output@@@2@@__crt_stdio_output@@AEAA_NXZ 00000001800472a0     libucrt:output.obj
 0002:000132a0       $unwind$?type_case_n@?$output_processor@DV?$string_output_adapter@D@__crt_stdio_output@@V?$standard_base@DV?$string_output_adapter@D@__crt_stdio_output@@@2@@__crt_stdio_output@@AEAA_NXZ 00000001800472a0     libucrt:output.obj
 0002:000132a0       $unwind$?__scrt_initialize_thread_safe_statics@@YAHXZ 00000001800472a0     LIBCMT:thread_safe_statics.obj
 0002:000132a0       $unwind$?canvas_stream_write_func@@YAXPEAUpng_struct_def@@PEAE_K@Z 00000001800472a0     Canvas.obj
 0002:000132a0       $unwind$?assign@?$basic_string@DU?$char_traits@D@std@@V?$allocator@D@2@@std@@QEAAAEAV12@PEBD_K@Z 00000001800472a0     Backend.obj
 0002:000132a0       $unwind$?type_case_s@?$output_processor@_WV?$stream_output_adapter@_W@__crt_stdio_output@@V?$standard_base@_WV?$stream_output_adapter@_W@__crt_stdio_output@@@2@@__crt_stdio_output@@AEAA_NXZ 00000001800472a0     libucrt:output.obj
 0002:000132a0       $unwind$__acrt_getptd_noexit 00000001800472a0     libucrt:per_thread_data.obj
 0002:000132a0       $unwind$_exception_enabled 00000001800472a0     libucrt:libm_error.obj
 0002:000132a0       $unwind$?type_case_s@?$output_processor@DV?$string_output_adapter@D@__crt_stdio_output@@V?$standard_base@DV?$string_output_adapter@D@__crt_stdio_output@@@2@@__crt_stdio_output@@AEAA_NXZ 00000001800472a0     libucrt:output.obj
 0002:000132a0       $unwind$_initterm_e        00000001800472a0     libucrt:initterm.obj
 0002:000132a0       $unwind$__acrt_stdio_flush_nolock 00000001800472a0     libucrt:fflush.obj
 0002:000132a0       $unwind$?free_crt_array_internal@@YAXQEAPEBX_K@Z 00000001800472a0     libucrt:inittime.obj
 0002:000132a0       $unwind$?type_case_Z@?$output_processor@DV?$string_output_adapter@D@__crt_stdio_output@@V?$standard_base@DV?$string_output_adapter@D@__crt_stdio_output@@@2@@__crt_stdio_output@@AEAA_NXZ 00000001800472a0     libucrt:output.obj
 0002:000132a0       $unwind$?type_case_Z@?$output_processor@_WV?$stream_output_adapter@_W@__crt_stdio_output@@V?$standard_base@_WV?$stream_output_adapter@_W@__crt_stdio_output@@@2@@__crt_stdio_output@@AEAA_NXZ 00000001800472a0     libucrt:output.obj
 0002:000132a0       $unwind$__acrt_stdio_flush_and_write_narrow_nolock 00000001800472a0     libucrt:_flsbuf.obj
 0002:000132a0       $unwind$??R<lambda_ad1ced32f4ac17aa236e5ef05d6b3b7c>@@QEBAXXZ 00000001800472a0     libucrt:mbctype.obj
 0002:000132a0       $unwind$??$common_lseek_nolock@_J@@YA_JH_JH@Z 00000001800472a0     libucrt:lseek.obj
 0002:000132a0       $unwind$__acrt_stdio_flush_and_write_wide_nolock 00000001800472a0     libucrt:_flsbuf.obj
 0002:000132a0       $unwind$__acrt_LocaleNameToLCID 00000001800472a0     libucrt:winapi_thunks.obj
 0002:000132a0       $unwind$__vcrt_getptd_noexit 00000001800472a0     libvcruntime:per_thread_data.obj
 0002:000132a0       $unwind$??0_Init_locks@std@@QEAA@XZ 00000001800472a0     libcpmt:xlock.obj
 0002:000132a0       $unwind$?type_case_n@?$output_processor@_WV?$string_output_adapter@_W@__crt_stdio_output@@V?$standard_base@_WV?$string_output_adapter@_W@__crt_stdio_output@@@2@@__crt_stdio_output@@AEAA_NXZ 00000001800472a0     libucrt:output.obj
 0002:000132a0       $unwind$__acrt_execute_uninitializers 00000001800472a0     libucrt:shared_initialization.obj
 0002:000132b0       $unwind$_free_osfhnd       00000001800472b0     libucrt:osfinfo.obj
 0002:000132b0       $unwind$__std_exception_copy 00000001800472b0     libvcruntime:std_exception.obj
 0002:000132b0       $unwind$?assign@?$basic_string@DU?$char_traits@D@std@@V?$allocator@D@2@@std@@QEAAAEAV12@AEBV12@_K1@Z 00000001800472b0     Backend.obj
 0002:000132b0       $unwind$?initialize_stdio_handles_nolock@@YAXXZ 00000001800472b0     libucrt:ioinit.obj
 0002:000132c4       $unwind$?_Copy@?$basic_string@DU?$char_traits@D@std@@V?$allocator@D@2@@std@@QEAAX_K0@Z 00000001800472c4     Backend.obj
 0002:000132d8       $unwind$?FunctionCallbackWrapper@imp@Nan@@YAXAEBV?$FunctionCallbackInfo@VValue@v8@@@v8@@@Z 00000001800472d8     ImageBackend.obj
 0002:000132e8       $unwind$?NewInstance@Nan@@YA?AV?$MaybeLocal@VObject@v8@@@v8@@V?$Local@VObjectTemplate@v8@@@3@@Z 00000001800472e8     ImageBackend.obj
 0002:000132fc       $stateUnwindMap$?convert@?$ToFactory@VUint32@v8@@@imp@Nan@@SA?AV?$MaybeLocal@VUint32@v8@@@v8@@V?$Local@VValue@v8@@@5@@Z 00000001800472fc     Canvas.obj
 0002:000132fc       $stateUnwindMap$?NewInstance@Nan@@YA?AV?$MaybeLocal@VObject@v8@@@v8@@V?$Local@VObjectTemplate@v8@@@3@@Z 00000001800472fc     ImageBackend.obj
 0002:000132fc       $stateUnwindMap$?convert@?$ToFactory@VInt32@v8@@@imp@Nan@@SA?AV?$MaybeLocal@VInt32@v8@@@v8@@V?$Local@VValue@v8@@@5@@Z 00000001800472fc     CanvasRenderingContext2d.obj
 0002:000132fc       $stateUnwindMap$?GetFunction@Nan@@YA?AV?$MaybeLocal@VFunction@v8@@@v8@@V?$Local@VFunctionTemplate@v8@@@3@@Z 00000001800472fc     CanvasRenderingContext2d.obj
 0002:00013308       $ip2state$?NewInstance@Nan@@YA?AV?$MaybeLocal@VObject@v8@@@v8@@V?$Local@VObjectTemplate@v8@@@3@@Z 0000000180047308     ImageBackend.obj
 0002:00013320       $unwind$?New@?$Factory@VFunctionTemplate@v8@@@imp@Nan@@SA?AV?$Local@VFunctionTemplate@v8@@@v8@@P6AXAEBV?$FunctionCallbackInfo@VValue@v8@@@3@@ZV?$Local@VValue@v8@@@5@V?$Local@VSignature@v8@@@5@@Z 0000000180047320     ImageBackend.obj
 0002:00013338       $stateUnwindMap$?New@?$Factory@VFunctionTemplate@v8@@@imp@Nan@@SA?AV?$Local@VFunctionTemplate@v8@@@v8@@P6AXAEBV?$FunctionCallbackInfo@VValue@v8@@@3@@ZV?$Local@VValue@v8@@@5@V?$Local@VSignature@v8@@@5@@Z 0000000180047338     ImageBackend.obj
 0002:00013340       $ip2state$?New@?$Factory@VFunctionTemplate@v8@@@imp@Nan@@SA?AV?$Local@VFunctionTemplate@v8@@@v8@@P6AXAEBV?$FunctionCallbackInfo@VValue@v8@@@3@@ZV?$Local@VValue@v8@@@5@V?$Local@VSignature@v8@@@5@@Z 0000000180047340     ImageBackend.obj
 0002:00013358       $unwind$??$free_environment@D@@YAXQEAPEAD@Z 0000000180047358     libucrt:environment_initialization.obj
 0002:00013358       $unwind$?Wrap@ObjectWrap@Nan@@IEAAXV?$Local@VObject@v8@@@v8@@@Z 0000000180047358     ImageBackend.obj
 0002:00013358       $unwind$??$free_environment@_W@@YAXQEAPEA_W@Z 0000000180047358     libucrt:environment_initialization.obj
 0002:00013364       $unwind$??0PdfBackend@@QEAA@HH@Z 0000000180047364     PdfBackend.obj
 0002:00013364       $unwind$_stricmp_l         0000000180047364     libucrt:stricmp.obj
 0002:00013364       $unwind$??0ImageBackend@@QEAA@HH@Z 0000000180047364     ImageBackend.obj
 0002:00013364       $unwind$??0SvgBackend@@QEAA@HH@Z 0000000180047364     SvgBackend.obj
 0002:00013364       $unwind$?x_ismbbtype_l@@YAHPEAU__crt_locale_pointers@@IHH@Z 0000000180047364     libucrt:ismbbyte.obj
 0002:00013374       $unwind$??1ImageBackend@@UEAA@XZ 0000000180047374     ImageBackend.obj
 0002:00013388       $ip2state$??1ImageBackend@@UEAA@XZ 0000000180047388     ImageBackend.obj
 0002:00013390       $unwind$?recreateSurface@ImageBackend@@EEAAPEAU_cairo_surface@@XZ 0000000180047390     ImageBackend.obj
 0002:00013390       $unwind$?save@Context2d@@QEAAXXZ 0000000180047390     CanvasRenderingContext2d.obj
 0002:00013390       $unwind$?rgba_from_hex_string@@YAHPEBDPEAF@Z 0000000180047390     color.obj
 0002:00013398       $chain$2$?recreateSurface@ImageBackend@@EEAAPEAU_cairo_surface@@XZ 0000000180047398     ImageBackend.obj
 0002:000133b4       $chain$3$?recreateSurface@ImageBackend@@EEAAPEAU_cairo_surface@@XZ 00000001800473b4     ImageBackend.obj
 0002:000133c4       $unwind$??__F?constructor@ImageBackend@@2V?$Persistent@VFunctionTemplate@v8@@V?$NonCopyablePersistentTraits@VFunctionTemplate@v8@@@2@@Nan@@A@@YAXXZ 00000001800473c4     ImageBackend.obj
 0002:000133d8       $ip2state$??__F?constructor@ImageBackend@@2V?$Persistent@VFunctionTemplate@v8@@V?$NonCopyablePersistentTraits@VFunctionTemplate@v8@@@2@@Nan@@A@@YAXXZ 00000001800473d8     ImageBackend.obj
 0002:000133e0       $unwind$?Initialize@ImageBackend@@SAXV?$Local@VObject@v8@@@v8@@@Z 00000001800473e0     ImageBackend.obj
 0002:000133f0       $stateUnwindMap$??0?$TypedArrayContents@N@Nan@@QEAA@V?$Local@VValue@v8@@@v8@@@Z 00000001800473f0     CanvasRenderingContext2d.obj
 0002:000133f0       $stateUnwindMap$?Call_@Callback@Nan@@AEBA?AV?$Local@VValue@v8@@@v8@@PEAVIsolate@4@V?$Local@VObject@v8@@@4@HQEAV34@@Z 00000001800473f0     Canvas.obj
 0002:000133f0       $stateUnwindMap$?Initialize@SvgBackend@@SAXV?$Local@VObject@v8@@@v8@@@Z 00000001800473f0     SvgBackend.obj
 0002:000133f0       $stateUnwindMap$??$SetMethod@VFunctionTemplate@v8@@VLocal@2@@Nan@@YAXV?$Local@VFunctionTemplate@v8@@@v8@@PEBDP6AXAEBV?$FunctionCallbackInfo@VValue@v8@@@0@@Z@Z 00000001800473f0     Canvas.obj
 0002:000133f0       $stateUnwindMap$?resurface@Canvas@@QEAAXV?$Local@VObject@v8@@@v8@@@Z 00000001800473f0     Canvas.obj
 0002:000133f0       $stateUnwindMap$?Initialize@PdfBackend@@SAXV?$Local@VObject@v8@@@v8@@@Z 00000001800473f0     PdfBackend.obj
 0002:000133f0       $stateUnwindMap$?ThrowError@Nan@@YAXPEBD@Z 00000001800473f0     Canvas.obj
 0002:000133f0       $stateUnwindMap$?Initialize@ImageBackend@@SAXV?$Local@VObject@v8@@@v8@@@Z 00000001800473f0     ImageBackend.obj
 0002:000133f0       $stateUnwindMap$?ThrowRangeError@Nan@@YAXPEBD@Z 00000001800473f0     Canvas.obj
 0002:000133f0       $stateUnwindMap$??0?$TypedArrayContents@E@Nan@@QEAA@V?$Local@VValue@v8@@@v8@@@Z 00000001800473f0     Canvas.obj
 0002:000133f0       $stateUnwindMap$?Initialize@Backends@@SAXV?$Local@VObject@v8@@@v8@@@Z 00000001800473f0     Backends.obj
 0002:000133f0       $stateUnwindMap$?ThrowTypeError@Nan@@YAXPEBD@Z 00000001800473f0     Canvas.obj
 0002:000133f8       $ip2state$?Initialize@ImageBackend@@SAXV?$Local@VObject@v8@@@v8@@@Z 00000001800473f8     ImageBackend.obj
 0002:00013410       $unwind$?New@ImageBackend@@SAXAEBV?$FunctionCallbackInfo@VValue@v8@@@Nan@@@Z 0000000180047410     ImageBackend.obj
 0002:00013428       $stateUnwindMap$?New@ImageBackend@@SAXAEBV?$FunctionCallbackInfo@VValue@v8@@@Nan@@@Z 0000000180047428     ImageBackend.obj
 0002:00013430       $ip2state$?New@ImageBackend@@SAXAEBV?$FunctionCallbackInfo@VValue@v8@@@Nan@@@Z 0000000180047430     ImageBackend.obj
 0002:00013448       $unwind$?dtor$0@?0??New@Gradient@@SAXAEBV?$FunctionCallbackInfo@VValue@v8@@@Nan@@@Z@4HA 0000000180047448     CanvasGradient.obj
 0002:00013448       $unwind$__acrt_update_thread_multibyte_data$fin$0 0000000180047448     libucrt:mbctype.obj
 0002:00013448       $unwind$?fin$0@?0???$?RV<lambda_99476a1ad63dd22509b5d3e65b0ffc95>@@AEAV<lambda_ad1ced32f4ac17aa236e5ef05d6b3b7c>@@V<lambda_f7424dd8d45958661754dc4f2697e9c3>@@@?$__crt_seh_guarded_call@X@@QEAAX$$QEAV<lambda_99476a1ad63dd22509b5d3e65b0ffc95>@@AEAV<lambda_ad1ced32f4ac17aa236e5ef05d6b3b7c>@@$$QEAV<lambda_f7424dd8d45958661754dc4f2697e9c3>@@@Z@4HA 0000000180047448     libucrt:mbctype.obj
 0002:00013448       $unwind$?dtor$0@?0??New@ImageBackend@@SAXAEBV?$FunctionCallbackInfo@VValue@v8@@@Nan@@@Z@4HA 0000000180047448     ImageBackend.obj
 0002:00013448       $unwind$_query_new_handler$fin$0 0000000180047448     libucrt:new_handler.obj
 0002:00013448       $unwind$common_control87$filt$0 0000000180047448     libucrt:ieee.obj
 0002:00013448       $unwind$__FrameUnwindToState$fin$1 0000000180047448     libvcruntime:frame.obj
 0002:00013448       $unwind$_ctrlfp$filt$0     0000000180047448     libucrt:fpctrl.obj
 0002:00013448       $unwind$__FrameUnwindToState$filt$0 0000000180047448     libvcruntime:frame.obj
 0002:00013448       $unwind$_write$fin$0       0000000180047448     libucrt:write.obj
 0002:00013448       $unwind$__DestructExceptionObject$filt$0 0000000180047448     libvcruntime:frame.obj
 0002:00013448       $unwind$__CxxCallCatchBlock$filt$0 0000000180047448     libvcruntime:frame.obj
 0002:00013448       $unwind$?fin$0@?0??__acrt_stdio_allocate_stream@@YA?AV__crt_stdio_stream@@XZ@4HA 0000000180047448     libucrt:stream.obj
 0002:00013448       $unwind$?dtor$0@?0??New@PdfBackend@@SAXAEBV?$FunctionCallbackInfo@VValue@v8@@@Nan@@@Z@4HA 0000000180047448     PdfBackend.obj
 0002:00013448       $unwind$?fin$0@?0???$?RV<lambda_c36588078e9f5dfd39652860aa6b3aaf>@@AEAV<lambda_ec61778202f4f5fc7e7711acc23c3bca>@@V<lambda_dc9d2797ccde5d239b4a0efae8ebd7db>@@@?$__crt_seh_guarded_call@P6AXH@Z@@QEAAP6AXH@Z$$QEAV<lambda_c36588078e9f5dfd39652860aa6b3aaf>@@AEAV<lambda_ec61778202f4f5fc7e7711acc23c3bca>@@$$QEAV<lambda_dc9d2797ccde5d239b4a0efae8ebd7db>@@@Z@4HA 0000000180047448     libucrt:signal.obj
 0002:00013448       $unwind$raise$fin$0        0000000180047448     libucrt:signal.obj
 0002:00013448       $unwind$?fin$0@?0??common_fseek@@YAHV__crt_stdio_stream@@_JH@Z@4HA 0000000180047448     libucrt:fseek.obj
 0002:00013448       $unwind$?dtor$1@?0??ToBuffer@Canvas@@SAXAEBV?$FunctionCallbackInfo@VValue@v8@@@Nan@@@Z@4HA 0000000180047448     Canvas.obj
 0002:00013448       $unwind$_read$fin$0        0000000180047448     libucrt:read.obj
 0002:00013448       $unwind$?fin$0@?0???$common_fsopen@D@@YAPEAU_iobuf@@QEBD0H@Z@4HA 0000000180047448     libucrt:fopen.obj
 0002:00013448       $unwind$?fin$0@?0???$?RV<lambda_fb3a7dec4e47f37f22dae91bb15c9095>@@AEAV<lambda_698284760c8add0bfb0756c19673e34b>@@V<lambda_dfb8eca1e75fef3034a8fb18dd509707>@@@?$__crt_seh_guarded_call@X@@QEAAX$$QEAV<lambda_fb3a7dec4e47f37f22dae91bb15c9095>@@AEAV<lambda_698284760c8add0bfb0756c19673e34b>@@$$QEAV<lambda_dfb8eca1e75fef3034a8fb18dd509707>@@@Z@4HA 0000000180047448     libucrt:per_thread_data.obj
 0002:00013448       $unwind$?fin$0@?0??dllmain_crt_process_detach@@YAH_N@Z@4HA 0000000180047448     LIBCMT:dll_dllmain.obj
 0002:00013448       $unwind$?fin$0@?0???$?RV<lambda_7a5ef57ff966f610505f1d28a3d40618>@@AEAV<lambda_b721fa326cdb32351d23dfa67958c160>@@V<lambda_5e0fb27672408a07956fe59e48ccb2aa>@@@?$__crt_seh_guarded_call@H@@QEAAH$$QEAV<lambda_7a5ef57ff966f610505f1d28a3d40618>@@AEAV<lambda_b721fa326cdb32351d23dfa67958c160>@@$$QEAV<lambda_5e0fb27672408a07956fe59e48ccb2aa>@@@Z@4HA 0000000180047448     libucrt:setvbuf.obj
 0002:00013448       $unwind$fflush$fin$0       0000000180047448     libucrt:fflush.obj
 0002:00013448       $unwind$?dtor$1@?0??New@Gradient@@SAXAEBV?$FunctionCallbackInfo@VValue@v8@@@Nan@@@Z@4HA 0000000180047448     CanvasGradient.obj
 0002:00013448       $unwind$?fin$0@?0??dllmain_crt_process_attach@@YAHQEAUHINSTANCE__@@QEAX@Z@4HA 0000000180047448     LIBCMT:dll_dllmain.obj
 0002:00013448       $unwind$?fin$0@?0???$?RV<lambda_46352004c1216016012b18bd6f87e700>@@AEAV<lambda_3bd07e1a1191394380780325891bf33f>@@V<lambda_334532d3f185bcaa59b5be82d7d22bff>@@@?$__crt_seh_guarded_call@X@@QEAAX$$QEAV<lambda_46352004c1216016012b18bd6f87e700>@@AEAV<lambda_3bd07e1a1191394380780325891bf33f>@@$$QEAV<lambda_334532d3f185bcaa59b5be82d7d22bff>@@@Z@4HA 0000000180047448     libucrt:per_thread_data.obj
 0002:00013448       $unwind$__acrt_update_thread_locale_data$fin$0 0000000180047448     libucrt:locale_refcounting.obj
 0002:00013448       $unwind$common_flush_all$fin$0 0000000180047448     libucrt:fflush.obj
 0002:00013448       $unwind$?dtor$0@?0??New@SvgBackend@@SAXAEBV?$FunctionCallbackInfo@VValue@v8@@@Nan@@@Z@4HA 0000000180047448     SvgBackend.obj
 0002:00013448       $unwind$?fin$1@?0??common_exit@@YAXHW4_crt_exit_cleanup_mode@@W4_crt_exit_return_mode@@@Z@4HA 0000000180047448     libucrt:exit.obj
 0002:00013448       $unwind$__acrt_uninitialize_locale$fin$0 0000000180047448     libucrt:wsetlocale.obj
 0002:00013448       $unwind$?filt$0@?0??common_exit@@YAXHW4_crt_exit_cleanup_mode@@W4_crt_exit_return_mode@@@Z@4HA 0000000180047448     libucrt:exit.obj
 0002:00013448       $unwind$?fin$0@?0???$?RV<lambda_bfedae4ebbf01fab1bb6dcc6a9e276e0>@@AEAV<lambda_2fe9b910cf3cbf4a0ab98a02ba45b3ec>@@V<lambda_237c231691f317818eb88cc1d5d642d6>@@@?$__crt_seh_guarded_call@H@@QEAAH$$QEAV<lambda_bfedae4ebbf01fab1bb6dcc6a9e276e0>@@AEAV<lambda_2fe9b910cf3cbf4a0ab98a02ba45b3ec>@@$$QEAV<lambda_237c231691f317818eb88cc1d5d642d6>@@@Z@4HA 0000000180047448     libucrt:close.obj
 0002:00013448       $unwind$_alloc_osfhnd$fin$0 0000000180047448     libucrt:osfinfo.obj
 0002:00013448       $unwind$common_flush_all$fin$1 0000000180047448     libucrt:fflush.obj
 0002:00013448       $unwind$?fin$0@?0???$?RV<lambda_5e887d1dcbef67a5eb4283622ba103bf>@@AEAV<lambda_4466841279450cc726390878d4a41900>@@V<lambda_341c25c0346d94847f1f3c463c57e077>@@@?$__crt_seh_guarded_call@X@@QEAAX$$QEAV<lambda_5e887d1dcbef67a5eb4283622ba103bf>@@AEAV<lambda_4466841279450cc726390878d4a41900>@@$$QEAV<lambda_341c25c0346d94847f1f3c463c57e077>@@@Z@4HA 0000000180047448     libucrt:per_thread_data.obj
 0002:00013448       $unwind$?dtor$2@?0??New@Context2d@@SAXAEBV?$FunctionCallbackInfo@VValue@v8@@@Nan@@@Z@4HA 0000000180047448     CanvasRenderingContext2d.obj
 0002:00013448       $unwind$?fin$0@?0???$?RV<lambda_72d1df2b273a38828b1ce30cbf4cdab5>@@AEAV<lambda_876a65b173b8412d3a47c70a915b0cf4>@@V<lambda_41932305e351933ebe8f8be3ed8bb5dc>@@@?$__crt_seh_guarded_call@X@@QEAAX$$QEAV<lambda_72d1df2b273a38828b1ce30cbf4cdab5>@@AEAV<lambda_876a65b173b8412d3a47c70a915b0cf4>@@$$QEAV<lambda_41932305e351933ebe8f8be3ed8bb5dc>@@@Z@4HA 0000000180047448     libucrt:per_thread_data.obj
 0002:00013448       $unwind$?fin$0@?0???$?RV<lambda_b521505b218e5242e90febf6bfebc422>@@AEAV<lambda_6978c1fb23f02e42e1d9e99668cc68aa>@@V<lambda_314360699dd331753a4119843814e9a7>@@@?$__crt_seh_guarded_call@H@@QEAAH$$QEAV<lambda_b521505b218e5242e90febf6bfebc422>@@AEAV<lambda_6978c1fb23f02e42e1d9e99668cc68aa>@@$$QEAV<lambda_314360699dd331753a4119843814e9a7>@@@Z@4HA 0000000180047448     libucrt:commit.obj
 0002:00013448       $unwind$fclose$fin$0       0000000180047448     libucrt:fclose.obj
 0002:00013448       $unwind$_fcloseall$fin$0   0000000180047448     libucrt:closeall.obj
 0002:00013448       $unwind$__acrt_lowio_ensure_fh_exists$fin$0 0000000180047448     libucrt:osfinfo.obj
 0002:00013448       $unwind$?fin$0@?0???$?RV<lambda_e24bbb7b643b32fcea6fa61b31d4c984>@@AEAV<lambda_275893d493268fdec8709772e3fcec0e>@@V<lambda_9d71df4d7cf3f480f8d633942495c3b0>@@@?$__crt_seh_guarded_call@H@@QEAAH$$QEAV<lambda_e24bbb7b643b32fcea6fa61b31d4c984>@@AEAV<lambda_275893d493268fdec8709772e3fcec0e>@@$$QEAV<lambda_9d71df4d7cf3f480f8d633942495c3b0>@@@Z@4HA 0000000180047448     libucrt:onexit.obj
 0002:00013448       $unwind$?fin$0@?0???$?RV<lambda_b8c45f8f788dd370798f47cfe8ac3a86>@@AEAV<lambda_4e60a939b0d047cfe11ddc22648dfba9>@@V<lambda_332c3edc96d0294ec56c57d38c1cdfd5>@@@?$__crt_seh_guarded_call@H@@QEAAH$$QEAV<lambda_b8c45f8f788dd370798f47cfe8ac3a86>@@AEAV<lambda_4e60a939b0d047cfe11ddc22648dfba9>@@$$QEAV<lambda_332c3edc96d0294ec56c57d38c1cdfd5>@@@Z@4HA 0000000180047448     libucrt:onexit.obj
 0002:00013448       $unwind$__acrt_initialize_lowio$fin$0 0000000180047448     libucrt:ioinit.obj
 0002:00013448       $unwind$?dtor$6@?0??New@Canvas@@SAXAEBV?$FunctionCallbackInfo@VValue@v8@@@Nan@@@Z@4HA 0000000180047448     Canvas.obj
 0002:00013448       $unwind$?fin$0@?0???$common_lseek@_J@@YA_JH_JH@Z@4HA 0000000180047448     libucrt:lseek.obj
 0002:00013448       $unwind$_IsNonwritableInCurrentImage$filt$0 0000000180047448     LIBCMT:pesect.obj
 0002:00013448       $unwind$?dtor$1@?0??New@Canvas@@SAXAEBV?$FunctionCallbackInfo@VValue@v8@@@Nan@@@Z@4HA 0000000180047448     Canvas.obj
 0002:00013448       $unwind$?dtor$3@?0??New@Canvas@@SAXAEBV?$FunctionCallbackInfo@VValue@v8@@@Nan@@@Z@4HA 0000000180047448     Canvas.obj
 0002:00013448       $unwind$?fin$0@?0???$?RV<lambda_7b91131dde12e1c3dfc74ff76b3f2eac>@@AEAV<lambda_dd75445284c072d0bd3768540cc698fa>@@V<lambda_16bc4ecb55b4718497c16bceaea2ceaf>@@@?$__crt_seh_guarded_call@H@@QEAAH$$QEAV<lambda_7b91131dde12e1c3dfc74ff76b3f2eac>@@AEAV<lambda_dd75445284c072d0bd3768540cc698fa>@@$$QEAV<lambda_16bc4ecb55b4718497c16bceaea2ceaf>@@@Z@4HA 0000000180047448     libucrt:output.obj
 0002:00013448       $unwind$?dtor$5@?0??New@Canvas@@SAXAEBV?$FunctionCallbackInfo@VValue@v8@@@Nan@@@Z@4HA 0000000180047448     Canvas.obj
 0002:00013448       $unwind$?dtor$4@?0??New@Canvas@@SAXAEBV?$FunctionCallbackInfo@VValue@v8@@@Nan@@@Z@4HA 0000000180047448     Canvas.obj
 0002:00013450       $unwind$??1PdfBackend@@UEAA@XZ 0000000180047450     PdfBackend.obj
 0002:00013468       $ip2state$??1PdfBackend@@UEAA@XZ 0000000180047468     PdfBackend.obj
 0002:00013470       $unwind$??__F?constructor@PdfBackend@@2V?$Persistent@VFunctionTemplate@v8@@V?$NonCopyablePersistentTraits@VFunctionTemplate@v8@@@2@@Nan@@A@@YAXXZ 0000000180047470     PdfBackend.obj
 0002:00013480       $ip2state$??__F?constructor@PdfBackend@@2V?$Persistent@VFunctionTemplate@v8@@V?$NonCopyablePersistentTraits@VFunctionTemplate@v8@@@2@@Nan@@A@@YAXXZ 0000000180047480     PdfBackend.obj
 0002:00013488       $unwind$?Initialize@PdfBackend@@SAXV?$Local@VObject@v8@@@v8@@@Z 0000000180047488     PdfBackend.obj
 0002:00013498       $ip2state$?Initialize@PdfBackend@@SAXV?$Local@VObject@v8@@@v8@@@Z 0000000180047498     PdfBackend.obj
 0002:000134b0       $unwind$?New@PdfBackend@@SAXAEBV?$FunctionCallbackInfo@VValue@v8@@@Nan@@@Z 00000001800474b0     PdfBackend.obj
 0002:000134c8       $stateUnwindMap$?New@PdfBackend@@SAXAEBV?$FunctionCallbackInfo@VValue@v8@@@Nan@@@Z 00000001800474c8     PdfBackend.obj
 0002:000134c8       $stateUnwindMap$?New@SvgBackend@@SAXAEBV?$FunctionCallbackInfo@VValue@v8@@@Nan@@@Z 00000001800474c8     SvgBackend.obj
 0002:000134d0       $ip2state$?New@PdfBackend@@SAXAEBV?$FunctionCallbackInfo@VValue@v8@@@Nan@@@Z 00000001800474d0     PdfBackend.obj
 0002:000134e8       $unwind$??1SvgBackend@@UEAA@XZ 00000001800474e8     SvgBackend.obj
 0002:00013500       $ip2state$??1SvgBackend@@UEAA@XZ 0000000180047500     SvgBackend.obj
 0002:00013508       $unwind$??__F?constructor@SvgBackend@@2V?$Persistent@VFunctionTemplate@v8@@V?$NonCopyablePersistentTraits@VFunctionTemplate@v8@@@2@@Nan@@A@@YAXXZ 0000000180047508     SvgBackend.obj
 0002:00013518       $ip2state$??__F?constructor@SvgBackend@@2V?$Persistent@VFunctionTemplate@v8@@V?$NonCopyablePersistentTraits@VFunctionTemplate@v8@@@2@@Nan@@A@@YAXXZ 0000000180047518     SvgBackend.obj
 0002:00013520       $unwind$?Initialize@SvgBackend@@SAXV?$Local@VObject@v8@@@v8@@@Z 0000000180047520     SvgBackend.obj
 0002:00013530       $ip2state$?Initialize@SvgBackend@@SAXV?$Local@VObject@v8@@@v8@@@Z 0000000180047530     SvgBackend.obj
 0002:00013548       $unwind$?New@SvgBackend@@SAXAEBV?$FunctionCallbackInfo@VValue@v8@@@Nan@@@Z 0000000180047548     SvgBackend.obj
 0002:00013560       $ip2state$?New@SvgBackend@@SAXAEBV?$FunctionCallbackInfo@VValue@v8@@@Nan@@@Z 0000000180047560     SvgBackend.obj
 0002:00013578       $unwind$?Initialize@Backends@@SAXV?$Local@VObject@v8@@@v8@@@Z 0000000180047578     Backends.obj
 0002:00013588       $ip2state$?Initialize@Backends@@SAXV?$Local@VObject@v8@@@v8@@@Z 0000000180047588     Backends.obj
 0002:000135a0       $unwind$?GetterCallbackWrapper@imp@Nan@@YAXV?$Local@VName@v8@@@v8@@AEBV?$PropertyCallbackInfo@VValue@v8@@@4@@Z 00000001800475a0     Canvas.obj
 0002:000135ac       $unwind$?SetterCallbackWrapper@imp@Nan@@YAXV?$Local@VName@v8@@@v8@@V?$Local@VValue@v8@@@4@AEBV?$PropertyCallbackInfo@X@4@@Z 00000001800475ac     Canvas.obj
 0002:000135b8       $unwind$?Set@Nan@@YA?AV?$Maybe@_N@v8@@V?$Local@VObject@v8@@@3@V?$Local@VValue@v8@@@3@1@Z 00000001800475b8     Canvas.obj
 0002:000135cc       $stateUnwindMap$?Set@Nan@@YA?AV?$Maybe@_N@v8@@V?$Local@VObject@v8@@@3@V?$Local@VValue@v8@@@3@1@Z 00000001800475cc     Canvas.obj
 0002:000135d8       $ip2state$?Set@Nan@@YA?AV?$Maybe@_N@v8@@V?$Local@VObject@v8@@@3@V?$Local@VValue@v8@@@3@1@Z 00000001800475d8     Canvas.obj
 0002:000135f0       $unwind$?Call@Nan@@YA?AV?$MaybeLocal@VValue@v8@@@v8@@V?$Local@VFunction@v8@@@3@V?$Local@VObject@v8@@@3@HQEAV?$Local@VValue@v8@@@3@@Z 00000001800475f0     Canvas.obj
 0002:00013608       $stateUnwindMap$?NewInstance@Nan@@YA?AV?$MaybeLocal@VObject@v8@@@v8@@V?$Local@VFunction@v8@@@3@HQEAV?$Local@VValue@v8@@@3@@Z 0000000180047608     CanvasRenderingContext2d.obj
 0002:00013608       $stateUnwindMap$?Call@Nan@@YA?AV?$MaybeLocal@VValue@v8@@@v8@@V?$Local@VFunction@v8@@@3@V?$Local@VObject@v8@@@3@HQEAV?$Local@VValue@v8@@@3@@Z 0000000180047608     Canvas.obj
 0002:00013610       $ip2state$?Call@Nan@@YA?AV?$MaybeLocal@VValue@v8@@@v8@@V?$Local@VFunction@v8@@@3@V?$Local@VObject@v8@@@3@HQEAV?$Local@VValue@v8@@@3@@Z 0000000180047610     Canvas.obj
 0002:00013628       $unwind$?convert@?$ToFactory@VUint32@v8@@@imp@Nan@@SA?AV?$MaybeLocal@VUint32@v8@@@v8@@V?$Local@VValue@v8@@@5@@Z 0000000180047628     Canvas.obj
 0002:00013640       $ip2state$?convert@?$ToFactory@VUint32@v8@@@imp@Nan@@SA?AV?$MaybeLocal@VUint32@v8@@@v8@@V?$Local@VValue@v8@@@5@@Z 0000000180047640     Canvas.obj
 0002:00013658       $unwind$?ThrowError@Nan@@YAXPEBD@Z 0000000180047658     Canvas.obj
 0002:00013668       $ip2state$?ThrowError@Nan@@YAXPEBD@Z 0000000180047668     Canvas.obj
 0002:00013680       $unwind$?ThrowRangeError@Nan@@YAXPEBD@Z 0000000180047680     Canvas.obj
 0002:00013690       $ip2state$?ThrowRangeError@Nan@@YAXPEBD@Z 0000000180047690     Canvas.obj
 0002:000136a8       $unwind$?ThrowTypeError@Nan@@YAXPEBD@Z 00000001800476a8     Canvas.obj
 0002:000136b8       $ip2state$?ThrowTypeError@Nan@@YAXPEBD@Z 00000001800476b8     Canvas.obj
 0002:000136d0       $unwind$?Call@Callback@Nan@@QEBA?AV?$Local@VValue@v8@@@v8@@HQEAV34@@Z 00000001800476d0     Canvas.obj
 0002:000136ec       $stateUnwindMap$?Call@Callback@Nan@@QEBA?AV?$Local@VValue@v8@@@v8@@HQEAV34@@Z 00000001800476ec     Canvas.obj
 0002:000136f8       $ip2state$?Call@Callback@Nan@@QEBA?AV?$Local@VValue@v8@@@v8@@HQEAV34@@Z 00000001800476f8     Canvas.obj
 0002:00013710       $unwind$?Call_@Callback@Nan@@AEBA?AV?$Local@VValue@v8@@@v8@@PEAVIsolate@4@V?$Local@VObject@v8@@@4@HQEAV34@@Z 0000000180047710     Canvas.obj
 0002:00013728       $ip2state$?Call_@Callback@Nan@@AEBA?AV?$Local@VValue@v8@@@v8@@PEAVIsolate@4@V?$Local@VObject@v8@@@4@HQEAV34@@Z 0000000180047728     Canvas.obj
 0002:00013740       $unwind$?SetPrototypeMethod@Nan@@YAXV?$Local@VFunctionTemplate@v8@@@v8@@PEBDP6AXAEBV?$FunctionCallbackInfo@VValue@v8@@@1@@Z@Z 0000000180047740     Canvas.obj
 0002:00013758       $stateUnwindMap$?Initialize@Pattern@@SAXV?$Local@VObject@v8@@@v8@@@Z 0000000180047758     CanvasPattern.obj
 0002:00013758       $stateUnwindMap$?SetPrototypeMethod@Nan@@YAXV?$Local@VFunctionTemplate@v8@@@v8@@PEBDP6AXAEBV?$FunctionCallbackInfo@VValue@v8@@@1@@Z@Z 0000000180047758     Canvas.obj
 0002:00013758       $stateUnwindMap$?Initialize@Gradient@@SAXV?$Local@VObject@v8@@@v8@@@Z 0000000180047758     CanvasGradient.obj
 0002:00013760       $ip2state$?SetPrototypeMethod@Nan@@YAXV?$Local@VFunctionTemplate@v8@@@v8@@PEBDP6AXAEBV?$FunctionCallbackInfo@VValue@v8@@@1@@Z@Z 0000000180047760     Canvas.obj
 0002:00013778       $unwind$?SetAccessor@Nan@@YAXV?$Local@VObjectTemplate@v8@@@v8@@V?$Local@VString@v8@@@3@P6AX1AEBV?$PropertyCallbackInfo@VValue@v8@@@1@@ZP6AX1V?$Local@VValue@v8@@@3@AEBV?$PropertyCallbackInfo@X@1@@Z4W4AccessControl@3@W4PropertyAttribute@3@V?$Local@VAccessorSignature@v8@@@3@@Z 0000000180047778     Canvas.obj
 0002:00013790       $stateUnwindMap$?Initialize@ImageData@@SAXV?$Local@VObject@v8@@@v8@@@Z 0000000180047790     ImageData.obj
 0002:00013790       $stateUnwindMap$?Initialize@Canvas@@SAXV?$Local@VObject@v8@@@v8@@@Z 0000000180047790     Canvas.obj
 0002:00013790       $stateUnwindMap$?Initialize@Context2d@@SAXV?$Local@VObject@v8@@@v8@@@Z 0000000180047790     CanvasRenderingContext2d.obj
 0002:00013790       $stateUnwindMap$?SetAccessor@Nan@@YAXV?$Local@VObjectTemplate@v8@@@v8@@V?$Local@VString@v8@@@3@P6AX1AEBV?$PropertyCallbackInfo@VValue@v8@@@1@@ZP6AX1V?$Local@VValue@v8@@@3@AEBV?$PropertyCallbackInfo@X@1@@Z4W4AccessControl@3@W4PropertyAttribute@3@V?$Local@VAccessorSignature@v8@@@3@@Z 0000000180047790     Canvas.obj
 0002:00013790       $stateUnwindMap$?Initialize@Image@@SAXV?$Local@VObject@v8@@@v8@@@Z 0000000180047790     Image.obj
 0002:00013798       $ip2state$?SetAccessor@Nan@@YAXV?$Local@VObjectTemplate@v8@@@v8@@V?$Local@VString@v8@@@3@P6AX1AEBV?$PropertyCallbackInfo@VValue@v8@@@1@@ZP6AX1V?$Local@VValue@v8@@@3@AEBV?$PropertyCallbackInfo@X@1@@Z4W4AccessControl@3@W4PropertyAttribute@3@V?$Local@VAccessorSignature@v8@@@3@@Z 0000000180047798     Canvas.obj
 0002:000137b0       $unwind$?canvas_unpremultiply_data@@YAXPEAUpng_struct_def@@PEAUpng_row_info_struct@@PEAE@Z 00000001800477b0     Canvas.obj
 0002:000137bc       $chain$0$?canvas_unpremultiply_data@@YAXPEAUpng_struct_def@@PEAUpng_row_info_struct@@PEAE@Z 00000001800477bc     Canvas.obj
 0002:000137d0       $chain$1$?canvas_unpremultiply_data@@YAXPEAUpng_struct_def@@PEAUpng_row_info_struct@@PEAE@Z 00000001800477d0     Canvas.obj
 0002:000137e0       $unwind$?dllmain_crt_dispatch@@YAHQEAUHINSTANCE__@@KQEAX@Z 00000001800477e0     LIBCMT:dll_dllmain.obj
 0002:000137e0       $unwind$?state_case_size@?$output_processor@DV?$string_output_adapter@D@__crt_stdio_output@@V?$standard_base@DV?$string_output_adapter@D@__crt_stdio_output@@@2@@__crt_stdio_output@@AEAA_NXZ 00000001800477e0     libucrt:output.obj
 0002:000137e0       $unwind$uninitialize_environment 00000001800477e0     libucrt:initialization.obj
 0002:000137e0       $unwind$??__F_Fac_tidy_reg@std@@YAXXZ 00000001800477e0     libcpmt:locale0.obj
 0002:000137e0       $unwind$initialize_c       00000001800477e0     libucrt:initialization.obj
 0002:000137e0       $unwind$__std_terminate    00000001800477e0     libvcruntime:frame.obj
 0002:000137e0       $unwind$__acrt_thread_detach 00000001800477e0     libucrt:initialization.obj
 0002:000137e0       $unwind$?_Reserve@?$vector@VFontFace@@V?$allocator@VFontFace@@@std@@@std@@IEAAX_K@Z 00000001800477e0     Canvas.obj
 0002:000137e0       $unwind$?Stroke@Context2d@@SAXAEBV?$FunctionCallbackInfo@VValue@v8@@@Nan@@@Z 00000001800477e0     CanvasRenderingContext2d.obj
 0002:000137e0       $unwind$__acrt_thread_attach 00000001800477e0     libucrt:initialization.obj
 0002:000137e0       $unwind$?_Tidy@?$vector@VFontFace@@V?$allocator@VFontFace@@@std@@@std@@IEAAXXZ 00000001800477e0     Canvas.obj
 0002:000137e0       $unwind$__acrt_release_locale_ref 00000001800477e0     libucrt:locale_refcounting.obj
 0002:000137e0       $unwind$_errno             00000001800477e0     libucrt:errno.obj
 0002:000137e0       $unwind$__vcrt_initialize  00000001800477e0     libvcruntime:initialization.obj
 0002:000137e0       $unwind$?initialize_multibyte@@YAHXZ 00000001800477e0     libucrt:multibyte_initializer.obj
 0002:000137e0       $unwind$?setjmp_wrapper@@YA_NPEAUpng_struct_def@@@Z 00000001800477e0     Canvas.obj
 0002:000137e0       $unwind$_get_osfhandle     00000001800477e0     libucrt:osfinfo.obj
 0002:000137e0       $unwind$_getfpcontrolword  00000001800477e0     libucrt:_fenvutils.obj
 0002:000137e0       $unwind$__vcrt_uninitialize 00000001800477e0     libvcruntime:initialization.obj
 0002:000137e0       $unwind$__acrt_DownlevelLocaleNameToLCID 00000001800477e0     libucrt:lcidtoname_downlevel.obj
 0002:000137e0       $unwind$__GSHandlerCheck   00000001800477e0     LIBCMT:_gshandler_.obj
 0002:000137e0       $unwind$__vcrt_uninitialize_critical 00000001800477e0     libvcruntime:initialization.obj
 0002:000137e0       $unwind$_invoke_watson     00000001800477e0     libucrt:invalid_parameter.obj
 0002:000137e0       $unwind$__dcrt_uninitialize_environments_nolock 00000001800477e0     libucrt:environment_initialization.obj
 0002:000137e0       $unwind$?ResetTransform@Context2d@@SAXAEBV?$FunctionCallbackInfo@VValue@v8@@@Nan@@@Z 00000001800477e0     CanvasRenderingContext2d.obj
 0002:000137e0       $unwind$__acrt_uninitialize_critical 00000001800477e0     libucrt:initialization.obj
 0002:000137e0       $unwind$__vcrt_thread_attach 00000001800477e0     libvcruntime:initialization.obj
 0002:000137e0       $unwind$?state_case_normal_tchar@?$output_processor@DV?$string_output_adapter@D@__crt_stdio_output@@V?$standard_base@DV?$string_output_adapter@D@__crt_stdio_output@@@2@@__crt_stdio_output@@AEAA_ND@Z 00000001800477e0     libucrt:output.obj
 0002:000137e0       $unwind$?ClosePath@Context2d@@SAXAEBV?$FunctionCallbackInfo@VValue@v8@@@Nan@@@Z 00000001800477e0     CanvasRenderingContext2d.obj
 0002:000137e0       $unwind$_getfpstatusword   00000001800477e0     libucrt:_fenvutils.obj
 0002:000137e0       $unwind$?state_case_size@?$output_processor@_WV?$string_output_adapter@_W@__crt_stdio_output@@V?$standard_base@_WV?$string_output_adapter@_W@__crt_stdio_output@@@2@@__crt_stdio_output@@AEAA_NXZ 00000001800477e0     libucrt:output.obj
 0002:000137e0       $unwind$_get_fmode         00000001800477e0     libucrt:setmode.obj
 0002:000137e0       $unwind$__pctype_func      00000001800477e0     libucrt:ctype.obj
 0002:000137e0       $unwind$_set_error_mode    00000001800477e0     libucrt:set_error_mode.obj
 0002:000137e0       $unwind$__report_rangecheckfailure 00000001800477e0     LIBCMT:gs_report.obj
 0002:000137e0       $unwind$_isatty            00000001800477e0     libucrt:isatty.obj
 0002:000137e0       $unwind$??__E?_font_face_list@Canvas@@0V?$vector@VFontFace@@V?$allocator@VFontFace@@@std@@@std@@A@@YAXXZ 00000001800477e0     Canvas.obj
 0002:000137e0       $unwind$__acrt_initialize_heap 00000001800477e0     libucrt:heap_handle.obj
 0002:000137e0       $unwind$??__Einitlocks@std@@YAXXZ 00000001800477e0     libcpmt:xlock.obj
 0002:000137e0       $unwind$?BeginPath@Context2d@@SAXAEBV?$FunctionCallbackInfo@VValue@v8@@@Nan@@@Z 00000001800477e0     CanvasRenderingContext2d.obj
 0002:000137e0       $unwind$__FrameUnwindFilter 00000001800477e0     libvcruntime:frame.obj
 0002:000137e0       $unwind$?Restore@Context2d@@SAXAEBV?$FunctionCallbackInfo@VValue@v8@@@Nan@@@Z 00000001800477e0     CanvasRenderingContext2d.obj
 0002:000137e0       $unwind$??$uninitialize_environment_internal@D@@YAXAEAPEAPEAD@Z 00000001800477e0     libucrt:environment_initialization.obj
 0002:000137e0       $unwind$?Save@Context2d@@SAXAEBV?$FunctionCallbackInfo@VValue@v8@@@Nan@@@Z 00000001800477e0     CanvasRenderingContext2d.obj
 0002:000137e0       $unwind$__vcrt_thread_detach 00000001800477e0     libvcruntime:initialization.obj
 0002:000137e0       $unwind$??$uninitialize_environment_internal@_W@@YAXAEAPEAPEA_W@Z 00000001800477e0     libucrt:environment_initialization.obj
 0002:000137e0       $unwind$__scrt_initialize_default_local_stdio_options 00000001800477e0     LIBCMT:default_local_stdio_options.obj
 0002:000137e0       $unwind$_GetImageBase      00000001800477e0     libvcruntime:trnsctrl.obj
 0002:000137e0       $unwind$__scrt_dllmain_crt_thread_detach 00000001800477e0     LIBCMT:utility.obj
 0002:000137e0       $unwind$_msize             00000001800477e0     libucrt:msize.obj
 0002:000137e0       $unwind$__scrt_dllmain_crt_thread_attach 00000001800477e0     LIBCMT:utility.obj
 0002:000137e0       $unwind$__acrt_initialize_ptd 00000001800477e0     libucrt:per_thread_data.obj
 0002:000137e0       $unwind$__acrt_uninitialize_ptd 00000001800477e0     libucrt:per_thread_data.obj
 0002:000137e0       $unwind$__vcrt_freefls     00000001800477e0     libvcruntime:per_thread_data.obj
 0002:000137e0       $unwind$__scrt_dllmain_uninitialize_critical 00000001800477e0     LIBCMT:utility.obj
 0002:000137e0       $unwind$__vcrt_getptd      00000001800477e0     libvcruntime:per_thread_data.obj
 0002:000137e0       $unwind$__vcrt_uninitialize_ptd 00000001800477e0     libvcruntime:per_thread_data.obj
 0002:000137e0       $unwind$_statfp            00000001800477e0     libucrt:fpctrl.obj
 0002:000137e0       $unwind$_set_errno_from_matherr 00000001800477e0     libucrt:fpexcept.obj
 0002:000137e0       $unwind$_strnicmp          00000001800477e0     libucrt:strnicmp.obj
 0002:000137e0       $unwind$__scrt_dllmain_uninitialize_c 00000001800477e0     LIBCMT:utility.obj
 0002:000137e0       $unwind$__vcrt_initialize_ptd 00000001800477e0     libvcruntime:per_thread_data.obj
 0002:000137e0       $unwind$__scrt_dllmain_after_initialize_c 00000001800477e0     LIBCMT:utility.obj
 0002:000137e0       $unwind$__acrt_initialize_multibyte 00000001800477e0     libucrt:mbctype.obj
 0002:000137e0       $unwind$?state_case_size@?$output_processor@_WV?$stream_output_adapter@_W@__crt_stdio_output@@V?$standard_base@_WV?$stream_output_adapter@_W@__crt_stdio_output@@@2@@__crt_stdio_output@@AEAA_NXZ 00000001800477e0     libucrt:output.obj
 0002:000137e0       $unwind$?__GetCurrentState@@YAHPEA_KPEAU_xDISPATCHER_CONTEXT@@PEBU_s_FuncInfo@@@Z 00000001800477e0     libvcruntime:ehstate.obj
 0002:000137e0       $unwind$__doserrno         00000001800477e0     libucrt:errno.obj
 0002:000137e0       $unwind$_stricmp           00000001800477e0     libucrt:stricmp.obj
 0002:000137e0       $unwind$__scrt_dllmain_before_initialize_c 00000001800477e0     LIBCMT:utility.obj
 0002:000137e0       $unwind$?__scrt_uninitialize_thread_safe_statics@@YAXXZ 00000001800477e0     LIBCMT:thread_safe_statics.obj
 0002:000137e0       $unwind$_fileno            00000001800477e0     libucrt:fileno.obj
 0002:000137e0       $unwind$_GetThrowImageBase 00000001800477e0     libvcruntime:trnsctrl.obj
 0002:000137e0       $unwind$abort              00000001800477e0     libucrt:abort.obj
 0002:000137e0       $unwind$__acrt_initialize_command_line 00000001800477e0     libucrt:argv_data.obj
 0002:000137e0       $unwind$atexit             00000001800477e0     LIBCMT:utility.obj
 0002:000137e0       $unwind$__dcrt_terminate_console_output 00000001800477e0     libucrt:initcon.obj
 0002:000137e0       $unwind$??__Einitlocks@std@@YAXXZ 00000001800477e0     libcpmt:iosptrs.obj
 0002:000137e0       $unwind$tolower            00000001800477e0     libucrt:tolower_toupper.obj
 0002:000137e0       $unwind$__scrt_acquire_startup_lock 00000001800477e0     LIBCMT:utility.obj
 0002:000137e8       $unwind$?canvas_write_png@@YA?AW4_cairo_status@@PEAU_cairo_surface@@P6AXPEAUpng_struct_def@@PEAE_K@ZPEAUcanvas_png_write_closure_t@@@Z 00000001800477e8     Canvas.obj
 0002:00013808       $chain$0$?canvas_write_png@@YA?AW4_cairo_status@@PEAU_cairo_surface@@P6AXPEAUpng_struct_def@@PEAE_K@ZPEAUcanvas_png_write_closure_t@@@Z 0000000180047808     Canvas.obj
 0002:0001381c       $chain$1$?canvas_write_png@@YA?AW4_cairo_status@@PEAU_cairo_surface@@P6AXPEAUpng_struct_def@@PEAE_K@ZPEAUcanvas_png_write_closure_t@@@Z 000000018004781c     Canvas.obj
 0002:0001381c       $chain$3$?canvas_write_png@@YA?AW4_cairo_status@@PEAU_cairo_surface@@P6AXPEAUpng_struct_def@@PEAE_K@ZPEAUcanvas_png_write_closure_t@@@Z 000000018004781c     Canvas.obj
 0002:0001382c       $chain$2$?canvas_write_png@@YA?AW4_cairo_status@@PEAU_cairo_surface@@P6AXPEAUpng_struct_def@@PEAE_K@ZPEAUcanvas_png_write_closure_t@@@Z 000000018004782c     Canvas.obj
 0002:00013840       $unwind$??__F?constructor@Canvas@@2V?$Persistent@VFunctionTemplate@v8@@V?$NonCopyablePersistentTraits@VFunctionTemplate@v8@@@2@@Nan@@A@@YAXXZ 0000000180047840     Canvas.obj
 0002:00013850       $ip2state$??__F?constructor@Canvas@@2V?$Persistent@VFunctionTemplate@v8@@V?$NonCopyablePersistentTraits@VFunctionTemplate@v8@@@2@@Nan@@A@@YAXXZ 0000000180047850     Canvas.obj
 0002:00013858       $unwind$?Initialize@Canvas@@SAXV?$Local@VObject@v8@@@v8@@@Z 0000000180047858     Canvas.obj
 0002:00013870       $ip2state$?Initialize@Canvas@@SAXV?$Local@VObject@v8@@@v8@@@Z 0000000180047870     Canvas.obj
 0002:00013888       $unwind$?New@Canvas@@SAXAEBV?$FunctionCallbackInfo@VValue@v8@@@Nan@@@Z 0000000180047888     Canvas.obj
 0002:000138a0       $stateUnwindMap$?New@Canvas@@SAXAEBV?$FunctionCallbackInfo@VValue@v8@@@Nan@@@Z 00000001800478a0     Canvas.obj
 0002:000138d0       $ip2state$?New@Canvas@@SAXAEBV?$FunctionCallbackInfo@VValue@v8@@@Nan@@@Z 00000001800478d0     Canvas.obj
 0002:00013928       $unwind$?GetType@Canvas@@SAXV?$Local@VString@v8@@@v8@@AEBV?$PropertyCallbackInfo@VValue@v8@@@Nan@@@Z 0000000180047928     Canvas.obj
 0002:00013928       $unwind$_mbsdec_l          0000000180047928     libucrt:mbsdec.obj
 0002:00013934       $unwind$?GetStride@Canvas@@SAXV?$Local@VString@v8@@@v8@@AEBV?$PropertyCallbackInfo@VValue@v8@@@Nan@@@Z 0000000180047934     Canvas.obj
 0002:00013944       $unwind$?GetNaturalWidth@Image@@SAXV?$Local@VString@v8@@@v8@@AEBV?$PropertyCallbackInfo@VValue@v8@@@Nan@@@Z 0000000180047944     Image.obj
 0002:00013944       $unwind$?GetWidth@Canvas@@SAXV?$Local@VString@v8@@@v8@@AEBV?$PropertyCallbackInfo@VValue@v8@@@Nan@@@Z 0000000180047944     Canvas.obj
 0002:00013944       $unwind$?GetHeight@Canvas@@SAXV?$Local@VString@v8@@@v8@@AEBV?$PropertyCallbackInfo@VValue@v8@@@Nan@@@Z 0000000180047944     Canvas.obj
 0002:00013944       $unwind$?GetLineWidth@Context2d@@SAXV?$Local@VString@v8@@@v8@@AEBV?$PropertyCallbackInfo@VValue@v8@@@Nan@@@Z 0000000180047944     CanvasRenderingContext2d.obj
 0002:00013944       $unwind$?GetGlobalAlpha@Context2d@@SAXV?$Local@VString@v8@@@v8@@AEBV?$PropertyCallbackInfo@VValue@v8@@@Nan@@@Z 0000000180047944     CanvasRenderingContext2d.obj
 0002:00013944       $unwind$?GetLineDashOffset@Context2d@@SAXV?$Local@VString@v8@@@v8@@AEBV?$PropertyCallbackInfo@VValue@v8@@@Nan@@@Z 0000000180047944     CanvasRenderingContext2d.obj
 0002:00013944       $unwind$?GetShadowOffsetX@Context2d@@SAXV?$Local@VString@v8@@@v8@@AEBV?$PropertyCallbackInfo@VValue@v8@@@Nan@@@Z 0000000180047944     CanvasRenderingContext2d.obj
 0002:00013944       $unwind$?GetShadowBlur@Context2d@@SAXV?$Local@VString@v8@@@v8@@AEBV?$PropertyCallbackInfo@VValue@v8@@@Nan@@@Z 0000000180047944     CanvasRenderingContext2d.obj
 0002:00013944       $unwind$?GetWidth@Image@@SAXV?$Local@VString@v8@@@v8@@AEBV?$PropertyCallbackInfo@VValue@v8@@@Nan@@@Z 0000000180047944     Image.obj
 0002:00013944       $unwind$?GetDataMode@Image@@SAXV?$Local@VString@v8@@@v8@@AEBV?$PropertyCallbackInfo@VValue@v8@@@Nan@@@Z 0000000180047944     Image.obj
 0002:00013944       $unwind$?GetNaturalHeight@Image@@SAXV?$Local@VString@v8@@@v8@@AEBV?$PropertyCallbackInfo@VValue@v8@@@Nan@@@Z 0000000180047944     Image.obj
 0002:00013944       $unwind$?GetHeight@Image@@SAXV?$Local@VString@v8@@@v8@@AEBV?$PropertyCallbackInfo@VValue@v8@@@Nan@@@Z 0000000180047944     Image.obj
 0002:00013944       $unwind$?GetMiterLimit@Context2d@@SAXV?$Local@VString@v8@@@v8@@AEBV?$PropertyCallbackInfo@VValue@v8@@@Nan@@@Z 0000000180047944     CanvasRenderingContext2d.obj
 0002:00013944       $unwind$?GetShadowOffsetY@Context2d@@SAXV?$Local@VString@v8@@@v8@@AEBV?$PropertyCallbackInfo@VValue@v8@@@Nan@@@Z 0000000180047944     CanvasRenderingContext2d.obj
 0002:00013944       $unwind$?GetWidth@ImageData@@SAXV?$Local@VString@v8@@@v8@@AEBV?$PropertyCallbackInfo@VValue@v8@@@Nan@@@Z 0000000180047944     ImageData.obj
 0002:00013944       $unwind$?GetHeight@ImageData@@SAXV?$Local@VString@v8@@@v8@@AEBV?$PropertyCallbackInfo@VValue@v8@@@Nan@@@Z 0000000180047944     ImageData.obj
 0002:00013950       $unwind$?SetWidth@Canvas@@SAXV?$Local@VString@v8@@@v8@@V?$Local@VValue@v8@@@3@AEBV?$PropertyCallbackInfo@X@Nan@@@Z 0000000180047950     Canvas.obj
 0002:00013950       $unwind$?SetHeight@Canvas@@SAXV?$Local@VString@v8@@@v8@@V?$Local@VValue@v8@@@3@AEBV?$PropertyCallbackInfo@X@Nan@@@Z 0000000180047950     Canvas.obj
 0002:00013958       $chain$1$?SetWidth@Canvas@@SAXV?$Local@VString@v8@@@v8@@V?$Local@VValue@v8@@@3@AEBV?$PropertyCallbackInfo@X@Nan@@@Z 0000000180047958     Canvas.obj
 0002:00013970       $chain$2$?SetWidth@Canvas@@SAXV?$Local@VString@v8@@@v8@@V?$Local@VValue@v8@@@3@AEBV?$PropertyCallbackInfo@X@Nan@@@Z 0000000180047970     Canvas.obj
 0002:00013980       $chain$3$?SetWidth@Canvas@@SAXV?$Local@VString@v8@@@v8@@V?$Local@VValue@v8@@@3@AEBV?$PropertyCallbackInfo@X@Nan@@@Z 0000000180047980     Canvas.obj
 0002:00013998       $chain$1$?SetHeight@Canvas@@SAXV?$Local@VString@v8@@@v8@@V?$Local@VValue@v8@@@3@AEBV?$PropertyCallbackInfo@X@Nan@@@Z 0000000180047998     Canvas.obj
 0002:000139b0       $chain$2$?SetHeight@Canvas@@SAXV?$Local@VString@v8@@@v8@@V?$Local@VValue@v8@@@3@AEBV?$PropertyCallbackInfo@X@Nan@@@Z 00000001800479b0     Canvas.obj
 0002:000139c0       $chain$3$?SetHeight@Canvas@@SAXV?$Local@VString@v8@@@v8@@V?$Local@VValue@v8@@@3@AEBV?$PropertyCallbackInfo@X@Nan@@@Z 00000001800479c0     Canvas.obj
 0002:000139d8       $unwind$?GetPatternQuality@Context2d@@SAXV?$Local@VString@v8@@@v8@@AEBV?$PropertyCallbackInfo@VValue@v8@@@Nan@@@Z 00000001800479d8     CanvasRenderingContext2d.obj
 0002:000139d8       $unwind$?loadFromBuffer@Image@@QEAA?AW4_cairo_status@@PEAEI@Z 00000001800479d8     Image.obj
 0002:000139d8       $unwind$?GetFilter@Context2d@@SAXV?$Local@VString@v8@@@v8@@AEBV?$PropertyCallbackInfo@VValue@v8@@@Nan@@@Z 00000001800479d8     CanvasRenderingContext2d.obj
 0002:000139d8       $unwind$?GetSource@Image@@SAXV?$Local@VString@v8@@@v8@@AEBV?$PropertyCallbackInfo@VValue@v8@@@Nan@@@Z 00000001800479d8     Image.obj
 0002:000139d8       $unwind$?GetLineJoin@Context2d@@SAXV?$Local@VString@v8@@@v8@@AEBV?$PropertyCallbackInfo@VValue@v8@@@Nan@@@Z 00000001800479d8     CanvasRenderingContext2d.obj
 0002:000139d8       $unwind$?GetGlobalCompositeOperation@Context2d@@SAXV?$Local@VString@v8@@@v8@@AEBV?$PropertyCallbackInfo@VValue@v8@@@Nan@@@Z 00000001800479d8     CanvasRenderingContext2d.obj
 0002:000139d8       $unwind$?GetTextDrawingMode@Context2d@@SAXV?$Local@VString@v8@@@v8@@AEBV?$PropertyCallbackInfo@VValue@v8@@@Nan@@@Z 00000001800479d8     CanvasRenderingContext2d.obj
 0002:000139d8       $unwind$?GetLineCap@Context2d@@SAXV?$Local@VString@v8@@@v8@@AEBV?$PropertyCallbackInfo@VValue@v8@@@Nan@@@Z 00000001800479d8     CanvasRenderingContext2d.obj
 0002:000139d8       $unwind$?stroke@Context2d@@QEAAX_N@Z 00000001800479d8     CanvasRenderingContext2d.obj
 0002:000139d8       $unwind$?ToBufferAsync@Canvas@@SAXPEAUuv_work_s@@@Z 00000001800479d8     Canvas.obj
 0002:000139d8       $unwind$?fill@Context2d@@QEAAX_N@Z 00000001800479d8     CanvasRenderingContext2d.obj
 0002:000139d8       $unwind$?GetAntiAlias@Context2d@@SAXV?$Local@VString@v8@@@v8@@AEBV?$PropertyCallbackInfo@VValue@v8@@@Nan@@@Z 00000001800479d8     CanvasRenderingContext2d.obj
 0002:000139d8       $unwind$?setFillRule@Context2d@@QEAAXV?$Local@VValue@v8@@@v8@@@Z 00000001800479d8     CanvasRenderingContext2d.obj
 0002:000139d8       $unwind$??$__acrt_stdio_parse_mode@D@@YA?AU__acrt_stdio_stream_mode@@QEBD@Z 00000001800479d8     libucrt:openfile.obj
 0002:000139e4       $unwind$?ToBufferAsyncAfter@Canvas@@SAXPEAUuv_work_s@@@Z 00000001800479e4     Canvas.obj
 0002:000139fc       $stateUnwindMap$?ToBufferAsyncAfter@Canvas@@SAXPEAUuv_work_s@@@Z 00000001800479fc     Canvas.obj
 0002:00013a18       $ip2state$?ToBufferAsyncAfter@Canvas@@SAXPEAUuv_work_s@@@Z 0000000180047a18     Canvas.obj
 0002:00013a40       $unwind$?ToBuffer@Canvas@@SAXAEBV?$FunctionCallbackInfo@VValue@v8@@@Nan@@@Z 0000000180047a40     Canvas.obj
 0002:00013a6c       $stateUnwindMap$?ToBuffer@Canvas@@SAXAEBV?$FunctionCallbackInfo@VValue@v8@@@Nan@@@Z 0000000180047a6c     Canvas.obj
 0002:00013a90       $ip2state$?ToBuffer@Canvas@@SAXAEBV?$FunctionCallbackInfo@VValue@v8@@@Nan@@@Z 0000000180047a90     Canvas.obj
 0002:00013b00       $unwind$?streamPNG@@YA?AW4_cairo_status@@PEAXPEBEI@Z 0000000180047b00     Canvas.obj
 0002:00013b24       $stateUnwindMap$?streamPDF@@YA?AW4_cairo_status@@PEAXPEBEI@Z 0000000180047b24     Canvas.obj
 0002:00013b24       $stateUnwindMap$?streamPNG@@YA?AW4_cairo_status@@PEAXPEBEI@Z 0000000180047b24     Canvas.obj
 0002:00013b30       $ip2state$?streamPNG@@YA?AW4_cairo_status@@PEAXPEBEI@Z 0000000180047b30     Canvas.obj
 0002:00013b48       $unwind$?StreamPNGSync@Canvas@@SAXAEBV?$FunctionCallbackInfo@VValue@v8@@@Nan@@@Z 0000000180047b48     Canvas.obj
 0002:00013b74       $stateUnwindMap$?StreamPNGSync@Canvas@@SAXAEBV?$FunctionCallbackInfo@VValue@v8@@@Nan@@@Z 0000000180047b74     Canvas.obj
 0002:00013b80       $ip2state$?StreamPNGSync@Canvas@@SAXAEBV?$FunctionCallbackInfo@VValue@v8@@@Nan@@@Z 0000000180047b80     Canvas.obj
 0002:00013b98       $unwind$?streamPDF@@YA?AW4_cairo_status@@PEAXPEBEI@Z 0000000180047b98     Canvas.obj
 0002:00013bc0       $ip2state$?streamPDF@@YA?AW4_cairo_status@@PEAXPEBEI@Z 0000000180047bc0     Canvas.obj
 0002:00013bd8       $unwind$?StreamPDFSync@Canvas@@SAXAEBV?$FunctionCallbackInfo@VValue@v8@@@Nan@@@Z 0000000180047bd8     Canvas.obj
